TN:
SF:/home/runner/work/beaver/beaver/moose/framework/build/header_symlinks/MooseMain.h
FN:37,_ZN5Moose4mainI13BeaverTestAppEEiiPPc
FNDA:26,_ZN5Moose4mainI13BeaverTestAppEEiiPPc
FNF:1
FNH:1
DA:37,26
DA:39,26
DA:41,26
DA:43,26
DA:45,26
DA:47,26
DA:49,25
LF:7
LH:7
end_of_record
SF:/usr/share/miniconda3/envs/moose/x86_64-conda-linux-gnu/include/c++/12.3.0/ext/aligned_buffer.h
DA:104,0
LF:1
LH:0
end_of_record
SF:/usr/share/miniconda3/envs/moose/x86_64-conda-linux-gnu/include/c++/12.3.0/bits/stl_iterator_base_funcs.h
DA:105,52
LF:1
LH:1
end_of_record
SF:/usr/share/miniconda3/envs/moose/libmesh/include/libmesh/threads_pthread.h
FN:147,_ZN7libMesh7Threads10spin_mutexD2Ev
FNDA:0,_ZN7libMesh7Threads10spin_mutexD2Ev
FNF:1
FNH:0
DA:147,0
LF:1
LH:0
end_of_record
SF:/usr/share/miniconda3/envs/moose/x86_64-conda-linux-gnu/include/c++/12.3.0/bits/stl_function.h
DA:1183,9498438
LF:1
LH:1
end_of_record
SF:/usr/share/miniconda3/envs/moose/x86_64-conda-linux-gnu/include/c++/12.3.0/tuple
DA:189,0
DA:190,0
DA:192,0
DA:193,0
DA:456,0
DA:1814,0
DA:1817,0
LF:7
LH:0
end_of_record
SF:/usr/share/miniconda3/envs/moose/libmesh/include/timpi/message_tag.h
LF:0
LH:0
end_of_record
SF:/home/runner/work/beaver/beaver/moose/framework/build/header_symlinks/MooseTypes.h
LF:0
LH:0
end_of_record
SF:/usr/share/miniconda3/envs/moose/x86_64-conda-linux-gnu/include/c++/12.3.0/bits/shared_ptr_base.h
FN:143,_ZNSt16_Sp_counted_baseILN9__gnu_cxx12_Lock_policyE2EE10_M_destroyEv
FNDA:0,_ZNSt16_Sp_counted_baseILN9__gnu_cxx12_Lock_policyE2EE10_M_destroyEv
FN:172,_ZNSt16_Sp_counted_baseILN9__gnu_cxx12_Lock_policyE2EE19_M_release_last_useEv
FNDA:0,_ZNSt16_Sp_counted_baseILN9__gnu_cxx12_Lock_policyE2EE19_M_release_last_useEv
FN:198,_ZNSt16_Sp_counted_baseILN9__gnu_cxx12_Lock_policyE2EE24_M_release_last_use_coldEv
FNDA:0,_ZNSt16_Sp_counted_baseILN9__gnu_cxx12_Lock_policyE2EE24_M_release_last_use_coldEv
FN:317,_ZNSt16_Sp_counted_baseILN9__gnu_cxx12_Lock_policyE2EE10_M_releaseEv
FNDA:25,_ZNSt16_Sp_counted_baseILN9__gnu_cxx12_Lock_policyE2EE10_M_releaseEv
FN:455,_ZNSt15_Sp_counted_ptrIDnLN9__gnu_cxx12_Lock_policyE2EE10_M_disposeEv
FNDA:0,_ZNSt15_Sp_counted_ptrIDnLN9__gnu_cxx12_Lock_policyE2EE10_M_disposeEv
FN:608,_ZNSt23_Sp_counted_ptr_inplaceISt5mutexSaIvELN9__gnu_cxx12_Lock_policyE2EED0Ev
FNDA:0,_ZNSt23_Sp_counted_ptr_inplaceISt5mutexSaIvELN9__gnu_cxx12_Lock_policyE2EED0Ev
FN:608,_ZNSt23_Sp_counted_ptr_inplaceISt5mutexSaIvELN9__gnu_cxx12_Lock_policyE2EED2Ev
FNDA:0,_ZNSt23_Sp_counted_ptr_inplaceISt5mutexSaIvELN9__gnu_cxx12_Lock_policyE2EED2Ev
FN:608,_ZNSt23_Sp_counted_ptr_inplaceINSt13__future_base13_State_baseV2ESaIvELN9__gnu_cxx12_Lock_policyE2EED0Ev
FNDA:0,_ZNSt23_Sp_counted_ptr_inplaceINSt13__future_base13_State_baseV2ESaIvELN9__gnu_cxx12_Lock_policyE2EED0Ev
FN:608,_ZNSt23_Sp_counted_ptr_inplaceINSt13__future_base13_State_baseV2ESaIvELN9__gnu_cxx12_Lock_policyE2EED2Ev
FNDA:0,_ZNSt23_Sp_counted_ptr_inplaceINSt13__future_base13_State_baseV2ESaIvELN9__gnu_cxx12_Lock_policyE2EED2Ev
FN:611,_ZNSt23_Sp_counted_ptr_inplaceISt5mutexSaIvELN9__gnu_cxx12_Lock_policyE2EE10_M_disposeEv
FNDA:0,_ZNSt23_Sp_counted_ptr_inplaceISt5mutexSaIvELN9__gnu_cxx12_Lock_policyE2EE10_M_disposeEv
FN:611,_ZNSt23_Sp_counted_ptr_inplaceINSt13__future_base13_State_baseV2ESaIvELN9__gnu_cxx12_Lock_policyE2EE10_M_disposeEv
FNDA:0,_ZNSt23_Sp_counted_ptr_inplaceINSt13__future_base13_State_baseV2ESaIvELN9__gnu_cxx12_Lock_policyE2EE10_M_disposeEv
FN:618,_ZNSt23_Sp_counted_ptr_inplaceISt5mutexSaIvELN9__gnu_cxx12_Lock_policyE2EE10_M_destroyEv
FNDA:0,_ZNSt23_Sp_counted_ptr_inplaceISt5mutexSaIvELN9__gnu_cxx12_Lock_policyE2EE10_M_destroyEv
FN:618,_ZNSt23_Sp_counted_ptr_inplaceINSt13__future_base13_State_baseV2ESaIvELN9__gnu_cxx12_Lock_policyE2EE10_M_destroyEv
FNDA:0,_ZNSt23_Sp_counted_ptr_inplaceINSt13__future_base13_State_baseV2ESaIvELN9__gnu_cxx12_Lock_policyE2EE10_M_destroyEv
FNF:13
FNH:1
DA:143,0
DA:144,0
DA:172,0
DA:175,0
DA:187,0
DA:191,0
DA:193,0
DA:198,0
DA:199,0
DA:317,25
DA:334,25
DA:337,25
DA:343,25
DA:346,25
DA:347,25
DA:348,25
DA:350,0
DA:351,0
DA:353,0
DA:354,0
DA:455,0
DA:608,0
DA:608,0
DA:608,0
DA:608,0
DA:608,0
DA:611,0
DA:614,0
DA:611,0
DA:614,0
DA:618,0
DA:623,0
DA:618,0
DA:623,0
DA:1070,25
DA:1071,25
DA:1666,26
LF:37
LH:10
end_of_record
SF:/home/runner/work/beaver/beaver/moose/framework/build/header_symlinks/MooseApp.h
DA:135,25
LF:1
LH:1
end_of_record
SF:/usr/share/miniconda3/envs/moose/x86_64-conda-linux-gnu/include/c++/12.3.0/bits/stl_construct.h
DA:151,0
LF:1
LH:0
end_of_record
SF:/usr/share/miniconda3/envs/moose/x86_64-conda-linux-gnu/include/c++/12.3.0/bits/allocated_ptr.h
FN:71,_ZNSt15__allocated_ptrISaISt23_Sp_counted_ptr_inplaceINSt13__future_base13_State_baseV2ESaIvELN9__gnu_cxx12_Lock_policyE2EEEED2Ev
FNDA:0,_ZNSt15__allocated_ptrISaISt23_Sp_counted_ptr_inplaceINSt13__future_base13_State_baseV2ESaIvELN9__gnu_cxx12_Lock_policyE2EEEED2Ev
FN:71,_ZNSt15__allocated_ptrISaISt23_Sp_counted_ptr_inplaceISt5mutexSaIvELN9__gnu_cxx12_Lock_policyE2EEEED2Ev
FNDA:0,_ZNSt15__allocated_ptrISaISt23_Sp_counted_ptr_inplaceISt5mutexSaIvELN9__gnu_cxx12_Lock_policyE2EEEED2Ev
FNF:2
FNH:0
DA:53,0
DA:54,0
DA:71,0
DA:73,0
DA:75,0
DA:71,0
DA:73,0
DA:75,0
LF:8
LH:0
end_of_record
SF:/usr/share/miniconda3/envs/moose/x86_64-conda-linux-gnu/include/c++/12.3.0/bits/stl_set.h
FN:281,_ZNSt3setIsSt4lessIsESaIsEED2Ev
FNDA:26,_ZNSt3setIsSt4lessIsESaIsEED2Ev
FN:281,_ZNSt3setItSt4lessItESaItEED2Ev
FNDA:26,_ZNSt3setItSt4lessItESaItEED2Ev
FNF:2
FNH:2
DA:281,26
DA:281,26
LF:2
LH:2
end_of_record
SF:/home/runner/work/beaver/beaver/moose/framework/build/header_symlinks/MooseUtils.h
FN:330,_ZN10MooseUtils13prettyCppTypeI13BeaverTestAppEENSt7__cxx1112basic_stringIcSt11char_traitsIcESaIcEEEPKT_
FNDA:26,_ZN10MooseUtils13prettyCppTypeI13BeaverTestAppEENSt7__cxx1112basic_stringIcSt11char_traitsIcESaIcEEEPKT_
FNF:1
FNH:1
DA:330,26
DA:332,52
LF:2
LH:2
end_of_record
SF:/home/runner/work/beaver/beaver/moose/framework/build/header_symlinks/MooseInit.h
FN:27,_ZN9MooseInitD0Ev
FNDA:0,_ZN9MooseInitD0Ev
FN:27,_ZN9MooseInitD2Ev
FNDA:0,_ZN9MooseInitD2Ev
FNF:2
FNH:0
DA:27,0
DA:27,0
DA:27,25
LF:3
LH:1
end_of_record
SF:/usr/share/miniconda3/envs/moose/x86_64-conda-linux-gnu/include/c++/12.3.0/bits/shared_ptr.h
DA:175,25
LF:1
LH:1
end_of_record
SF:/usr/share/miniconda3/envs/moose/x86_64-conda-linux-gnu/include/c++/12.3.0/bits/new_allocator.h
FN:112,_ZNSt15__new_allocatorISt13_Rb_tree_nodeISt4pairIKNSt7__cxx1112basic_stringIcSt11char_traitsIcESaIcEEESt10unique_ptrIN7libMesh10Parameters5ValueESt14default_deleteISC_EEEEE8allocateEmPKv
FNDA:0,_ZNSt15__new_allocatorISt13_Rb_tree_nodeISt4pairIKNSt7__cxx1112basic_stringIcSt11char_traitsIcESaIcEEESt10unique_ptrIN7libMesh10Parameters5ValueESt14default_deleteISC_EEEEE8allocateEmPKv
FNF:1
FNH:0
DA:112,0
DA:120,0
DA:124,0
DA:125,0
DA:126,0
DA:137,0
DA:158,0
LF:7
LH:0
end_of_record
SF:/usr/share/miniconda3/envs/moose/libmesh/include/libmesh/parameters.h
FN:85,_ZN7libMesh10ParametersD0Ev
FNDA:0,_ZN7libMesh10ParametersD0Ev
FN:85,_ZN7libMesh10ParametersD2Ev
FNDA:0,_ZN7libMesh10ParametersD2Ev
FN:138,_ZN7libMesh10Parameters14set_attributesERKNSt7__cxx1112basic_stringIcSt11char_traitsIcESaIcEEEb
FNDA:572,_ZN7libMesh10Parameters14set_attributesERKNSt7__cxx1112basic_stringIcSt11char_traitsIcESaIcEEEb
FN:324,_ZN7libMesh10Parameters5clearEv
FNDA:0,_ZN7libMesh10Parameters5clearEv
FN:332,_ZN7libMesh10ParametersaSERKS0_
FNDA:0,_ZN7libMesh10ParametersaSERKS0_
FN:341,_ZN7libMesh10ParameterspLERKS0_
FNDA:0,_ZN7libMesh10ParameterspLERKS0_
FNF:6
FNH:1
DA:85,0
DA:85,0
DA:138,572
DA:324,0
DA:327,0
DA:332,0
DA:335,0
DA:337,0
DA:341,0
DA:344,0
DA:345,0
DA:347,0
LF:12
LH:1
end_of_record
SF:/usr/share/miniconda3/envs/moose/x86_64-conda-linux-gnu/include/c++/12.3.0/iostream
LF:0
LH:0
end_of_record
SF:/usr/share/miniconda3/envs/moose/x86_64-conda-linux-gnu/include/c++/12.3.0/ext/atomicity.h
DA:66,0
DA:84,0
DA:85,0
DA:98,0
DA:99,0
DA:101,0
LF:6
LH:0
end_of_record
SF:/home/runner/work/beaver/beaver/moose/framework/contrib/hit/include/hit/parse.h
LF:0
LH:0
end_of_record
SF:/usr/share/miniconda3/envs/moose/x86_64-conda-linux-gnu/include/c++/12.3.0/bits/stl_pair.h
DA:185,0
DA:816,0
LF:2
LH:0
end_of_record
SF:/usr/share/miniconda3/envs/moose/x86_64-conda-linux-gnu/include/c++/12.3.0/bits/char_traits.h
DA:358,52
DA:399,52
LF:2
LH:2
end_of_record
SF:/usr/share/miniconda3/envs/moose/x86_64-conda-linux-gnu/include/c++/12.3.0/bits/basic_string.tcc
FN:217,_ZNSt7__cxx1112basic_stringIcSt11char_traitsIcESaIcEE12_M_constructIPcEEvT_S7_St20forward_iterator_tag
FNDA:0,_ZNSt7__cxx1112basic_stringIcSt11char_traitsIcESaIcEE12_M_constructIPcEEvT_S7_St20forward_iterator_tag
FN:217,_ZNSt7__cxx1112basic_stringIcSt11char_traitsIcESaIcEE12_M_constructIPKcEEvT_S8_St20forward_iterator_tag
FNDA:52,_ZNSt7__cxx1112basic_stringIcSt11char_traitsIcESaIcEE12_M_constructIPKcEEvT_S8_St20forward_iterator_tag
FNF:2
FNH:1
DA:217,0
DA:221,0
DA:223,0
DA:225,0
DA:226,0
DA:247,0
DA:248,0
DA:217,52
DA:221,52
DA:223,52
DA:225,0
DA:226,0
DA:247,52
DA:248,52
LF:14
LH:5
end_of_record
SF:/usr/share/miniconda3/envs/moose/x86_64-conda-linux-gnu/include/c++/12.3.0/future
FN:342,_ZNSt13__future_base13_State_baseV2D0Ev
FNDA:0,_ZNSt13__future_base13_State_baseV2D0Ev
FN:342,_ZNSt13__future_base13_State_baseV2D2Ev
FNDA:0,_ZNSt13__future_base13_State_baseV2D2Ev
FN:596,_ZNSt13__future_base13_State_baseV217_M_complete_asyncEv
FNDA:0,_ZNSt13__future_base13_State_baseV217_M_complete_asyncEv
FN:599,_ZNKSt13__future_base13_State_baseV221_M_is_deferred_futureEv
FNDA:0,_ZNKSt13__future_base13_State_baseV221_M_is_deferred_futureEv
FN:670,_ZNSt13__future_base7_ResultIvE10_M_destroyEv
FNDA:0,_ZNSt13__future_base7_ResultIvE10_M_destroyEv
FNF:5
FNH:0
DA:227,0
DA:342,0
DA:342,0
DA:596,0
DA:599,0
DA:670,0
LF:6
LH:0
end_of_record
SF:/usr/share/miniconda3/envs/moose/x86_64-conda-linux-gnu/include/c++/12.3.0/bits/unique_ptr.h
FN:181,_ZNSt15__uniq_ptr_implIN7libMesh10Parameters5ValueESt14default_deleteIS2_EEaSEOS5_
FNDA:0,_ZNSt15__uniq_ptr_implIN7libMesh10Parameters5ValueESt14default_deleteIS2_EEaSEOS5_
FN:390,_ZNSt10unique_ptrINSt13__future_base12_Result_baseENS1_8_DeleterEED2Ev
FNDA:0,_ZNSt10unique_ptrINSt13__future_base12_Result_baseENS1_8_DeleterEED2Ev
FN:390,_ZNSt10unique_ptrIN7libMesh10Parameters5ValueESt14default_deleteIS2_EED2Ev
FNDA:0,_ZNSt10unique_ptrIN7libMesh10Parameters5ValueESt14default_deleteIS2_EED2Ev
FNF:3
FNH:0
DA:95,0
DA:96,0
DA:181,0
DA:185,0
DA:191,0
DA:200,0
DA:201,0
DA:202,0
DA:209,0
DA:210,0
DA:235,0
DA:390,0
DA:395,0
DA:398,0
DA:390,0
DA:395,0
DA:398,0
LF:17
LH:0
end_of_record
SF:/usr/share/miniconda3/envs/moose/x86_64-conda-linux-gnu/include/c++/12.3.0/bits/stl_tree.h
FN:592,_ZNSt8_Rb_treeINSt7__cxx1112basic_stringIcSt11char_traitsIcESaIcEEESt4pairIKS5_St10unique_ptrIN7libMesh10Parameters5ValueESt14default_deleteISB_EEESt10_Select1stISF_ESt4lessIvESaISF_EE17_M_construct_nodeIJRKSt21piecewise_construct_tSt5tupleIJRS7_EESQ_IJEEEEEvPSt13_Rb_tree_nodeISF_EDpOT_
FNDA:0,_ZNSt8_Rb_treeINSt7__cxx1112basic_stringIcSt11char_traitsIcESaIcEEESt4pairIKS5_St10unique_ptrIN7libMesh10Parameters5ValueESt14default_deleteISB_EEESt10_Select1stISF_ESt4lessIvESaISF_EE17_M_construct_nodeIJRKSt21piecewise_construct_tSt5tupleIJRS7_EESQ_IJEEEEEvPSt13_Rb_tree_nodeISF_EDpOT_
FN:611,_ZNSt8_Rb_treeINSt7__cxx1112basic_stringIcSt11char_traitsIcESaIcEEESt4pairIKS5_St10unique_ptrIN7libMesh10Parameters5ValueESt14default_deleteISB_EEESt10_Select1stISF_ESt4lessIvESaISF_EE14_M_create_nodeIJRKSt21piecewise_construct_tSt5tupleIJRS7_EESQ_IJEEEEEPSt13_Rb_tree_nodeISF_EDpOT_
FNDA:0,_ZNSt8_Rb_treeINSt7__cxx1112basic_stringIcSt11char_traitsIcESaIcEEESt4pairIKS5_St10unique_ptrIN7libMesh10Parameters5ValueESt14default_deleteISB_EEESt10_Select1stISF_ESt4lessIvESaISF_EE14_M_create_nodeIJRKSt21piecewise_construct_tSt5tupleIJRS7_EESQ_IJEEEEEPSt13_Rb_tree_nodeISF_EDpOT_
FN:631,_ZNSt8_Rb_treeINSt7__cxx1112basic_stringIcSt11char_traitsIcESaIcEEESt4pairIKS5_St10unique_ptrIN7libMesh10Parameters5ValueESt14default_deleteISB_EEESt10_Select1stISF_ESt4lessIvESaISF_EE12_M_drop_nodeEPSt13_Rb_tree_nodeISF_E
FNDA:0,_ZNSt8_Rb_treeINSt7__cxx1112basic_stringIcSt11char_traitsIcESaIcEEESt4pairIKS5_St10unique_ptrIN7libMesh10Parameters5ValueESt14default_deleteISB_EEESt10_Select1stISF_ESt4lessIvESaISF_EE12_M_drop_nodeEPSt13_Rb_tree_nodeISF_E
FN:1254,_ZNSt8_Rb_treeINSt7__cxx1112basic_stringIcSt11char_traitsIcESaIcEEESt4pairIKS5_St10unique_ptrIN7libMesh10Parameters5ValueESt14default_deleteISB_EEESt10_Select1stISF_ESt4lessIvESaISF_EE5clearEv
FNDA:0,_ZNSt8_Rb_treeINSt7__cxx1112basic_stringIcSt11char_traitsIcESaIcEEESt4pairIKS5_St10unique_ptrIN7libMesh10Parameters5ValueESt14default_deleteISB_EEESt10_Select1stISF_ESt4lessIvESaISF_EE5clearEv
FN:1641,_ZNSt8_Rb_treeINSt7__cxx1112basic_stringIcSt11char_traitsIcESaIcEEESt4pairIKS5_St10unique_ptrIN7libMesh10Parameters5ValueESt14default_deleteISB_EEESt10_Select1stISF_ESt4lessIvESaISF_EE10_Auto_nodeD2Ev
FNDA:0,_ZNSt8_Rb_treeINSt7__cxx1112basic_stringIcSt11char_traitsIcESaIcEEESt4pairIKS5_St10unique_ptrIN7libMesh10Parameters5ValueESt14default_deleteISB_EEESt10_Select1stISF_ESt4lessIvESaISF_EE10_Auto_nodeD2Ev
FN:1656,_ZNSt8_Rb_treeINSt7__cxx1112basic_stringIcSt11char_traitsIcESaIcEEESt4pairIKS5_St10unique_ptrIN7libMesh10Parameters5ValueESt14default_deleteISB_EEESt10_Select1stISF_ESt4lessIvESaISF_EE10_Auto_node9_M_insertES6_IPSt18_Rb_tree_node_baseSO_E
FNDA:0,_ZNSt8_Rb_treeINSt7__cxx1112basic_stringIcSt11char_traitsIcESaIcEEESt4pairIKS5_St10unique_ptrIN7libMesh10Parameters5ValueESt14default_deleteISB_EEESt10_Select1stISF_ESt4lessIvESaISF_EE10_Auto_node9_M_insertES6_IPSt18_Rb_tree_node_baseSO_E
FN:1931,_ZNSt8_Rb_treeIssSt9_IdentityIsESt4lessIsESaIsEE8_M_eraseEPSt13_Rb_tree_nodeIsE
FNDA:26,_ZNSt8_Rb_treeIssSt9_IdentityIsESt4lessIsESaIsEE8_M_eraseEPSt13_Rb_tree_nodeIsE
FN:1931,_ZNSt8_Rb_treeIttSt9_IdentityItESt4lessItESaItEE8_M_eraseEPSt13_Rb_tree_nodeItE
FNDA:26,_ZNSt8_Rb_treeIttSt9_IdentityItESt4lessItESaItEE8_M_eraseEPSt13_Rb_tree_nodeItE
FN:1931,_ZNSt8_Rb_treeINSt7__cxx1112basic_stringIcSt11char_traitsIcESaIcEEESt4pairIKS5_St10unique_ptrIN7libMesh10Parameters5ValueESt14default_deleteISB_EEESt10_Select1stISF_ESt4lessIvESaISF_EE8_M_eraseEPSt13_Rb_tree_nodeISF_E
FNDA:0,_ZNSt8_Rb_treeINSt7__cxx1112basic_stringIcSt11char_traitsIcESaIcEEESt4pairIKS5_St10unique_ptrIN7libMesh10Parameters5ValueESt14default_deleteISB_EEESt10_Select1stISF_ESt4lessIvESaISF_EE8_M_eraseEPSt13_Rb_tree_nodeISF_E
FN:1948,_ZNSt8_Rb_treeINSt7__cxx1112basic_stringIcSt11char_traitsIcESaIcEEESt4pairIKS5_St10unique_ptrIN7libMesh10Parameters5ValueESt14default_deleteISB_EEESt10_Select1stISF_ESt4lessIvESaISF_EE14_M_lower_boundEPSt13_Rb_tree_nodeISF_EPSt18_Rb_tree_node_baseRS7_
FNDA:0,_ZNSt8_Rb_treeINSt7__cxx1112basic_stringIcSt11char_traitsIcESaIcEEESt4pairIKS5_St10unique_ptrIN7libMesh10Parameters5ValueESt14default_deleteISB_EEESt10_Select1stISF_ESt4lessIvESaISF_EE14_M_lower_boundEPSt13_Rb_tree_nodeISF_EPSt18_Rb_tree_node_baseRS7_
FN:2109,_ZNSt8_Rb_treeINSt7__cxx1112basic_stringIcSt11char_traitsIcESaIcEEESt4pairIKS5_St10unique_ptrIN7libMesh10Parameters5ValueESt14default_deleteISB_EEESt10_Select1stISF_ESt4lessIvESaISF_EE24_M_get_insert_unique_posERS7_
FNDA:689044,_ZNSt8_Rb_treeINSt7__cxx1112basic_stringIcSt11char_traitsIcESaIcEEESt4pairIKS5_St10unique_ptrIN7libMesh10Parameters5ValueESt14default_deleteISB_EEESt10_Select1stISF_ESt4lessIvESaISF_EE24_M_get_insert_unique_posERS7_
FN:2211,_ZNSt8_Rb_treeINSt7__cxx1112basic_stringIcSt11char_traitsIcESaIcEEESt4pairIKS5_St10unique_ptrIN7libMesh10Parameters5ValueESt14default_deleteISB_EEESt10_Select1stISF_ESt4lessIvESaISF_EE29_M_get_insert_hint_unique_posESt23_Rb_tree_const_iteratorISF_ERS7_
FNDA:6463011,_ZNSt8_Rb_treeINSt7__cxx1112basic_stringIcSt11char_traitsIcESaIcEEESt4pairIKS5_St10unique_ptrIN7libMesh10Parameters5ValueESt14default_deleteISB_EEESt10_Select1stISF_ESt4lessIvESaISF_EE29_M_get_insert_hint_unique_posESt23_Rb_tree_const_iteratorISF_ERS7_
FN:2378,_ZNSt8_Rb_treeINSt7__cxx1112basic_stringIcSt11char_traitsIcESaIcEEESt4pairIKS5_St10unique_ptrIN7libMesh10Parameters5ValueESt14default_deleteISB_EEESt10_Select1stISF_ESt4lessIvESaISF_EE14_M_insert_nodeEPSt18_Rb_tree_node_baseSN_PSt13_Rb_tree_nodeISF_E
FNDA:0,_ZNSt8_Rb_treeINSt7__cxx1112basic_stringIcSt11char_traitsIcESaIcEEESt4pairIKS5_St10unique_ptrIN7libMesh10Parameters5ValueESt14default_deleteISB_EEESt10_Select1stISF_ESt4lessIvESaISF_EE14_M_insert_nodeEPSt18_Rb_tree_node_baseSN_PSt13_Rb_tree_nodeISF_E
FN:2459,_ZNSt8_Rb_treeINSt7__cxx1112basic_stringIcSt11char_traitsIcESaIcEEESt4pairIKS5_St10unique_ptrIN7libMesh10Parameters5ValueESt14default_deleteISB_EEESt10_Select1stISF_ESt4lessIvESaISF_EE22_M_emplace_hint_uniqueIJRKSt21piecewise_construct_tSt5tupleIJRS7_EESQ_IJEEEEESt17_Rb_tree_iteratorISF_ESt23_Rb_tree_const_iteratorISF_EDpOT_
FNDA:0,_ZNSt8_Rb_treeINSt7__cxx1112basic_stringIcSt11char_traitsIcESaIcEEESt4pairIKS5_St10unique_ptrIN7libMesh10Parameters5ValueESt14default_deleteISB_EEESt10_Select1stISF_ESt4lessIvESaISF_EE22_M_emplace_hint_uniqueIJRKSt21piecewise_construct_tSt5tupleIJRS7_EESQ_IJEEEEESt17_Rb_tree_iteratorISF_ESt23_Rb_tree_const_iteratorISF_EDpOT_
FNF:14
FNH:4
DA:208,0
DA:209,0
DA:210,0
DA:211,0
DA:287,0
DA:302,3724471
DA:303,0
DA:350,0
DA:351,0
DA:355,6463011
DA:368,0
DA:369,0
DA:550,0
DA:592,0
DA:601,0
DA:603,0
DA:605,0
DA:607,0
DA:611,0
DA:614,0
DA:615,0
DA:626,0
DA:631,0
DA:635,0
DA:737,689096
DA:752,7152055
DA:782,0
DA:790,0
DA:986,52
DA:998,689044
DA:1002,0
DA:1006,0
DA:1010,0
DA:1034,1605046
DA:1254,0
DA:1256,0
DA:1258,0
DA:1272,0
DA:1636,0
DA:1637,0
DA:1638,0
DA:1641,0
DA:1643,0
DA:1644,0
DA:1645,0
DA:1656,0
DA:1658,0
DA:1659,0
DA:1660,0
DA:1931,26
DA:1935,26
DA:1937,0
DA:1942,26
DA:1931,26
DA:1935,26
DA:1937,0
DA:1942,26
DA:1931,0
DA:1935,0
DA:1937,0
DA:1939,0
DA:1942,0
DA:1948,0
DA:1952,0
DA:1953,0
DA:1957,0
DA:2109,689044
DA:2116,689044
DA:2120,0
DA:2123,689044
DA:2125,689044
DA:2126,689044
DA:2130,0
DA:2131,0
DA:2132,0
DA:2211,6463011
DA:2219,6463011
DA:2222,1605046
DA:2223,916002
DA:2225,689044
DA:2227,4857965
DA:2231,4857965
DA:2232,1133494
DA:2233,3724471
DA:2235,3724471
DA:2236,2328458
DA:2238,1396013
DA:2241,0
DA:2243,0
DA:2247,0
DA:2248,0
DA:2249,0
DA:2251,0
DA:2252,0
DA:2254,0
DA:2257,0
DA:2261,0
DA:2378,0
DA:2382,0
DA:2383,0
DA:2386,0
DA:2387,0
DA:2388,0
DA:2389,0
DA:2459,0
DA:2464,0
DA:2465,0
DA:2466,0
DA:2467,0
DA:2468,0
LF:110
LH:30
end_of_record
SF:/usr/share/miniconda3/envs/moose/x86_64-conda-linux-gnu/include/c++/12.3.0/bits/stl_map.h
FN:502,_ZNSt3mapINSt7__cxx1112basic_stringIcSt11char_traitsIcESaIcEEESt10unique_ptrIN7libMesh10Parameters5ValueESt14default_deleteIS9_EESt4lessIvESaISt4pairIKS5_SC_EEEixERSG_
FNDA:0,_ZNSt3mapINSt7__cxx1112basic_stringIcSt11char_traitsIcESaIcEEESt10unique_ptrIN7libMesh10Parameters5ValueESt14default_deleteIS9_EESt4lessIvESaISt4pairIKS5_SC_EEEixERSG_
FN:1306,_ZNSt3mapINSt7__cxx1112basic_stringIcSt11char_traitsIcESaIcEEESt10unique_ptrIN7libMesh10Parameters5ValueESt14default_deleteIS9_EESt4lessIvESaISt4pairIKS5_SC_EEE11lower_boundERSG_
FNDA:0,_ZNSt3mapINSt7__cxx1112basic_stringIcSt11char_traitsIcESaIcEEESt10unique_ptrIN7libMesh10Parameters5ValueESt14default_deleteIS9_EESt4lessIvESaISt4pairIKS5_SC_EEE11lower_boundERSG_
FNF:2
FNH:0
DA:312,0
DA:502,0
DA:507,0
DA:509,0
DA:511,0
DA:512,0
DA:513,0
DA:517,0
DA:1182,0
DA:1306,0
DA:1307,0
LF:11
LH:0
end_of_record
SF:/usr/share/miniconda3/envs/moose/x86_64-conda-linux-gnu/include/c++/12.3.0/bits/basic_string.h
FN:642,_ZNSt7__cxx1112basic_stringIcSt11char_traitsIcESaIcEEC2IS3_EEPKcRKS3_
FNDA:52,_ZNSt7__cxx1112basic_stringIcSt11char_traitsIcESaIcEEC2IS3_EEPKcRKS3_
FNF:1
FNH:1
DA:199,52
DA:200,52
DA:224,0
DA:229,52
DA:234,104
DA:241,52
DA:261,0
DA:268,52
DA:479,0
DA:485,52
DA:642,52
DA:646,52
DA:647,0
DA:649,52
DA:650,52
DA:651,52
DA:803,51
DA:3702,9498438
LF:18
LH:14
end_of_record
SF:/usr/share/miniconda3/envs/moose/x86_64-conda-linux-gnu/include/c++/12.3.0/typeinfo
DA:104,26
LF:1
LH:1
end_of_record
SF:/usr/share/miniconda3/envs/moose/x86_64-conda-linux-gnu/include/c++/12.3.0/bits/alloc_traits.h
DA:464,0
DA:496,0
LF:2
LH:0
end_of_record
SF:/home/runner/work/beaver/beaver/moose/framework/build/header_symlinks/MooseError.h
LF:0
LH:0
end_of_record
SF:/home/runner/work/beaver/beaver/src/main.C
FN:18,main
FNDA:26,main
FNF:1
FNH:1
DA:18,26
DA:20,26
LF:2
LH:2
end_of_record
TN:
SF:/home/runner/work/beaver/beaver/moose/framework/build/header_symlinks/VectorPostprocessorInterface.h
FN:311,_ZNK28VectorPostprocessorInterface38addVectorPostprocessorDependencyHelperERK23VectorPostprocessorName
FNDA:0,_ZNK28VectorPostprocessorInterface38addVectorPostprocessorDependencyHelperERK23VectorPostprocessorName
FNF:1
FNH:0
DA:311,0
DA:313,0
LF:2
LH:0
end_of_record
SF:/usr/share/miniconda3/envs/moose/x86_64-conda-linux-gnu/include/c++/12.3.0/bits/stl_function.h
FN:607,_ZNSt4lessIvE6_S_cmpIRKNSt7__cxx1112basic_stringIcSt11char_traitsIcESaIcEEERKSt17basic_string_viewIcS5_EEEDcOT_OT0_St17integral_constantIbLb0EE
FNDA:0,_ZNSt4lessIvE6_S_cmpIRKNSt7__cxx1112basic_stringIcSt11char_traitsIcESaIcEEERKSt17basic_string_viewIcS5_EEEDcOT_OT0_St17integral_constantIbLb0EE
FN:607,_ZNSt4lessIvE6_S_cmpIRKSt17basic_string_viewIcSt11char_traitsIcEERKNSt7__cxx1112basic_stringIcS4_SaIcEEEEEDcOT_OT0_St17integral_constantIbLb0EE
FNDA:0,_ZNSt4lessIvE6_S_cmpIRKSt17basic_string_viewIcSt11char_traitsIcEERKNSt7__cxx1112basic_stringIcS4_SaIcEEEEEDcOT_OT0_St17integral_constantIbLb0EE
FNF:2
FNH:0
DA:378,0
DA:408,0
DA:593,0
DA:607,0
DA:608,0
DA:607,0
DA:608,0
DA:1183,0
LF:8
LH:0
end_of_record
SF:/usr/share/miniconda3/envs/moose/x86_64-conda-linux-gnu/include/c++/12.3.0/tuple
FN:1476,_ZNSt15__tuple_compareISt5tupleIJPK8FaceInfoN5Moose2FV11LimiterTypeEbbPKN7libMesh4ElemEEESB_Lm2ELm5EE6__lessERKSB_SE_
FNDA:0,_ZNSt15__tuple_compareISt5tupleIJPK8FaceInfoN5Moose2FV11LimiterTypeEbbPKN7libMesh4ElemEEESB_Lm2ELm5EE6__lessERKSB_SE_
FN:1476,_ZNSt15__tuple_compareISt5tupleIJPK8FaceInfoN5Moose2FV11LimiterTypeEbbPKN7libMesh4ElemEEESB_Lm1ELm5EE6__lessERKSB_SE_
FNDA:0,_ZNSt15__tuple_compareISt5tupleIJPK8FaceInfoN5Moose2FV11LimiterTypeEbbPKN7libMesh4ElemEEESB_Lm1ELm5EE6__lessERKSB_SE_
FN:1476,_ZNSt15__tuple_compareISt5tupleIJPK8FaceInfoN5Moose2FV11LimiterTypeEbbPKN7libMesh4ElemEEESB_Lm0ELm5EE6__lessERKSB_SE_
FNDA:0,_ZNSt15__tuple_compareISt5tupleIJPK8FaceInfoN5Moose2FV11LimiterTypeEbbPKN7libMesh4ElemEEESB_Lm0ELm5EE6__lessERKSB_SE_
FN:1814,_ZNSt4pairIKNSt7__cxx1112basic_stringIcSt11char_traitsIcESaIcEEEN15InputParameters8MetadataEEC2IJRS6_EJLm0EEJEJEEERSt5tupleIJDpT_EERSC_IJDpT1_EESt12_Index_tupleIJXspT0_EEESL_IJXspT2_EEE
FNDA:0,_ZNSt4pairIKNSt7__cxx1112basic_stringIcSt11char_traitsIcESaIcEEEN15InputParameters8MetadataEEC2IJRS6_EJLm0EEJEJEEERSt5tupleIJDpT_EERSC_IJDpT1_EESt12_Index_tupleIJXspT0_EEESL_IJXspT2_EEE
FNF:4
FNH:0
DA:124,0
DA:187,0
DA:189,0
DA:190,0
DA:192,0
DA:193,0
DA:199,0
DA:200,51
DA:233,0
DA:301,0
DA:454,0
DA:456,0
DA:609,0
DA:1476,0
DA:1478,0
DA:1479,0
DA:1480,0
DA:1476,0
DA:1478,0
DA:1479,0
DA:1480,0
DA:1476,0
DA:1478,0
DA:1479,0
DA:1480,0
DA:1479,0
DA:1546,0
DA:1802,0
DA:1807,0
DA:1814,0
DA:1817,0
DA:1818,0
DA:1819,0
LF:33
LH:1
end_of_record
SF:/usr/share/miniconda3/envs/moose/libmesh/include/libmesh/type_vector.h
FN:131,_ZN7libMesh10TypeVectorIN11MetaPhysicL10DualNumberIdNS1_28SemiDynamicSparseNumberArrayIdmNS1_8NWrapperILm64EEEEELb1EEEEC2ERKS8_
FNDA:11077928,_ZN7libMesh10TypeVectorIN11MetaPhysicL10DualNumberIdNS1_28SemiDynamicSparseNumberArrayIdmNS1_8NWrapperILm64EEEEELb1EEEEC2ERKS8_
FN:427,_ZN7libMesh10TypeVectorIN11MetaPhysicL10DualNumberIdNS1_28SemiDynamicSparseNumberArrayIdmNS1_8NWrapperILm64EEEEELb1EEEEC2Ev
FNDA:10675464,_ZN7libMesh10TypeVectorIN11MetaPhysicL10DualNumberIdNS1_28SemiDynamicSparseNumberArrayIdmNS1_8NWrapperILm64EEEEELb1EEEEC2Ev
FN:444,_ZN7libMesh10TypeVectorIN11MetaPhysicL10DualNumberIdNS1_28SemiDynamicSparseNumberArrayIdmNS1_8NWrapperILm64EEEEELb1EEEEC2ERKS7_SA_SA_
FNDA:0,_ZN7libMesh10TypeVectorIN11MetaPhysicL10DualNumberIdNS1_28SemiDynamicSparseNumberArrayIdmNS1_8NWrapperILm64EEEEELb1EEEEC2ERKS7_SA_SA_
FN:739,_ZNK7libMesh10TypeVectorIN11MetaPhysicL10DualNumberIdNS1_28SemiDynamicSparseNumberArrayIdmNS1_8NWrapperILm64EEEEELb1EEEEmlIS7_EENS_9boostcopy11enable_if_cIXsrNS_12ScalarTraitsIT_EE5valueENS0_INS_12CompareTypesIS7_SD_E9supertypeEEEE4typeERKSD_
FNDA:0,_ZNK7libMesh10TypeVectorIN11MetaPhysicL10DualNumberIdNS1_28SemiDynamicSparseNumberArrayIdmNS1_8NWrapperILm64EEEEELb1EEEEmlIS7_EENS_9boostcopy11enable_if_cIXsrNS_12ScalarTraitsIT_EE5valueENS0_INS_12CompareTypesIS7_SD_E9supertypeEEEE4typeERKSD_
FN:850,_ZNK7libMesh10TypeVectorIN11MetaPhysicL10DualNumberIdNS1_28SemiDynamicSparseNumberArrayIdmNS1_8NWrapperILm64EEEEELb1EEEEmlIS7_EENS_12CompareTypesIS7_T_E9supertypeERKNS0_ISB_EE
FNDA:10675464,_ZNK7libMesh10TypeVectorIN11MetaPhysicL10DualNumberIdNS1_28SemiDynamicSparseNumberArrayIdmNS1_8NWrapperILm64EEEEELb1EEEEmlIS7_EENS_12CompareTypesIS7_T_E9supertypeERKNS0_ISB_EE
FNF:5
FNH:3
DA:131,44311712
DA:136,10675464
DA:427,42701856
DA:429,10675464
DA:432,10675464
DA:436,10675464
DA:438,10675464
DA:444,0
DA:446,0
DA:448,0
DA:451,0
DA:458,0
DA:463,0
DA:546,32026392
DA:557,2083072
DA:739,0
DA:753,0
DA:754,0
DA:755,0
DA:769,402464
DA:850,10675464
DA:862,10675464
DA:863,10675464
DA:864,10675464
LF:24
LH:14
end_of_record
SF:/usr/share/miniconda3/envs/moose/x86_64-conda-linux-gnu/include/c++/12.3.0/bits/unordered_set.h
DA:426,0
LF:1
LH:0
end_of_record
SF:/usr/share/miniconda3/envs/moose/x86_64-conda-linux-gnu/include/c++/12.3.0/bits/stl_iterator_base_funcs.h
DA:105,2897
LF:1
LH:1
end_of_record
SF:/usr/share/miniconda3/envs/moose/x86_64-conda-linux-gnu/include/c++/12.3.0/array
DA:61,0
DA:284,28147680
DA:289,38815600
LF:3
LH:2
end_of_record
SF:/usr/share/miniconda3/envs/moose/libmesh/include/metaphysicl/metaphysicl_exceptions.h
DA:45,0
LF:1
LH:0
end_of_record
SF:/home/runner/work/beaver/beaver/moose/framework/build/header_symlinks/MooseBaseErrorInterface.h
DA:20,0
LF:1
LH:0
end_of_record
SF:/usr/share/miniconda3/envs/moose/x86_64-conda-linux-gnu/include/c++/12.3.0/bits/shared_ptr_base.h
FN:143,_ZNSt16_Sp_counted_baseILN9__gnu_cxx12_Lock_policyE2EE10_M_destroyEv
FNDA:0,_ZNSt16_Sp_counted_baseILN9__gnu_cxx12_Lock_policyE2EE10_M_destroyEv
FN:151,_ZNSt16_Sp_counted_baseILN9__gnu_cxx12_Lock_policyE2EE15_M_add_ref_copyEv
FNDA:78,_ZNSt16_Sp_counted_baseILN9__gnu_cxx12_Lock_policyE2EE15_M_add_ref_copyEv
FN:172,_ZNSt16_Sp_counted_baseILN9__gnu_cxx12_Lock_policyE2EE19_M_release_last_useEv
FNDA:0,_ZNSt16_Sp_counted_baseILN9__gnu_cxx12_Lock_policyE2EE19_M_release_last_useEv
FN:198,_ZNSt16_Sp_counted_baseILN9__gnu_cxx12_Lock_policyE2EE24_M_release_last_use_coldEv
FNDA:0,_ZNSt16_Sp_counted_baseILN9__gnu_cxx12_Lock_policyE2EE24_M_release_last_use_coldEv
FN:208,_ZNSt16_Sp_counted_baseILN9__gnu_cxx12_Lock_policyE2EE15_M_weak_releaseEv
FNDA:0,_ZNSt16_Sp_counted_baseILN9__gnu_cxx12_Lock_policyE2EE15_M_weak_releaseEv
FN:317,_ZNSt16_Sp_counted_baseILN9__gnu_cxx12_Lock_policyE2EE10_M_releaseEv
FNDA:0,_ZNSt16_Sp_counted_baseILN9__gnu_cxx12_Lock_policyE2EE10_M_releaseEv
FN:455,_ZNSt15_Sp_counted_ptrIDnLN9__gnu_cxx12_Lock_policyE2EE10_M_disposeEv
FNDA:0,_ZNSt15_Sp_counted_ptrIDnLN9__gnu_cxx12_Lock_policyE2EE10_M_disposeEv
FN:608,_ZNSt23_Sp_counted_ptr_inplaceI13RegistryEntryI27BVSinglePhaseTimeDerivativeESaIvELN9__gnu_cxx12_Lock_policyE2EED0Ev
FNDA:0,_ZNSt23_Sp_counted_ptr_inplaceI13RegistryEntryI27BVSinglePhaseTimeDerivativeESaIvELN9__gnu_cxx12_Lock_policyE2EED0Ev
FN:608,_ZNSt23_Sp_counted_ptr_inplaceI13RegistryEntryI18BVStressDivergenceESaIvELN9__gnu_cxx12_Lock_policyE2EED2Ev
FNDA:0,_ZNSt23_Sp_counted_ptr_inplaceI13RegistryEntryI18BVStressDivergenceESaIvELN9__gnu_cxx12_Lock_policyE2EED2Ev
FN:608,_ZNSt23_Sp_counted_ptr_inplaceI13RegistryEntryI18BVStressDivergenceESaIvELN9__gnu_cxx12_Lock_policyE2EED0Ev
FNDA:0,_ZNSt23_Sp_counted_ptr_inplaceI13RegistryEntryI18BVStressDivergenceESaIvELN9__gnu_cxx12_Lock_policyE2EED0Ev
FN:608,_ZNSt23_Sp_counted_ptr_inplaceI13RegistryEntryI27BVSinglePhaseTimeDerivativeESaIvELN9__gnu_cxx12_Lock_policyE2EED2Ev
FNDA:0,_ZNSt23_Sp_counted_ptr_inplaceI13RegistryEntryI27BVSinglePhaseTimeDerivativeESaIvELN9__gnu_cxx12_Lock_policyE2EED2Ev
FN:608,_ZNSt23_Sp_counted_ptr_inplaceI13RegistryEntryI18BVSinglePhaseDarcyESaIvELN9__gnu_cxx12_Lock_policyE2EED2Ev
FNDA:0,_ZNSt23_Sp_counted_ptr_inplaceI13RegistryEntryI18BVSinglePhaseDarcyESaIvELN9__gnu_cxx12_Lock_policyE2EED2Ev
FN:608,_ZNSt23_Sp_counted_ptr_inplaceISt5mutexSaIvELN9__gnu_cxx12_Lock_policyE2EED0Ev
FNDA:0,_ZNSt23_Sp_counted_ptr_inplaceISt5mutexSaIvELN9__gnu_cxx12_Lock_policyE2EED0Ev
FN:608,_ZNSt23_Sp_counted_ptr_inplaceI13RegistryEntryI18BVSinglePhaseDarcyESaIvELN9__gnu_cxx12_Lock_policyE2EED0Ev
FNDA:0,_ZNSt23_Sp_counted_ptr_inplaceI13RegistryEntryI18BVSinglePhaseDarcyESaIvELN9__gnu_cxx12_Lock_policyE2EED0Ev
FN:608,_ZNSt23_Sp_counted_ptr_inplaceISt5mutexSaIvELN9__gnu_cxx12_Lock_policyE2EED2Ev
FNDA:0,_ZNSt23_Sp_counted_ptr_inplaceISt5mutexSaIvELN9__gnu_cxx12_Lock_policyE2EED2Ev
FN:608,_ZNSt23_Sp_counted_ptr_inplaceINSt13__future_base13_State_baseV2ESaIvELN9__gnu_cxx12_Lock_policyE2EED2Ev
FNDA:0,_ZNSt23_Sp_counted_ptr_inplaceINSt13__future_base13_State_baseV2ESaIvELN9__gnu_cxx12_Lock_policyE2EED2Ev
FN:608,_ZNSt23_Sp_counted_ptr_inplaceINSt13__future_base13_State_baseV2ESaIvELN9__gnu_cxx12_Lock_policyE2EED0Ev
FNDA:0,_ZNSt23_Sp_counted_ptr_inplaceINSt13__future_base13_State_baseV2ESaIvELN9__gnu_cxx12_Lock_policyE2EED0Ev
FN:611,_ZNSt23_Sp_counted_ptr_inplaceISt5mutexSaIvELN9__gnu_cxx12_Lock_policyE2EE10_M_disposeEv
FNDA:0,_ZNSt23_Sp_counted_ptr_inplaceISt5mutexSaIvELN9__gnu_cxx12_Lock_policyE2EE10_M_disposeEv
FN:611,_ZNSt23_Sp_counted_ptr_inplaceI13RegistryEntryI27BVSinglePhaseTimeDerivativeESaIvELN9__gnu_cxx12_Lock_policyE2EE10_M_disposeEv
FNDA:0,_ZNSt23_Sp_counted_ptr_inplaceI13RegistryEntryI27BVSinglePhaseTimeDerivativeESaIvELN9__gnu_cxx12_Lock_policyE2EE10_M_disposeEv
FN:611,_ZNSt23_Sp_counted_ptr_inplaceI13RegistryEntryI18BVSinglePhaseDarcyESaIvELN9__gnu_cxx12_Lock_policyE2EE10_M_disposeEv
FNDA:0,_ZNSt23_Sp_counted_ptr_inplaceI13RegistryEntryI18BVSinglePhaseDarcyESaIvELN9__gnu_cxx12_Lock_policyE2EE10_M_disposeEv
FN:611,_ZNSt23_Sp_counted_ptr_inplaceI13RegistryEntryI18BVStressDivergenceESaIvELN9__gnu_cxx12_Lock_policyE2EE10_M_disposeEv
FNDA:0,_ZNSt23_Sp_counted_ptr_inplaceI13RegistryEntryI18BVStressDivergenceESaIvELN9__gnu_cxx12_Lock_policyE2EE10_M_disposeEv
FN:611,_ZNSt23_Sp_counted_ptr_inplaceINSt13__future_base13_State_baseV2ESaIvELN9__gnu_cxx12_Lock_policyE2EE10_M_disposeEv
FNDA:0,_ZNSt23_Sp_counted_ptr_inplaceINSt13__future_base13_State_baseV2ESaIvELN9__gnu_cxx12_Lock_policyE2EE10_M_disposeEv
FN:618,_ZNSt23_Sp_counted_ptr_inplaceI13RegistryEntryI27BVSinglePhaseTimeDerivativeESaIvELN9__gnu_cxx12_Lock_policyE2EE10_M_destroyEv
FNDA:0,_ZNSt23_Sp_counted_ptr_inplaceI13RegistryEntryI27BVSinglePhaseTimeDerivativeESaIvELN9__gnu_cxx12_Lock_policyE2EE10_M_destroyEv
FN:618,_ZNSt23_Sp_counted_ptr_inplaceISt5mutexSaIvELN9__gnu_cxx12_Lock_policyE2EE10_M_destroyEv
FNDA:0,_ZNSt23_Sp_counted_ptr_inplaceISt5mutexSaIvELN9__gnu_cxx12_Lock_policyE2EE10_M_destroyEv
FN:618,_ZNSt23_Sp_counted_ptr_inplaceI13RegistryEntryI18BVStressDivergenceESaIvELN9__gnu_cxx12_Lock_policyE2EE10_M_destroyEv
FNDA:0,_ZNSt23_Sp_counted_ptr_inplaceI13RegistryEntryI18BVStressDivergenceESaIvELN9__gnu_cxx12_Lock_policyE2EE10_M_destroyEv
FN:618,_ZNSt23_Sp_counted_ptr_inplaceI13RegistryEntryI18BVSinglePhaseDarcyESaIvELN9__gnu_cxx12_Lock_policyE2EE10_M_destroyEv
FNDA:0,_ZNSt23_Sp_counted_ptr_inplaceI13RegistryEntryI18BVSinglePhaseDarcyESaIvELN9__gnu_cxx12_Lock_policyE2EE10_M_destroyEv
FN:618,_ZNSt23_Sp_counted_ptr_inplaceINSt13__future_base13_State_baseV2ESaIvELN9__gnu_cxx12_Lock_policyE2EE10_M_destroyEv
FNDA:0,_ZNSt23_Sp_counted_ptr_inplaceINSt13__future_base13_State_baseV2ESaIvELN9__gnu_cxx12_Lock_policyE2EE10_M_destroyEv
FN:631,_ZNSt23_Sp_counted_ptr_inplaceI13RegistryEntryI18BVSinglePhaseDarcyESaIvELN9__gnu_cxx12_Lock_policyE2EE14_M_get_deleterERKSt9type_info
FNDA:0,_ZNSt23_Sp_counted_ptr_inplaceI13RegistryEntryI18BVSinglePhaseDarcyESaIvELN9__gnu_cxx12_Lock_policyE2EE14_M_get_deleterERKSt9type_info
FN:631,_ZNSt23_Sp_counted_ptr_inplaceI13RegistryEntryI18BVStressDivergenceESaIvELN9__gnu_cxx12_Lock_policyE2EE14_M_get_deleterERKSt9type_info
FNDA:0,_ZNSt23_Sp_counted_ptr_inplaceI13RegistryEntryI18BVStressDivergenceESaIvELN9__gnu_cxx12_Lock_policyE2EE14_M_get_deleterERKSt9type_info
FN:631,_ZNSt23_Sp_counted_ptr_inplaceI13RegistryEntryI27BVSinglePhaseTimeDerivativeESaIvELN9__gnu_cxx12_Lock_policyE2EE14_M_get_deleterERKSt9type_info
FNDA:0,_ZNSt23_Sp_counted_ptr_inplaceI13RegistryEntryI27BVSinglePhaseTimeDerivativeESaIvELN9__gnu_cxx12_Lock_policyE2EE14_M_get_deleterERKSt9type_info
FN:964,_ZNSt14__shared_countILN9__gnu_cxx12_Lock_policyE2EEC2I13RegistryEntryI18BVSinglePhaseDarcyESaIvEJRK17RegistryEntryDataEEERPT_St20_Sp_alloc_shared_tagIT0_EDpOT1_
FNDA:26,_ZNSt14__shared_countILN9__gnu_cxx12_Lock_policyE2EEC2I13RegistryEntryI18BVSinglePhaseDarcyESaIvEJRK17RegistryEntryDataEEERPT_St20_Sp_alloc_shared_tagIT0_EDpOT1_
FN:964,_ZNSt14__shared_countILN9__gnu_cxx12_Lock_policyE2EEC2I13RegistryEntryI27BVSinglePhaseTimeDerivativeESaIvEJRK17RegistryEntryDataEEERPT_St20_Sp_alloc_shared_tagIT0_EDpOT1_
FNDA:26,_ZNSt14__shared_countILN9__gnu_cxx12_Lock_policyE2EEC2I13RegistryEntryI27BVSinglePhaseTimeDerivativeESaIvEJRK17RegistryEntryDataEEERPT_St20_Sp_alloc_shared_tagIT0_EDpOT1_
FN:964,_ZNSt14__shared_countILN9__gnu_cxx12_Lock_policyE2EEC2I13RegistryEntryI18BVStressDivergenceESaIvEJRK17RegistryEntryDataEEERPT_St20_Sp_alloc_shared_tagIT0_EDpOT1_
FNDA:26,_ZNSt14__shared_countILN9__gnu_cxx12_Lock_policyE2EEC2I13RegistryEntryI18BVStressDivergenceESaIvEJRK17RegistryEntryDataEEERPT_St20_Sp_alloc_shared_tagIT0_EDpOT1_
FNF:33
FNH:4
DA:129,78
DA:130,78
DA:143,0
DA:144,0
DA:151,78
DA:152,78
DA:172,0
DA:175,0
DA:187,0
DA:191,0
DA:193,0
DA:198,0
DA:199,0
DA:208,0
DA:212,0
DA:221,0
DA:223,0
DA:317,0
DA:334,0
DA:337,0
DA:343,0
DA:346,0
DA:347,0
DA:348,0
DA:350,0
DA:351,0
DA:353,0
DA:354,0
DA:455,0
DA:599,78
DA:600,78
DA:608,0
DA:608,0
DA:608,0
DA:608,0
DA:608,0
DA:608,0
DA:608,0
DA:608,0
DA:608,0
DA:608,0
DA:608,0
DA:611,0
DA:614,0
DA:611,0
DA:614,0
DA:611,0
DA:614,0
DA:611,0
DA:614,0
DA:611,0
DA:614,0
DA:618,0
DA:623,0
DA:618,0
DA:623,0
DA:618,0
DA:623,0
DA:618,0
DA:623,0
DA:618,0
DA:623,0
DA:631,0
DA:639,0
DA:641,0
DA:646,0
DA:631,0
DA:639,0
DA:641,0
DA:646,0
DA:631,0
DA:639,0
DA:641,0
DA:646,0
DA:908,78
DA:964,26
DA:974,26
DA:975,26
DA:976,26
DA:964,26
DA:974,26
DA:975,26
DA:976,26
DA:964,26
DA:974,26
DA:975,26
DA:976,26
DA:1070,156
DA:1071,78
DA:1074,78
DA:1075,78
DA:1077,78
DA:1078,78
DA:1099,78
DA:1100,78
DA:1101,78
DA:1166,0
DA:1167,0
DA:1528,78
DA:1531,78
DA:1532,0
DA:1535,78
DA:1666,78
DA:1711,78
DA:1712,78
LF:105
LH:34
end_of_record
SF:/usr/share/miniconda3/envs/moose/x86_64-conda-linux-gnu/include/c++/12.3.0/bits/unordered_map.h
DA:102,0
DA:980,0
LF:2
LH:0
end_of_record
SF:/usr/share/miniconda3/envs/moose/x86_64-conda-linux-gnu/include/c++/12.3.0/bits/stl_construct.h
FN:160,_ZNSt12_Destroy_auxILb0EE9__destroyIPSt10shared_ptrI17RegistryEntryBaseEEEvT_S6_
FNDA:0,_ZNSt12_Destroy_auxILb0EE9__destroyIPSt10shared_ptrI17RegistryEntryBaseEEEvT_S6_
FN:160,_ZNSt12_Destroy_auxILb0EE9__destroyIPSt5tupleIJNSt7__cxx1112basic_stringIcSt11char_traitsIcESaIcEEEN5Moose23RelationshipManagerTypeESt8functionIFvRK15InputParametersRSC_EEEEEEvT_SK_
FNDA:0,_ZNSt12_Destroy_auxILb0EE9__destroyIPSt5tupleIJNSt7__cxx1112basic_stringIcSt11char_traitsIcESaIcEEEN5Moose23RelationshipManagerTypeESt8functionIFvRK15InputParametersRSC_EEEEEEvT_SK_
FN:160,_ZNSt12_Destroy_auxILb0EE9__destroyIPSt10unique_ptrIN5Moose15FunctorEnvelopeIN11MetaPhysicL10DualNumberIdNS5_28SemiDynamicSparseNumberArrayIdmNS5_8NWrapperILm64EEEEELb1EEEEESt14default_deleteISC_EEEEvT_SH_
FNDA:48,_ZNSt12_Destroy_auxILb0EE9__destroyIPSt10unique_ptrIN5Moose15FunctorEnvelopeIN11MetaPhysicL10DualNumberIdNS5_28SemiDynamicSparseNumberArrayIdmNS5_8NWrapperILm64EEEEELb1EEEEESt14default_deleteISC_EEEEvT_SH_
FN:160,_ZNSt12_Destroy_auxILb0EE9__destroyIPSt10unique_ptrIN5Moose15FunctorEnvelopeIdEESt14default_deleteIS5_EEEEvT_SA_
FNDA:48,_ZNSt12_Destroy_auxILb0EE9__destroyIPSt10unique_ptrIN5Moose15FunctorEnvelopeIdEESt14default_deleteIS5_EEEEvT_SA_
FN:160,_ZNSt12_Destroy_auxILb0EE9__destroyIPSt3setIP18MooseVariableFieldIdESt4lessIS5_ESaIS5_EEEEvT_SB_
FNDA:0,_ZNSt12_Destroy_auxILb0EE9__destroyIPSt3setIP18MooseVariableFieldIdESt4lessIS5_ESaIS5_EEEEvT_SB_
FNF:5
FNH:2
DA:119,0
DA:120,0
DA:151,0
DA:160,0
DA:162,0
DA:164,0
DA:160,0
DA:162,0
DA:164,0
DA:160,48
DA:162,48
DA:164,48
DA:160,48
DA:162,48
DA:164,48
DA:160,0
DA:162,0
DA:164,0
DA:162,96
DA:196,96
LF:20
LH:8
end_of_record
SF:/usr/share/miniconda3/envs/moose/x86_64-conda-linux-gnu/include/c++/12.3.0/bits/std_function.h
FN:241,_ZNSt14_Function_baseD2Ev
FNDA:0,_ZNSt14_Function_baseD2Ev
FNF:1
FNH:0
DA:241,0
DA:243,0
DA:244,0
DA:245,0
DA:334,0
LF:5
LH:0
end_of_record
SF:/usr/share/miniconda3/envs/moose/libmesh/include/libmesh/remote_elem.h
FN:137,_ZNK7libMesh10RemoteElem7n_nodesEv
FNDA:0,_ZNK7libMesh10RemoteElem7n_nodesEv
FN:140,_ZNK7libMesh10RemoteElem7n_sidesEv
FNDA:0,_ZNK7libMesh10RemoteElem7n_sidesEv
FN:155,_ZNK7libMesh10RemoteElem9is_vertexEj
FNDA:0,_ZNK7libMesh10RemoteElem9is_vertexEj
FN:216,_ZNK7libMesh10RemoteElem13default_orderEv
FNDA:0,_ZNK7libMesh10RemoteElem13default_orderEv
FNF:4
FNH:0
DA:137,0
DA:138,0
DA:140,0
DA:141,0
DA:155,0
DA:156,0
DA:216,0
DA:217,0
LF:8
LH:0
end_of_record
SF:/usr/share/miniconda3/envs/moose/libmesh/include/Eigen/src/Core/Matrix.h
DA:178,0
LF:1
LH:0
end_of_record
SF:/home/runner/work/beaver/beaver/moose/framework/build/header_symlinks/ADKernelGrad.h
LF:0
LH:0
end_of_record
SF:/usr/share/miniconda3/envs/moose/x86_64-conda-linux-gnu/include/c++/12.3.0/ext/atomicity.h
DA:66,0
DA:71,78
DA:84,0
DA:85,0
DA:92,0
DA:98,0
DA:99,0
DA:101,0
DA:108,78
LF:9
LH:2
end_of_record
SF:/usr/share/miniconda3/envs/moose/x86_64-conda-linux-gnu/include/c++/12.3.0/bits/stl_pair.h
DA:185,0
DA:195,0
DA:196,0
DA:535,0
DA:572,0
DA:573,0
DA:584,0
DA:585,0
DA:816,0
LF:9
LH:0
end_of_record
SF:/home/runner/work/beaver/beaver/moose/framework/contrib/hit/include/hit/parse.h
LF:0
LH:0
end_of_record
SF:/home/runner/work/beaver/beaver/moose/framework/build/header_symlinks/MooseObjectName.h
FN:56,_ZN15MooseObjectNameD0Ev
FNDA:0,_ZN15MooseObjectNameD0Ev
FN:56,_ZN15MooseObjectNameD2Ev
FNDA:0,_ZN15MooseObjectNameD2Ev
FNF:2
FNH:0
DA:56,0
DA:56,0
LF:2
LH:0
end_of_record
SF:/usr/share/miniconda3/envs/moose/x86_64-conda-linux-gnu/include/c++/12.3.0/bits/hashtable_policy.h
FN:767,_ZNSt8__detail9_Map_baseImSt4pairIKmSt6vectorIS3_IS1_IbdESaIS4_EESaIS6_EEESaIS9_ENS_10_Select1stESt8equal_toImESt4hashImENS_18_Mod_range_hashingENS_20_Default_ranged_hashENS_20_Prime_rehash_policyENS_17_Hashtable_traitsILb0ELb0ELb1EEELb1EEixERS2_
FNDA:0,_ZNSt8__detail9_Map_baseImSt4pairIKmSt6vectorIS3_IS1_IbdESaIS4_EESaIS6_EEESaIS9_ENS_10_Select1stESt8equal_toImESt4hashImENS_18_Mod_range_hashingENS_20_Default_ranged_hashENS_20_Prime_rehash_policyENS_17_Hashtable_traitsILb0ELb0ELb1EEELb1EEixERS2_
FN:767,_ZNSt8__detail9_Map_baseImSt4pairIKmSt6vectorIS1_IbdESaIS4_EEESaIS7_ENS_10_Select1stESt8equal_toImESt4hashImENS_18_Mod_range_hashingENS_20_Default_ranged_hashENS_20_Prime_rehash_policyENS_17_Hashtable_traitsILb0ELb0ELb1EEELb1EEixERS2_
FNDA:0,_ZNSt8__detail9_Map_baseImSt4pairIKmSt6vectorIS1_IbdESaIS4_EEESaIS7_ENS_10_Select1stESt8equal_toImESt4hashImENS_18_Mod_range_hashingENS_20_Default_ranged_hashENS_20_Prime_rehash_policyENS_17_Hashtable_traitsILb0ELb0ELb1EEELb1EEixERS2_
FN:767,_ZNSt8__detail9_Map_baseImSt4pairIKmSt6vectorIS3_IS1_IbN11MetaPhysicL10DualNumberIdNS4_28SemiDynamicSparseNumberArrayIdmNS4_8NWrapperILm64EEEEELb1EEEESaISB_EESaISD_EEESaISG_ENS_10_Select1stESt8equal_toImESt4hashImENS_18_Mod_range_hashingENS_20_Default_ranged_hashENS_20_Prime_rehash_policyENS_17_Hashtable_traitsILb0ELb0ELb1EEELb1EEixERS2_
FNDA:0,_ZNSt8__detail9_Map_baseImSt4pairIKmSt6vectorIS3_IS1_IbN11MetaPhysicL10DualNumberIdNS4_28SemiDynamicSparseNumberArrayIdmNS4_8NWrapperILm64EEEEELb1EEEESaISB_EESaISD_EEESaISG_ENS_10_Select1stESt8equal_toImESt4hashImENS_18_Mod_range_hashingENS_20_Default_ranged_hashENS_20_Prime_rehash_policyENS_17_Hashtable_traitsILb0ELb0ELb1EEELb1EEixERS2_
FN:767,_ZNSt8__detail9_Map_baseImSt4pairIKmSt6vectorIS1_IbN11MetaPhysicL10DualNumberIdNS4_28SemiDynamicSparseNumberArrayIdmNS4_8NWrapperILm64EEEEELb1EEEESaISB_EEESaISE_ENS_10_Select1stESt8equal_toImESt4hashImENS_18_Mod_range_hashingENS_20_Default_ranged_hashENS_20_Prime_rehash_policyENS_17_Hashtable_traitsILb0ELb0ELb1EEELb1EEixERS2_
FNDA:0,_ZNSt8__detail9_Map_baseImSt4pairIKmSt6vectorIS1_IbN11MetaPhysicL10DualNumberIdNS4_28SemiDynamicSparseNumberArrayIdmNS4_8NWrapperILm64EEEEELb1EEEESaISB_EEESaISE_ENS_10_Select1stESt8equal_toImESt4hashImENS_18_Mod_range_hashingENS_20_Default_ranged_hashENS_20_Prime_rehash_policyENS_17_Hashtable_traitsILb0ELb0ELb1EEELb1EEixERS2_
FN:1031,_ZNSt8__detail7_InsertIjjSaIjENS_9_IdentityESt8equal_toIjESt4hashIjENS_18_Mod_range_hashingENS_20_Default_ranged_hashENS_20_Prime_rehash_policyENS_17_Hashtable_traitsILb0ELb1ELb1EEELb1EE6insertEOj
FNDA:0,_ZNSt8__detail7_InsertIjjSaIjENS_9_IdentityESt8equal_toIjESt4hashIjENS_18_Mod_range_hashingENS_20_Default_ranged_hashENS_20_Prime_rehash_policyENS_17_Hashtable_traitsILb0ELb1ELb1EEELb1EE6insertEOj
FN:1960,_ZNSt8__detail16_Hashtable_allocISaINS_10_Hash_nodeISt4pairIKmSt6vectorIS4_IS2_IbdESaIS5_EESaIS7_EEELb0EEEEE16_M_allocate_nodeIJRKSt21piecewise_construct_tSt5tupleIJRS3_EESI_IJEEEEEPSB_DpOT_
FNDA:0,_ZNSt8__detail16_Hashtable_allocISaINS_10_Hash_nodeISt4pairIKmSt6vectorIS4_IS2_IbdESaIS5_EESaIS7_EEELb0EEEEE16_M_allocate_nodeIJRKSt21piecewise_construct_tSt5tupleIJRS3_EESI_IJEEEEEPSB_DpOT_
FN:1960,_ZNSt8__detail16_Hashtable_allocISaINS_10_Hash_nodeISt4pairIKmSt6vectorIS2_IbdESaIS5_EEELb0EEEEE16_M_allocate_nodeIJRKSt21piecewise_construct_tSt5tupleIJRS3_EESG_IJEEEEEPS9_DpOT_
FNDA:0,_ZNSt8__detail16_Hashtable_allocISaINS_10_Hash_nodeISt4pairIKmSt6vectorIS2_IbdESaIS5_EEELb0EEEEE16_M_allocate_nodeIJRKSt21piecewise_construct_tSt5tupleIJRS3_EESG_IJEEEEEPS9_DpOT_
FN:1960,_ZNSt8__detail16_Hashtable_allocISaINS_10_Hash_nodeISt4pairIKmSt6vectorIS4_IS2_IbN11MetaPhysicL10DualNumberIdNS5_28SemiDynamicSparseNumberArrayIdmNS5_8NWrapperILm64EEEEELb1EEEESaISC_EESaISE_EEELb0EEEEE16_M_allocate_nodeIJRKSt21piecewise_construct_tSt5tupleIJRS3_EESP_IJEEEEEPSI_DpOT_
FNDA:0,_ZNSt8__detail16_Hashtable_allocISaINS_10_Hash_nodeISt4pairIKmSt6vectorIS4_IS2_IbN11MetaPhysicL10DualNumberIdNS5_28SemiDynamicSparseNumberArrayIdmNS5_8NWrapperILm64EEEEELb1EEEESaISC_EESaISE_EEELb0EEEEE16_M_allocate_nodeIJRKSt21piecewise_construct_tSt5tupleIJRS3_EESP_IJEEEEEPSI_DpOT_
FN:1960,_ZNSt8__detail16_Hashtable_allocISaINS_10_Hash_nodeISt4pairIKmSt6vectorIS2_IbN11MetaPhysicL10DualNumberIdNS5_28SemiDynamicSparseNumberArrayIdmNS5_8NWrapperILm64EEEEELb1EEEESaISC_EEELb0EEEEE16_M_allocate_nodeIJRKSt21piecewise_construct_tSt5tupleIJRS3_EESN_IJEEEEEPSG_DpOT_
FNDA:0,_ZNSt8__detail16_Hashtable_allocISaINS_10_Hash_nodeISt4pairIKmSt6vectorIS2_IbN11MetaPhysicL10DualNumberIdNS5_28SemiDynamicSparseNumberArrayIdmNS5_8NWrapperILm64EEEEELb1EEEESaISC_EEELb0EEEEE16_M_allocate_nodeIJRKSt21piecewise_construct_tSt5tupleIJRS3_EESN_IJEEEEEPSG_DpOT_
FN:1960,_ZNSt8__detail16_Hashtable_allocISaINS_10_Hash_nodeIjLb0EEEEE16_M_allocate_nodeIJjEEEPS2_DpOT_
FNDA:0,_ZNSt8__detail16_Hashtable_allocISaINS_10_Hash_nodeIjLb0EEEEE16_M_allocate_nodeIJjEEEPS2_DpOT_
FN:1982,_ZNSt8__detail16_Hashtable_allocISaINS_10_Hash_nodeISt4pairIKNSt7__cxx1112basic_stringIcSt11char_traitsIcESaIcEEESt10unique_ptrI10MooseArrayIdESt14default_deleteISC_EEELb1EEEEE18_M_deallocate_nodeEPSH_
FNDA:0,_ZNSt8__detail16_Hashtable_allocISaINS_10_Hash_nodeISt4pairIKNSt7__cxx1112basic_stringIcSt11char_traitsIcESaIcEEESt10unique_ptrI10MooseArrayIdESt14default_deleteISC_EEELb1EEEEE18_M_deallocate_nodeEPSH_
FN:1982,_ZNSt8__detail16_Hashtable_allocISaINS_10_Hash_nodeISt4pairIKNSt7__cxx1112basic_stringIcSt11char_traitsIcESaIcEEESt6vectorIP19MooseVariableScalarSaISC_EEELb1EEEEE18_M_deallocate_nodeEPSG_
FNDA:0,_ZNSt8__detail16_Hashtable_allocISaINS_10_Hash_nodeISt4pairIKNSt7__cxx1112basic_stringIcSt11char_traitsIcESaIcEEESt6vectorIP19MooseVariableScalarSaISC_EEELb1EEEEE18_M_deallocate_nodeEPSG_
FN:1982,_ZNSt8__detail16_Hashtable_allocISaINS_10_Hash_nodeISt4pairIKNSt7__cxx1112basic_stringIcSt11char_traitsIcESaIcEEESt6vectorIjSaIjEEELb1EEEEE18_M_deallocate_nodeEPSE_
FNDA:0,_ZNSt8__detail16_Hashtable_allocISaINS_10_Hash_nodeISt4pairIKNSt7__cxx1112basic_stringIcSt11char_traitsIcESaIcEEESt6vectorIjSaIjEEELb1EEEEE18_M_deallocate_nodeEPSE_
FN:1982,_ZNSt8__detail16_Hashtable_allocISaINS_10_Hash_nodeISt4pairIKNSt7__cxx1112basic_stringIcSt11char_traitsIcESaIcEEESt10unique_ptrI10MooseArrayIN7libMesh11VectorValueIN11MetaPhysicL10DualNumberIdNSE_28SemiDynamicSparseNumberArrayIdmNSE_8NWrapperILm64EEEEELb1EEEEEESt14default_deleteISM_EEELb1EEEEE18_M_deallocate_nodeEPSR_
FNDA:0,_ZNSt8__detail16_Hashtable_allocISaINS_10_Hash_nodeISt4pairIKNSt7__cxx1112basic_stringIcSt11char_traitsIcESaIcEEESt10unique_ptrI10MooseArrayIN7libMesh11VectorValueIN11MetaPhysicL10DualNumberIdNSE_28SemiDynamicSparseNumberArrayIdmNSE_8NWrapperILm64EEEEELb1EEEEEESt14default_deleteISM_EEELb1EEEEE18_M_deallocate_nodeEPSR_
FN:1982,_ZNSt8__detail16_Hashtable_allocISaINS_10_Hash_nodeISt4pairIKNSt7__cxx1112basic_stringIcSt11char_traitsIcESaIcEEESt10unique_ptrI10MooseArrayIN5Eigen6MatrixIdLin1ELi1ELi0ELin1ELi1EEEESt14default_deleteISF_EEELb1EEEEE18_M_deallocate_nodeEPSK_
FNDA:0,_ZNSt8__detail16_Hashtable_allocISaINS_10_Hash_nodeISt4pairIKNSt7__cxx1112basic_stringIcSt11char_traitsIcESaIcEEESt10unique_ptrI10MooseArrayIN5Eigen6MatrixIdLin1ELi1ELi0ELin1ELi1EEEESt14default_deleteISF_EEELb1EEEEE18_M_deallocate_nodeEPSK_
FN:1982,_ZNSt8__detail16_Hashtable_allocISaINS_10_Hash_nodeISt4pairIKNSt7__cxx1112basic_stringIcSt11char_traitsIcESaIcEEESt10unique_ptrI10MooseArrayIN7libMesh11VectorValueIdEEESt14default_deleteISF_EEELb1EEEEE18_M_deallocate_nodeEPSK_
FNDA:0,_ZNSt8__detail16_Hashtable_allocISaINS_10_Hash_nodeISt4pairIKNSt7__cxx1112basic_stringIcSt11char_traitsIcESaIcEEESt10unique_ptrI10MooseArrayIN7libMesh11VectorValueIdEEESt14default_deleteISF_EEELb1EEEEE18_M_deallocate_nodeEPSK_
FN:1982,_ZNSt8__detail16_Hashtable_allocISaINS_10_Hash_nodeISt4pairIKNSt7__cxx1112basic_stringIcSt11char_traitsIcESaIcEEES8_ELb1EEEEE18_M_deallocate_nodeEPSB_
FNDA:0,_ZNSt8__detail16_Hashtable_allocISaINS_10_Hash_nodeISt4pairIKNSt7__cxx1112basic_stringIcSt11char_traitsIcESaIcEEES8_ELb1EEEEE18_M_deallocate_nodeEPSB_
FN:1982,_ZNSt8__detail16_Hashtable_allocISaINS_10_Hash_nodeISt4pairIKNSt7__cxx1112basic_stringIcSt11char_traitsIcESaIcEEESt10unique_ptrI10MooseArrayIN11MetaPhysicL10DualNumberIdNSC_28SemiDynamicSparseNumberArrayIdmNSC_8NWrapperILm64EEEEELb1EEEESt14default_deleteISJ_EEELb1EEEEE18_M_deallocate_nodeEPSO_
FNDA:0,_ZNSt8__detail16_Hashtable_allocISaINS_10_Hash_nodeISt4pairIKNSt7__cxx1112basic_stringIcSt11char_traitsIcESaIcEEESt10unique_ptrI10MooseArrayIN11MetaPhysicL10DualNumberIdNSC_28SemiDynamicSparseNumberArrayIdmNSC_8NWrapperILm64EEEEELb1EEEESt14default_deleteISJ_EEELb1EEEEE18_M_deallocate_nodeEPSO_
FN:1982,_ZNSt8__detail16_Hashtable_allocISaINS_10_Hash_nodeISt4pairIKNSt7__cxx1112basic_stringIcSt11char_traitsIcESaIcEEESt6vectorISt10unique_ptrI10MooseArrayIdESt14default_deleteISD_EESaISG_EEELb1EEEEE18_M_deallocate_nodeEPSK_
FNDA:0,_ZNSt8__detail16_Hashtable_allocISaINS_10_Hash_nodeISt4pairIKNSt7__cxx1112basic_stringIcSt11char_traitsIcESaIcEEESt6vectorISt10unique_ptrI10MooseArrayIdESt14default_deleteISD_EESaISG_EEELb1EEEEE18_M_deallocate_nodeEPSK_
FN:1982,_ZNSt8__detail16_Hashtable_allocISaINS_10_Hash_nodeISt4pairIKNSt7__cxx1112basic_stringIcSt11char_traitsIcESaIcEEESt6vectorIP22MooseVariableFieldBaseSaISC_EEELb1EEEEE18_M_deallocate_nodeEPSG_
FNDA:0,_ZNSt8__detail16_Hashtable_allocISaINS_10_Hash_nodeISt4pairIKNSt7__cxx1112basic_stringIcSt11char_traitsIcESaIcEEESt6vectorIP22MooseVariableFieldBaseSaISC_EEELb1EEEEE18_M_deallocate_nodeEPSG_
FN:2000,_ZNSt8__detail16_Hashtable_allocISaINS_10_Hash_nodeISt4pairIKmSt6vectorIS4_IS2_IbN11MetaPhysicL10DualNumberIdNS5_28SemiDynamicSparseNumberArrayIdmNS5_8NWrapperILm64EEEEELb1EEEESaISC_EESaISE_EEELb0EEEEE19_M_deallocate_nodesEPSI_
FNDA:0,_ZNSt8__detail16_Hashtable_allocISaINS_10_Hash_nodeISt4pairIKmSt6vectorIS4_IS2_IbN11MetaPhysicL10DualNumberIdNS5_28SemiDynamicSparseNumberArrayIdmNS5_8NWrapperILm64EEEEELb1EEEESaISC_EESaISE_EEELb0EEEEE19_M_deallocate_nodesEPSI_
FN:2000,_ZNSt8__detail16_Hashtable_allocISaINS_10_Hash_nodeISt4pairIKmSt6vectorIS2_IbdESaIS5_EEELb0EEEEE19_M_deallocate_nodesEPS9_
FNDA:0,_ZNSt8__detail16_Hashtable_allocISaINS_10_Hash_nodeISt4pairIKmSt6vectorIS2_IbdESaIS5_EEELb0EEEEE19_M_deallocate_nodesEPS9_
FN:2000,_ZNSt8__detail16_Hashtable_allocISaINS_10_Hash_nodeISt4pairIKmSt6vectorIS4_IS2_IbdESaIS5_EESaIS7_EEELb0EEEEE19_M_deallocate_nodesEPSB_
FNDA:0,_ZNSt8__detail16_Hashtable_allocISaINS_10_Hash_nodeISt4pairIKmSt6vectorIS4_IS2_IbdESaIS5_EESaIS7_EEELb0EEEEE19_M_deallocate_nodesEPSB_
FN:2000,_ZNSt8__detail16_Hashtable_allocISaINS_10_Hash_nodeISt4pairIKmSt6vectorIS2_IbN11MetaPhysicL10DualNumberIdNS5_28SemiDynamicSparseNumberArrayIdmNS5_8NWrapperILm64EEEEELb1EEEESaISC_EEELb0EEEEE19_M_deallocate_nodesEPSG_
FNDA:0,_ZNSt8__detail16_Hashtable_allocISaINS_10_Hash_nodeISt4pairIKmSt6vectorIS2_IbN11MetaPhysicL10DualNumberIdNS5_28SemiDynamicSparseNumberArrayIdmNS5_8NWrapperILm64EEEEELb1EEEESaISC_EEELb0EEEEE19_M_deallocate_nodesEPSG_
FN:2012,_ZNSt8__detail16_Hashtable_allocISaINS_10_Hash_nodeIjLb0EEEEE19_M_allocate_bucketsEm
FNDA:0,_ZNSt8__detail16_Hashtable_allocISaINS_10_Hash_nodeIjLb0EEEEE19_M_allocate_bucketsEm
FN:2012,_ZNSt8__detail16_Hashtable_allocISaINS_10_Hash_nodeISt4pairIKmSt6vectorIS4_IS2_IbdESaIS5_EESaIS7_EEELb0EEEEE19_M_allocate_bucketsEm
FNDA:0,_ZNSt8__detail16_Hashtable_allocISaINS_10_Hash_nodeISt4pairIKmSt6vectorIS4_IS2_IbdESaIS5_EESaIS7_EEELb0EEEEE19_M_allocate_bucketsEm
FN:2012,_ZNSt8__detail16_Hashtable_allocISaINS_10_Hash_nodeISt4pairIKmSt6vectorIS2_IbN11MetaPhysicL10DualNumberIdNS5_28SemiDynamicSparseNumberArrayIdmNS5_8NWrapperILm64EEEEELb1EEEESaISC_EEELb0EEEEE19_M_allocate_bucketsEm
FNDA:0,_ZNSt8__detail16_Hashtable_allocISaINS_10_Hash_nodeISt4pairIKmSt6vectorIS2_IbN11MetaPhysicL10DualNumberIdNS5_28SemiDynamicSparseNumberArrayIdmNS5_8NWrapperILm64EEEEELb1EEEESaISC_EEELb0EEEEE19_M_allocate_bucketsEm
FN:2012,_ZNSt8__detail16_Hashtable_allocISaINS_10_Hash_nodeISt4pairIKmSt6vectorIS4_IS2_IbN11MetaPhysicL10DualNumberIdNS5_28SemiDynamicSparseNumberArrayIdmNS5_8NWrapperILm64EEEEELb1EEEESaISC_EESaISE_EEELb0EEEEE19_M_allocate_bucketsEm
FNDA:0,_ZNSt8__detail16_Hashtable_allocISaINS_10_Hash_nodeISt4pairIKmSt6vectorIS4_IS2_IbN11MetaPhysicL10DualNumberIdNS5_28SemiDynamicSparseNumberArrayIdmNS5_8NWrapperILm64EEEEELb1EEEESaISC_EESaISE_EEELb0EEEEE19_M_allocate_bucketsEm
FN:2012,_ZNSt8__detail16_Hashtable_allocISaINS_10_Hash_nodeISt4pairIKmSt6vectorIS2_IbdESaIS5_EEELb0EEEEE19_M_allocate_bucketsEm
FNDA:0,_ZNSt8__detail16_Hashtable_allocISaINS_10_Hash_nodeISt4pairIKmSt6vectorIS2_IbdESaIS5_EEELb0EEEEE19_M_allocate_bucketsEm
FNF:29
FNH:0
DA:206,0
DA:207,0
DA:212,0
DA:277,0
DA:341,0
DA:405,0
DA:411,0
DA:488,0
DA:532,0
DA:540,0
DA:767,0
DA:775,0
DA:776,0
DA:781,0
DA:782,0
DA:785,0
DA:786,0
DA:787,0
DA:788,0
DA:767,0
DA:775,0
DA:776,0
DA:781,0
DA:782,0
DA:785,0
DA:786,0
DA:787,0
DA:788,0
DA:767,0
DA:775,0
DA:776,0
DA:781,0
DA:782,0
DA:785,0
DA:786,0
DA:787,0
DA:788,0
DA:767,0
DA:775,0
DA:776,0
DA:781,0
DA:782,0
DA:785,0
DA:786,0
DA:787,0
DA:788,0
DA:1031,0
DA:1035,0
DA:1270,0
DA:1279,0
DA:1707,0
DA:1714,0
DA:1960,0
DA:1971,0
DA:1960,0
DA:1971,0
DA:1960,0
DA:1971,0
DA:1960,0
DA:1971,0
DA:1960,0
DA:1971,0
DA:1982,0
DA:1986,0
DA:1982,0
DA:1986,0
DA:1982,0
DA:1986,0
DA:1982,0
DA:1986,0
DA:1982,0
DA:1986,0
DA:1982,0
DA:1986,0
DA:1982,0
DA:1986,0
DA:1982,0
DA:1986,0
DA:1982,0
DA:1986,0
DA:1982,0
DA:1986,0
DA:1986,0
DA:1994,0
DA:2000,0
DA:2002,0
DA:2008,0
DA:2000,0
DA:2002,0
DA:2008,0
DA:2000,0
DA:2002,0
DA:2008,0
DA:2000,0
DA:2002,0
DA:2008,0
DA:2002,0
DA:2006,0
DA:2012,0
DA:2019,0
DA:2020,0
DA:2012,0
DA:2019,0
DA:2020,0
DA:2012,0
DA:2019,0
DA:2020,0
DA:2012,0
DA:2019,0
DA:2020,0
DA:2012,0
DA:2019,0
DA:2020,0
DA:2033,0
LF:114
LH:0
end_of_record
SF:/usr/share/miniconda3/envs/moose/libmesh/include/metaphysicl/dualnumber.h
FN:99,_ZN11MetaPhysicL10DualNumberIdNS_28SemiDynamicSparseNumberArrayIdmNS_8NWrapperILm64EEEEELb1EEaSERKS5_
FNDA:32026392,_ZN11MetaPhysicL10DualNumberIdNS_28SemiDynamicSparseNumberArrayIdmNS_8NWrapperILm64EEEEELb1EEaSERKS5_
FN:113,_ZN11MetaPhysicL10DualNumberIdNS_28SemiDynamicSparseNumberArrayIdmNS_8NWrapperILm64EEEEELb1EEaSEOS5_
FNDA:32026392,_ZN11MetaPhysicL10DualNumberIdNS_28SemiDynamicSparseNumberArrayIdmNS_8NWrapperILm64EEEEELb1EEaSEOS5_
FN:140,_ZN11MetaPhysicL10DualNumberIdNS_28SemiDynamicSparseNumberArrayIdmNS_8NWrapperILm64EEEEELb1EEC2ERKS5_
FNDA:0,_ZN11MetaPhysicL10DualNumberIdNS_28SemiDynamicSparseNumberArrayIdmNS_8NWrapperILm64EEEEELb1EEC2ERKS5_
FN:150,_ZN11MetaPhysicL10DualNumberIdNS_28SemiDynamicSparseNumberArrayIdmNS_8NWrapperILm64EEEEELb1EEC2EOS5_
FNDA:0,_ZN11MetaPhysicL10DualNumberIdNS_28SemiDynamicSparseNumberArrayIdmNS_8NWrapperILm64EEEEELb1EEC2EOS5_
FN:193,_ZN11MetaPhysicL10DualNumberIdNS_28SemiDynamicSparseNumberArrayIdmNS_8NWrapperILm64EEEEELb1EEaSIdEERS5_RKT_
FNDA:0,_ZN11MetaPhysicL10DualNumberIdNS_28SemiDynamicSparseNumberArrayIdmNS_8NWrapperILm64EEEEELb1EEaSIdEERS5_RKT_
FN:265,_ZN11MetaPhysicL26derivative_multiply_helperIdNS_28SemiDynamicSparseNumberArrayIdmNS_8NWrapperILm64EEEEELb1EEEvRNS_10DualNumberIT_T0_XT1_EEERKS8_
FNDA:0,_ZN11MetaPhysicL26derivative_multiply_helperIdNS_28SemiDynamicSparseNumberArrayIdmNS_8NWrapperILm64EEEEELb1EEEvRNS_10DualNumberIT_T0_XT1_EEERKS8_
FN:316,_ZN11MetaPhysicL26derivative_division_helperIdNS_28SemiDynamicSparseNumberArrayIdmNS_8NWrapperILm64EEEEELb1EEEvRNS_10DualNumberIT_T0_XT1_EEERKS8_
FNDA:0,_ZN11MetaPhysicL26derivative_division_helperIdNS_28SemiDynamicSparseNumberArrayIdmNS_8NWrapperILm64EEEEELb1EEEvRNS_10DualNumberIT_T0_XT1_EEERKS8_
FN:470,_ZN11MetaPhysicL10DualNumberIdNS_28SemiDynamicSparseNumberArrayIdmNS_8NWrapperILm64EEEEELb1EEpLIdS4_EERS5_RKNS0_IT_T0_Lb1EEE
FNDA:21871696,_ZN11MetaPhysicL10DualNumberIdNS_28SemiDynamicSparseNumberArrayIdmNS_8NWrapperILm64EEEEELb1EEpLIdS4_EERS5_RKNS0_IT_T0_Lb1EEE
FN:472,_ZN11MetaPhysicL10DualNumberIdNS_28SemiDynamicSparseNumberArrayIdmNS_8NWrapperILm64EEEEELb1EEmIIdS4_EERS5_RKNS0_IT_T0_Lb1EEE
FNDA:2083072,_ZN11MetaPhysicL10DualNumberIdNS_28SemiDynamicSparseNumberArrayIdmNS_8NWrapperILm64EEEEELb1EEmIIdS4_EERS5_RKNS0_IT_T0_Lb1EEE
FN:474,_ZN11MetaPhysicL10DualNumberIdNS_28SemiDynamicSparseNumberArrayIdmNS_8NWrapperILm64EEEEELb1EEmLIdEERS5_RKT_
FNDA:2083072,_ZN11MetaPhysicL10DualNumberIdNS_28SemiDynamicSparseNumberArrayIdmNS_8NWrapperILm64EEEEELb1EEmLIdEERS5_RKT_
FN:474,_ZN11MetaPhysicL10DualNumberIdNS_28SemiDynamicSparseNumberArrayIdmNS_8NWrapperILm64EEEEELb1EEmLIdS4_EERS5_RKNS0_IT_T0_Lb1EEE
FNDA:32628760,_ZN11MetaPhysicL10DualNumberIdNS_28SemiDynamicSparseNumberArrayIdmNS_8NWrapperILm64EEEEELb1EEmLIdS4_EERS5_RKNS0_IT_T0_Lb1EEE
FN:479,_ZN11MetaPhysicL10DualNumberIdNS_28SemiDynamicSparseNumberArrayIdmNS_8NWrapperILm64EEEEELb1EEdVIdEERS5_RKT_
FNDA:341984,_ZN11MetaPhysicL10DualNumberIdNS_28SemiDynamicSparseNumberArrayIdmNS_8NWrapperILm64EEEEELb1EEdVIdEERS5_RKT_
FN:479,_ZN11MetaPhysicL10DualNumberIdNS_28SemiDynamicSparseNumberArrayIdmNS_8NWrapperILm64EEEEELb1EEdVIdS4_EERS5_RKNS0_IT_T0_Lb1EEE
FNDA:341984,_ZN11MetaPhysicL10DualNumberIdNS_28SemiDynamicSparseNumberArrayIdmNS_8NWrapperILm64EEEEELb1EEdVIdS4_EERS5_RKNS0_IT_T0_Lb1EEE
FNF:13
FNH:8
DA:50,0
DA:55,0
DA:65,10667920
DA:99,32026392
DA:101,32026392
DA:103,32026392
DA:106,32026392
DA:113,32026392
DA:115,32026392
DA:117,32026392
DA:120,32026392
DA:140,0
DA:141,0
DA:143,0
DA:145,0
DA:150,0
DA:151,0
DA:153,0
DA:155,0
DA:193,0
DA:195,0
DA:196,0
DA:197,0
DA:198,0
DA:265,0
DA:268,0
DA:271,0
DA:272,0
DA:275,0
DA:276,0
DA:316,0
DA:319,0
DA:322,0
DA:323,0
DA:324,0
DA:327,0
DA:328,0
DA:470,32807544
DA:472,2425056
DA:474,2083072
DA:474,32628760
DA:474,13360904
DA:479,341984
DA:479,341984
DA:479,683968
LF:45
LH:17
end_of_record
SF:/home/runner/work/beaver/beaver/moose/framework/build/header_symlinks/ElementIDInterface.h
LF:0
LH:0
end_of_record
SF:/home/runner/work/beaver/beaver/moose/framework/build/header_symlinks/UniqueStorage.h
DA:162,0
LF:1
LH:0
end_of_record
SF:/usr/share/miniconda3/envs/moose/libmesh/include/libmesh/tensor_value.h
DA:261,0
DA:262,0
LF:2
LH:0
end_of_record
SF:/home/runner/work/beaver/beaver/moose/framework/build/header_symlinks/ParallelParamObject.h
FN:35,_ZN19ParallelParamObjectD0Ev
FNDA:0,_ZN19ParallelParamObjectD0Ev
FN:35,_ZN19ParallelParamObjectD2Ev
FNDA:0,_ZN19ParallelParamObjectD2Ev
FNF:2
FNH:0
DA:35,0
DA:35,0
LF:2
LH:0
end_of_record
SF:/home/runner/work/beaver/beaver/moose/framework/build/header_symlinks/Restartable.h
LF:0
LH:0
end_of_record
SF:/usr/share/miniconda3/envs/moose/libmesh/include/metaphysicl/dynamic_std_array_wrapper.h
FN:71,_ZN11MetaPhysicL22DynamicStdArrayWrapperImNS_8NWrapperILm64EEEEaSERKS3_
FNDA:14073840,_ZN11MetaPhysicL22DynamicStdArrayWrapperImNS_8NWrapperILm64EEEEaSERKS3_
FN:71,_ZN11MetaPhysicL22DynamicStdArrayWrapperIdNS_8NWrapperILm64EEEEaSERKS3_
FNDA:14073840,_ZN11MetaPhysicL22DynamicStdArrayWrapperIdNS_8NWrapperILm64EEEEaSERKS3_
FN:122,_ZN11MetaPhysicL22DynamicStdArrayWrapperImNS_8NWrapperILm64EEEE6resizeEm
FNDA:0,_ZN11MetaPhysicL22DynamicStdArrayWrapperImNS_8NWrapperILm64EEEE6resizeEm
FN:122,_ZN11MetaPhysicL22DynamicStdArrayWrapperIdNS_8NWrapperILm64EEEE6resizeEm
FNDA:0,_ZN11MetaPhysicL22DynamicStdArrayWrapperIdNS_8NWrapperILm64EEEE6resizeEm
FNF:4
FNH:2
DA:62,0
DA:64,0
DA:67,0
DA:68,0
DA:71,14073840
DA:73,14073840
DA:75,14073840
DA:76,14073840
DA:71,14073840
DA:73,14073840
DA:75,14073840
DA:76,14073840
DA:82,28147680
DA:85,28147680
DA:86,0
DA:90,42701856
DA:99,28147680
DA:105,204931920
DA:120,1190424
DA:122,0
DA:124,0
DA:125,0
DA:126,0
DA:127,0
DA:122,0
DA:124,0
DA:125,0
DA:126,0
DA:127,0
DA:132,0
DA:138,0
DA:143,0
LF:32
LH:14
end_of_record
SF:/home/runner/work/beaver/beaver/moose/framework/build/header_symlinks/InputParameters.h
FN:69,_ZN15InputParametersD0Ev
FNDA:0,_ZN15InputParametersD0Ev
FN:69,_ZN15InputParametersD2Ev
FNDA:0,_ZN15InputParametersD2Ev
FN:1316,_ZN15InputParameters3setIbEERT_RKNSt7__cxx1112basic_stringIcSt11char_traitsIcESaIcEEEb
FNDA:0,_ZN15InputParameters3setIbEERT_RKNSt7__cxx1112basic_stringIcSt11char_traitsIcESaIcEEEb
FN:1738,_ZNK15InputParameters19checkConsistentTypeIbEEvRKNSt7__cxx1112basic_stringIcSt11char_traitsIcESaIcEEE
FNDA:0,_ZNK15InputParameters19checkConsistentTypeIbEEvRKNSt7__cxx1112basic_stringIcSt11char_traitsIcESaIcEEE
FNF:4
FNH:0
DA:69,0
DA:69,0
DA:1316,0
DA:1318,0
DA:1320,0
DA:1321,0
DA:1323,0
DA:1325,0
DA:1326,0
DA:1330,0
DA:1738,0
DA:1740,0
DA:1744,0
DA:1749,0
DA:1750,0
DA:1755,0
LF:16
LH:0
end_of_record
SF:/usr/share/miniconda3/envs/moose/x86_64-conda-linux-gnu/include/c++/12.3.0/string_view
FN:317,_ZNKSt17basic_string_viewIcSt11char_traitsIcEE7compareES2_
FNDA:0,_ZNKSt17basic_string_viewIcSt11char_traitsIcEE7compareES2_
FNF:1
FNH:0
DA:317,0
DA:319,0
DA:320,0
DA:321,0
DA:323,0
DA:508,0
DA:509,0
DA:511,0
DA:513,0
DA:603,0
DA:609,0
DA:674,0
LF:12
LH:0
end_of_record
SF:/usr/share/miniconda3/envs/moose/x86_64-conda-linux-gnu/include/c++/12.3.0/bits/stl_tree.h
FN:592,_ZNSt8_Rb_treeINSt7__cxx1112basic_stringIcSt11char_traitsIcESaIcEEESt4pairIKS5_St6vectorISt10shared_ptrI17RegistryEntryBaseESaISB_EEESt10_Select1stISE_ESt4lessIS5_ESaISE_EE17_M_construct_nodeIJRKSt21piecewise_construct_tSt5tupleIJRS7_EESP_IJEEEEEvPSt13_Rb_tree_nodeISE_EDpOT_
FNDA:0,_ZNSt8_Rb_treeINSt7__cxx1112basic_stringIcSt11char_traitsIcESaIcEEESt4pairIKS5_St6vectorISt10shared_ptrI17RegistryEntryBaseESaISB_EEESt10_Select1stISE_ESt4lessIS5_ESaISE_EE17_M_construct_nodeIJRKSt21piecewise_construct_tSt5tupleIJRS7_EESP_IJEEEEEvPSt13_Rb_tree_nodeISE_EDpOT_
FN:592,_ZNSt8_Rb_treeINSt7__cxx1112basic_stringIcSt11char_traitsIcESaIcEEESt4pairIKS5_N15InputParameters8MetadataEESt10_Select1stISA_ESt4lessIS5_ESaISA_EE17_M_construct_nodeIJRKSt21piecewise_construct_tSt5tupleIJRS7_EESL_IJEEEEEvPSt13_Rb_tree_nodeISA_EDpOT_
FNDA:0,_ZNSt8_Rb_treeINSt7__cxx1112basic_stringIcSt11char_traitsIcESaIcEEESt4pairIKS5_N15InputParameters8MetadataEESt10_Select1stISA_ESt4lessIS5_ESaISA_EE17_M_construct_nodeIJRKSt21piecewise_construct_tSt5tupleIJRS7_EESL_IJEEEEEvPSt13_Rb_tree_nodeISA_EDpOT_
FN:592,_ZNSt8_Rb_treeINSt7__cxx1112basic_stringIcSt11char_traitsIcESaIcEEESt4pairIKS5_St10unique_ptrIN7libMesh10Parameters5ValueESt14default_deleteISB_EEESt10_Select1stISF_ESt4lessIvESaISF_EE17_M_construct_nodeIJRKSt21piecewise_construct_tSt5tupleIJRS7_EESQ_IJEEEEEvPSt13_Rb_tree_nodeISF_EDpOT_
FNDA:0,_ZNSt8_Rb_treeINSt7__cxx1112basic_stringIcSt11char_traitsIcESaIcEEESt4pairIKS5_St10unique_ptrIN7libMesh10Parameters5ValueESt14default_deleteISB_EEESt10_Select1stISF_ESt4lessIvESaISF_EE17_M_construct_nodeIJRKSt21piecewise_construct_tSt5tupleIJRS7_EESQ_IJEEEEEvPSt13_Rb_tree_nodeISF_EDpOT_
FN:611,_ZNSt8_Rb_treeINSt7__cxx1112basic_stringIcSt11char_traitsIcESaIcEEESt4pairIKS5_N15InputParameters8MetadataEESt10_Select1stISA_ESt4lessIS5_ESaISA_EE14_M_create_nodeIJRKSt21piecewise_construct_tSt5tupleIJRS7_EESL_IJEEEEEPSt13_Rb_tree_nodeISA_EDpOT_
FNDA:0,_ZNSt8_Rb_treeINSt7__cxx1112basic_stringIcSt11char_traitsIcESaIcEEESt4pairIKS5_N15InputParameters8MetadataEESt10_Select1stISA_ESt4lessIS5_ESaISA_EE14_M_create_nodeIJRKSt21piecewise_construct_tSt5tupleIJRS7_EESL_IJEEEEEPSt13_Rb_tree_nodeISA_EDpOT_
FN:611,_ZNSt8_Rb_treeINSt7__cxx1112basic_stringIcSt11char_traitsIcESaIcEEESt4pairIKS5_S5_ESt10_Select1stIS8_ESt4lessIS5_ESaIS8_EE14_M_create_nodeIJRKSt21piecewise_construct_tSt5tupleIJOS5_EESJ_IJEEEEEPSt13_Rb_tree_nodeIS8_EDpOT_
FNDA:0,_ZNSt8_Rb_treeINSt7__cxx1112basic_stringIcSt11char_traitsIcESaIcEEESt4pairIKS5_S5_ESt10_Select1stIS8_ESt4lessIS5_ESaIS8_EE14_M_create_nodeIJRKSt21piecewise_construct_tSt5tupleIJOS5_EESJ_IJEEEEEPSt13_Rb_tree_nodeIS8_EDpOT_
FN:611,_ZNSt8_Rb_treeINSt7__cxx1112basic_stringIcSt11char_traitsIcESaIcEEESt4pairIKS5_St6vectorISt10shared_ptrI17RegistryEntryBaseESaISB_EEESt10_Select1stISE_ESt4lessIS5_ESaISE_EE14_M_create_nodeIJRKSt21piecewise_construct_tSt5tupleIJRS7_EESP_IJEEEEEPSt13_Rb_tree_nodeISE_EDpOT_
FNDA:0,_ZNSt8_Rb_treeINSt7__cxx1112basic_stringIcSt11char_traitsIcESaIcEEESt4pairIKS5_St6vectorISt10shared_ptrI17RegistryEntryBaseESaISB_EEESt10_Select1stISE_ESt4lessIS5_ESaISE_EE14_M_create_nodeIJRKSt21piecewise_construct_tSt5tupleIJRS7_EESP_IJEEEEEPSt13_Rb_tree_nodeISE_EDpOT_
FN:611,_ZNSt8_Rb_treeIN5Moose7ElemArgESt4pairIKS1_N11MetaPhysicL10DualNumberIdNS4_28SemiDynamicSparseNumberArrayIdmNS4_8NWrapperILm64EEEEELb1EEEESt10_Select1stISB_ESt4lessIS1_ESaISB_EE14_M_create_nodeIJRKSt21piecewise_construct_tSt5tupleIJRS3_EESM_IJOSA_EEEEEPSt13_Rb_tree_nodeISB_EDpOT_
FNDA:0,_ZNSt8_Rb_treeIN5Moose7ElemArgESt4pairIKS1_N11MetaPhysicL10DualNumberIdNS4_28SemiDynamicSparseNumberArrayIdmNS4_8NWrapperILm64EEEEELb1EEEESt10_Select1stISB_ESt4lessIS1_ESaISB_EE14_M_create_nodeIJRKSt21piecewise_construct_tSt5tupleIJRS3_EESM_IJOSA_EEEEEPSt13_Rb_tree_nodeISB_EDpOT_
FN:611,_ZNSt8_Rb_treeIN5Moose7FaceArgESt4pairIKS1_N11MetaPhysicL10DualNumberIdNS4_28SemiDynamicSparseNumberArrayIdmNS4_8NWrapperILm64EEEEELb1EEEESt10_Select1stISB_ESt4lessIS1_ESaISB_EE14_M_create_nodeIJRKSt21piecewise_construct_tSt5tupleIJRS3_EESM_IJOSA_EEEEEPSt13_Rb_tree_nodeISB_EDpOT_
FNDA:0,_ZNSt8_Rb_treeIN5Moose7FaceArgESt4pairIKS1_N11MetaPhysicL10DualNumberIdNS4_28SemiDynamicSparseNumberArrayIdmNS4_8NWrapperILm64EEEEELb1EEEESt10_Select1stISB_ESt4lessIS1_ESaISB_EE14_M_create_nodeIJRKSt21piecewise_construct_tSt5tupleIJRS3_EESM_IJOSA_EEEEEPSt13_Rb_tree_nodeISB_EDpOT_
FN:611,_ZNSt8_Rb_treeIN5Moose7ElemArgESt4pairIKS1_dESt10_Select1stIS4_ESt4lessIS1_ESaIS4_EE14_M_create_nodeIJRKSt21piecewise_construct_tSt5tupleIJRS3_EESF_IJOdEEEEEPSt13_Rb_tree_nodeIS4_EDpOT_
FNDA:0,_ZNSt8_Rb_treeIN5Moose7ElemArgESt4pairIKS1_dESt10_Select1stIS4_ESt4lessIS1_ESaIS4_EE14_M_create_nodeIJRKSt21piecewise_construct_tSt5tupleIJRS3_EESF_IJOdEEEEEPSt13_Rb_tree_nodeIS4_EDpOT_
FN:611,_ZNSt8_Rb_treeINSt7__cxx1112basic_stringIcSt11char_traitsIcESaIcEEESt4pairIKS5_St10unique_ptrIN7libMesh10Parameters5ValueESt14default_deleteISB_EEESt10_Select1stISF_ESt4lessIvESaISF_EE14_M_create_nodeIJRKSt21piecewise_construct_tSt5tupleIJRS7_EESQ_IJEEEEEPSt13_Rb_tree_nodeISF_EDpOT_
FNDA:0,_ZNSt8_Rb_treeINSt7__cxx1112basic_stringIcSt11char_traitsIcESaIcEEESt4pairIKS5_St10unique_ptrIN7libMesh10Parameters5ValueESt14default_deleteISB_EEESt10_Select1stISF_ESt4lessIvESaISF_EE14_M_create_nodeIJRKSt21piecewise_construct_tSt5tupleIJRS7_EESQ_IJEEEEEPSt13_Rb_tree_nodeISF_EDpOT_
FN:611,_ZNSt8_Rb_treeIN5Moose7FaceArgESt4pairIKS1_dESt10_Select1stIS4_ESt4lessIS1_ESaIS4_EE14_M_create_nodeIJRKSt21piecewise_construct_tSt5tupleIJRS3_EESF_IJOdEEEEEPSt13_Rb_tree_nodeIS4_EDpOT_
FNDA:0,_ZNSt8_Rb_treeIN5Moose7FaceArgESt4pairIKS1_dESt10_Select1stIS4_ESt4lessIS1_ESaIS4_EE14_M_create_nodeIJRKSt21piecewise_construct_tSt5tupleIJRS3_EESF_IJOdEEEEEPSt13_Rb_tree_nodeIS4_EDpOT_
FN:631,_ZNSt8_Rb_treeI17PostprocessorNameSt4pairIKS0_St10unique_ptrIdSt14default_deleteIdEEESt10_Select1stIS7_ESt4lessIS0_ESaIS7_EE12_M_drop_nodeEPSt13_Rb_tree_nodeIS7_E
FNDA:0,_ZNSt8_Rb_treeI17PostprocessorNameSt4pairIKS0_St10unique_ptrIdSt14default_deleteIdEEESt10_Select1stIS7_ESt4lessIS0_ESaIS7_EE12_M_drop_nodeEPSt13_Rb_tree_nodeIS7_E
FN:631,_ZNSt8_Rb_treeI13MooseEnumItemS0_St9_IdentityIS0_ESt4lessIS0_ESaIS0_EE12_M_drop_nodeEPSt13_Rb_tree_nodeIS0_E
FNDA:654,_ZNSt8_Rb_treeI13MooseEnumItemS0_St9_IdentityIS0_ESt4lessIS0_ESaIS0_EE12_M_drop_nodeEPSt13_Rb_tree_nodeIS0_E
FN:631,_ZNSt8_Rb_treeINSt7__cxx1112basic_stringIcSt11char_traitsIcESaIcEEESt4pairIKS5_N15InputParameters8MetadataEESt10_Select1stISA_ESt4lessIS5_ESaISA_EE12_M_drop_nodeEPSt13_Rb_tree_nodeISA_E
FNDA:0,_ZNSt8_Rb_treeINSt7__cxx1112basic_stringIcSt11char_traitsIcESaIcEEESt4pairIKS5_N15InputParameters8MetadataEESt10_Select1stISA_ESt4lessIS5_ESaISA_EE12_M_drop_nodeEPSt13_Rb_tree_nodeISA_E
FN:631,_ZNSt8_Rb_treeINSt7__cxx1112basic_stringIcSt11char_traitsIcESaIcEEESt4pairIKS5_S5_ESt10_Select1stIS8_ESt4lessIS5_ESaIS8_EE12_M_drop_nodeEPSt13_Rb_tree_nodeIS8_E
FNDA:0,_ZNSt8_Rb_treeINSt7__cxx1112basic_stringIcSt11char_traitsIcESaIcEEESt4pairIKS5_S5_ESt10_Select1stIS8_ESt4lessIS5_ESaIS8_EE12_M_drop_nodeEPSt13_Rb_tree_nodeIS8_E
FN:631,_ZNSt8_Rb_treeINSt7__cxx1112basic_stringIcSt11char_traitsIcESaIcEEESt4pairIKS5_St6vectorISt10shared_ptrI17RegistryEntryBaseESaISB_EEESt10_Select1stISE_ESt4lessIS5_ESaISE_EE12_M_drop_nodeEPSt13_Rb_tree_nodeISE_E
FNDA:0,_ZNSt8_Rb_treeINSt7__cxx1112basic_stringIcSt11char_traitsIcESaIcEEESt4pairIKS5_St6vectorISt10shared_ptrI17RegistryEntryBaseESaISB_EEESt10_Select1stISE_ESt4lessIS5_ESaISE_EE12_M_drop_nodeEPSt13_Rb_tree_nodeISE_E
FN:631,_ZNSt8_Rb_treeINSt7__cxx1112basic_stringIcSt11char_traitsIcESaIcEEESt4pairIKS5_St10unique_ptrIN7libMesh10Parameters5ValueESt14default_deleteISB_EEESt10_Select1stISF_ESt4lessIvESaISF_EE12_M_drop_nodeEPSt13_Rb_tree_nodeISF_E
FNDA:0,_ZNSt8_Rb_treeINSt7__cxx1112basic_stringIcSt11char_traitsIcESaIcEEESt4pairIKS5_St10unique_ptrIN7libMesh10Parameters5ValueESt14default_deleteISB_EEESt10_Select1stISF_ESt4lessIvESaISF_EE12_M_drop_nodeEPSt13_Rb_tree_nodeISF_E
FN:1254,_ZNSt8_Rb_treeINSt7__cxx1112basic_stringIcSt11char_traitsIcESaIcEEESt4pairIKS5_St10unique_ptrIN7libMesh10Parameters5ValueESt14default_deleteISB_EEESt10_Select1stISF_ESt4lessIvESaISF_EE5clearEv
FNDA:0,_ZNSt8_Rb_treeINSt7__cxx1112basic_stringIcSt11char_traitsIcESaIcEEESt4pairIKS5_St10unique_ptrIN7libMesh10Parameters5ValueESt14default_deleteISB_EEESt10_Select1stISF_ESt4lessIvESaISF_EE5clearEv
FN:1254,_ZNSt8_Rb_treeIN5Moose7ElemArgESt4pairIKS1_N11MetaPhysicL10DualNumberIdNS4_28SemiDynamicSparseNumberArrayIdmNS4_8NWrapperILm64EEEEELb1EEEESt10_Select1stISB_ESt4lessIS1_ESaISB_EE5clearEv
FNDA:0,_ZNSt8_Rb_treeIN5Moose7ElemArgESt4pairIKS1_N11MetaPhysicL10DualNumberIdNS4_28SemiDynamicSparseNumberArrayIdmNS4_8NWrapperILm64EEEEELb1EEEESt10_Select1stISB_ESt4lessIS1_ESaISB_EE5clearEv
FN:1254,_ZNSt8_Rb_treeIN5Moose7FaceArgESt4pairIKS1_N11MetaPhysicL10DualNumberIdNS4_28SemiDynamicSparseNumberArrayIdmNS4_8NWrapperILm64EEEEELb1EEEESt10_Select1stISB_ESt4lessIS1_ESaISB_EE5clearEv
FNDA:0,_ZNSt8_Rb_treeIN5Moose7FaceArgESt4pairIKS1_N11MetaPhysicL10DualNumberIdNS4_28SemiDynamicSparseNumberArrayIdmNS4_8NWrapperILm64EEEEELb1EEEESt10_Select1stISB_ESt4lessIS1_ESaISB_EE5clearEv
FN:1254,_ZNSt8_Rb_treeIN5Moose7NodeArgESt4pairIKS1_N11MetaPhysicL10DualNumberIdNS4_28SemiDynamicSparseNumberArrayIdmNS4_8NWrapperILm64EEEEELb1EEEESt10_Select1stISB_ESt4lessIS1_ESaISB_EE5clearEv
FNDA:0,_ZNSt8_Rb_treeIN5Moose7NodeArgESt4pairIKS1_N11MetaPhysicL10DualNumberIdNS4_28SemiDynamicSparseNumberArrayIdmNS4_8NWrapperILm64EEEEELb1EEEESt10_Select1stISB_ESt4lessIS1_ESaISB_EE5clearEv
FN:1254,_ZNSt8_Rb_treeIN5Moose7ElemArgESt4pairIKS1_dESt10_Select1stIS4_ESt4lessIS1_ESaIS4_EE5clearEv
FNDA:0,_ZNSt8_Rb_treeIN5Moose7ElemArgESt4pairIKS1_dESt10_Select1stIS4_ESt4lessIS1_ESaIS4_EE5clearEv
FN:1254,_ZNSt8_Rb_treeIN5Moose7FaceArgESt4pairIKS1_dESt10_Select1stIS4_ESt4lessIS1_ESaIS4_EE5clearEv
FNDA:0,_ZNSt8_Rb_treeIN5Moose7FaceArgESt4pairIKS1_dESt10_Select1stIS4_ESt4lessIS1_ESaIS4_EE5clearEv
FN:1254,_ZNSt8_Rb_treeIN5Moose7NodeArgESt4pairIKS1_dESt10_Select1stIS4_ESt4lessIS1_ESaIS4_EE5clearEv
FNDA:0,_ZNSt8_Rb_treeIN5Moose7NodeArgESt4pairIKS1_dESt10_Select1stIS4_ESt4lessIS1_ESaIS4_EE5clearEv
FN:1305,_ZNKSt8_Rb_treeINSt7__cxx1112basic_stringIcSt11char_traitsIcESaIcEEESt4pairIKS5_St10unique_ptrIN7libMesh10Parameters5ValueESt14default_deleteISB_EEESt10_Select1stISF_ESt4lessIvESaISF_EE10_M_find_trISt17basic_string_viewIcS3_EvEESt23_Rb_tree_const_iteratorISF_ERKT_
FNDA:0,_ZNKSt8_Rb_treeINSt7__cxx1112basic_stringIcSt11char_traitsIcESaIcEEESt4pairIKS5_St10unique_ptrIN7libMesh10Parameters5ValueESt14default_deleteISB_EEESt10_Select1stISF_ESt4lessIvESaISF_EE10_M_find_trISt17basic_string_viewIcS3_EvEESt23_Rb_tree_const_iteratorISF_ERKT_
FN:1334,_ZNKSt8_Rb_treeINSt7__cxx1112basic_stringIcSt11char_traitsIcESaIcEEESt4pairIKS5_St10unique_ptrIN7libMesh10Parameters5ValueESt14default_deleteISB_EEESt10_Select1stISF_ESt4lessIvESaISF_EE17_M_lower_bound_trISt17basic_string_viewIcS3_EvEESt23_Rb_tree_const_iteratorISF_ERKT_
FNDA:0,_ZNKSt8_Rb_treeINSt7__cxx1112basic_stringIcSt11char_traitsIcESaIcEEESt4pairIKS5_St10unique_ptrIN7libMesh10Parameters5ValueESt14default_deleteISB_EEESt10_Select1stISF_ESt4lessIvESaISF_EE17_M_lower_bound_trISt17basic_string_viewIcS3_EvEESt23_Rb_tree_const_iteratorISF_ERKT_
FN:1641,_ZNSt8_Rb_treeINSt7__cxx1112basic_stringIcSt11char_traitsIcESaIcEEESt4pairIKS5_St10unique_ptrIN7libMesh10Parameters5ValueESt14default_deleteISB_EEESt10_Select1stISF_ESt4lessIvESaISF_EE10_Auto_nodeD2Ev
FNDA:0,_ZNSt8_Rb_treeINSt7__cxx1112basic_stringIcSt11char_traitsIcESaIcEEESt4pairIKS5_St10unique_ptrIN7libMesh10Parameters5ValueESt14default_deleteISB_EEESt10_Select1stISF_ESt4lessIvESaISF_EE10_Auto_nodeD2Ev
FN:1641,_ZNSt8_Rb_treeINSt7__cxx1112basic_stringIcSt11char_traitsIcESaIcEEESt4pairIKS5_St6vectorISt10shared_ptrI17RegistryEntryBaseESaISB_EEESt10_Select1stISE_ESt4lessIS5_ESaISE_EE10_Auto_nodeD2Ev
FNDA:0,_ZNSt8_Rb_treeINSt7__cxx1112basic_stringIcSt11char_traitsIcESaIcEEESt4pairIKS5_St6vectorISt10shared_ptrI17RegistryEntryBaseESaISB_EEESt10_Select1stISE_ESt4lessIS5_ESaISE_EE10_Auto_nodeD2Ev
FN:1641,_ZNSt8_Rb_treeINSt7__cxx1112basic_stringIcSt11char_traitsIcESaIcEEESt4pairIKS5_S5_ESt10_Select1stIS8_ESt4lessIS5_ESaIS8_EE10_Auto_nodeD2Ev
FNDA:0,_ZNSt8_Rb_treeINSt7__cxx1112basic_stringIcSt11char_traitsIcESaIcEEESt4pairIKS5_S5_ESt10_Select1stIS8_ESt4lessIS5_ESaIS8_EE10_Auto_nodeD2Ev
FN:1641,_ZNSt8_Rb_treeIN5Moose7FaceArgESt4pairIKS1_dESt10_Select1stIS4_ESt4lessIS1_ESaIS4_EE10_Auto_nodeD2Ev
FNDA:0,_ZNSt8_Rb_treeIN5Moose7FaceArgESt4pairIKS1_dESt10_Select1stIS4_ESt4lessIS1_ESaIS4_EE10_Auto_nodeD2Ev
FN:1641,_ZNSt8_Rb_treeIN5Moose7ElemArgESt4pairIKS1_dESt10_Select1stIS4_ESt4lessIS1_ESaIS4_EE10_Auto_nodeD2Ev
FNDA:0,_ZNSt8_Rb_treeIN5Moose7ElemArgESt4pairIKS1_dESt10_Select1stIS4_ESt4lessIS1_ESaIS4_EE10_Auto_nodeD2Ev
FN:1641,_ZNSt8_Rb_treeIN5Moose7FaceArgESt4pairIKS1_N11MetaPhysicL10DualNumberIdNS4_28SemiDynamicSparseNumberArrayIdmNS4_8NWrapperILm64EEEEELb1EEEESt10_Select1stISB_ESt4lessIS1_ESaISB_EE10_Auto_nodeD2Ev
FNDA:0,_ZNSt8_Rb_treeIN5Moose7FaceArgESt4pairIKS1_N11MetaPhysicL10DualNumberIdNS4_28SemiDynamicSparseNumberArrayIdmNS4_8NWrapperILm64EEEEELb1EEEESt10_Select1stISB_ESt4lessIS1_ESaISB_EE10_Auto_nodeD2Ev
FN:1641,_ZNSt8_Rb_treeINSt7__cxx1112basic_stringIcSt11char_traitsIcESaIcEEESt4pairIKS5_N15InputParameters8MetadataEESt10_Select1stISA_ESt4lessIS5_ESaISA_EE10_Auto_nodeD2Ev
FNDA:0,_ZNSt8_Rb_treeINSt7__cxx1112basic_stringIcSt11char_traitsIcESaIcEEESt4pairIKS5_N15InputParameters8MetadataEESt10_Select1stISA_ESt4lessIS5_ESaISA_EE10_Auto_nodeD2Ev
FN:1641,_ZNSt8_Rb_treeIN5Moose7ElemArgESt4pairIKS1_N11MetaPhysicL10DualNumberIdNS4_28SemiDynamicSparseNumberArrayIdmNS4_8NWrapperILm64EEEEELb1EEEESt10_Select1stISB_ESt4lessIS1_ESaISB_EE10_Auto_nodeD2Ev
FNDA:0,_ZNSt8_Rb_treeIN5Moose7ElemArgESt4pairIKS1_N11MetaPhysicL10DualNumberIdNS4_28SemiDynamicSparseNumberArrayIdmNS4_8NWrapperILm64EEEEELb1EEEESt10_Select1stISB_ESt4lessIS1_ESaISB_EE10_Auto_nodeD2Ev
FN:1656,_ZNSt8_Rb_treeINSt7__cxx1112basic_stringIcSt11char_traitsIcESaIcEEESt4pairIKS5_St6vectorISt10shared_ptrI17RegistryEntryBaseESaISB_EEESt10_Select1stISE_ESt4lessIS5_ESaISE_EE10_Auto_node9_M_insertES6_IPSt18_Rb_tree_node_baseSN_E
FNDA:0,_ZNSt8_Rb_treeINSt7__cxx1112basic_stringIcSt11char_traitsIcESaIcEEESt4pairIKS5_St6vectorISt10shared_ptrI17RegistryEntryBaseESaISB_EEESt10_Select1stISE_ESt4lessIS5_ESaISE_EE10_Auto_node9_M_insertES6_IPSt18_Rb_tree_node_baseSN_E
FN:1656,_ZNSt8_Rb_treeINSt7__cxx1112basic_stringIcSt11char_traitsIcESaIcEEESt4pairIKS5_St10unique_ptrIN7libMesh10Parameters5ValueESt14default_deleteISB_EEESt10_Select1stISF_ESt4lessIvESaISF_EE10_Auto_node9_M_insertES6_IPSt18_Rb_tree_node_baseSO_E
FNDA:0,_ZNSt8_Rb_treeINSt7__cxx1112basic_stringIcSt11char_traitsIcESaIcEEESt4pairIKS5_St10unique_ptrIN7libMesh10Parameters5ValueESt14default_deleteISB_EEESt10_Select1stISF_ESt4lessIvESaISF_EE10_Auto_node9_M_insertES6_IPSt18_Rb_tree_node_baseSO_E
FN:1656,_ZNSt8_Rb_treeIN5Moose7ElemArgESt4pairIKS1_dESt10_Select1stIS4_ESt4lessIS1_ESaIS4_EE10_Auto_node9_M_insertES2_IPSt18_Rb_tree_node_baseSD_E
FNDA:0,_ZNSt8_Rb_treeIN5Moose7ElemArgESt4pairIKS1_dESt10_Select1stIS4_ESt4lessIS1_ESaIS4_EE10_Auto_node9_M_insertES2_IPSt18_Rb_tree_node_baseSD_E
FN:1656,_ZNSt8_Rb_treeIN5Moose7FaceArgESt4pairIKS1_dESt10_Select1stIS4_ESt4lessIS1_ESaIS4_EE10_Auto_node9_M_insertES2_IPSt18_Rb_tree_node_baseSD_E
FNDA:0,_ZNSt8_Rb_treeIN5Moose7FaceArgESt4pairIKS1_dESt10_Select1stIS4_ESt4lessIS1_ESaIS4_EE10_Auto_node9_M_insertES2_IPSt18_Rb_tree_node_baseSD_E
FN:1656,_ZNSt8_Rb_treeINSt7__cxx1112basic_stringIcSt11char_traitsIcESaIcEEESt4pairIKS5_S5_ESt10_Select1stIS8_ESt4lessIS5_ESaIS8_EE10_Auto_node9_M_insertES6_IPSt18_Rb_tree_node_baseSH_E
FNDA:0,_ZNSt8_Rb_treeINSt7__cxx1112basic_stringIcSt11char_traitsIcESaIcEEESt4pairIKS5_S5_ESt10_Select1stIS8_ESt4lessIS5_ESaIS8_EE10_Auto_node9_M_insertES6_IPSt18_Rb_tree_node_baseSH_E
FN:1656,_ZNSt8_Rb_treeINSt7__cxx1112basic_stringIcSt11char_traitsIcESaIcEEESt4pairIKS5_N15InputParameters8MetadataEESt10_Select1stISA_ESt4lessIS5_ESaISA_EE10_Auto_node9_M_insertES6_IPSt18_Rb_tree_node_baseSJ_E
FNDA:0,_ZNSt8_Rb_treeINSt7__cxx1112basic_stringIcSt11char_traitsIcESaIcEEESt4pairIKS5_N15InputParameters8MetadataEESt10_Select1stISA_ESt4lessIS5_ESaISA_EE10_Auto_node9_M_insertES6_IPSt18_Rb_tree_node_baseSJ_E
FN:1656,_ZNSt8_Rb_treeIN5Moose7FaceArgESt4pairIKS1_N11MetaPhysicL10DualNumberIdNS4_28SemiDynamicSparseNumberArrayIdmNS4_8NWrapperILm64EEEEELb1EEEESt10_Select1stISB_ESt4lessIS1_ESaISB_EE10_Auto_node9_M_insertES2_IPSt18_Rb_tree_node_baseSK_E
FNDA:0,_ZNSt8_Rb_treeIN5Moose7FaceArgESt4pairIKS1_N11MetaPhysicL10DualNumberIdNS4_28SemiDynamicSparseNumberArrayIdmNS4_8NWrapperILm64EEEEELb1EEEESt10_Select1stISB_ESt4lessIS1_ESaISB_EE10_Auto_node9_M_insertES2_IPSt18_Rb_tree_node_baseSK_E
FN:1656,_ZNSt8_Rb_treeIN5Moose7ElemArgESt4pairIKS1_N11MetaPhysicL10DualNumberIdNS4_28SemiDynamicSparseNumberArrayIdmNS4_8NWrapperILm64EEEEELb1EEEESt10_Select1stISB_ESt4lessIS1_ESaISB_EE10_Auto_node9_M_insertES2_IPSt18_Rb_tree_node_baseSK_E
FNDA:0,_ZNSt8_Rb_treeIN5Moose7ElemArgESt4pairIKS1_N11MetaPhysicL10DualNumberIdNS4_28SemiDynamicSparseNumberArrayIdmNS4_8NWrapperILm64EEEEELb1EEEESt10_Select1stISB_ESt4lessIS1_ESaISB_EE10_Auto_node9_M_insertES2_IPSt18_Rb_tree_node_baseSK_E
FN:1931,_ZNSt8_Rb_treeINSt7__cxx1112basic_stringIcSt11char_traitsIcESaIcEEES5_St9_IdentityIS5_ESt4lessIS5_ESaIS5_EE8_M_eraseEPSt13_Rb_tree_nodeIS5_E
FNDA:0,_ZNSt8_Rb_treeINSt7__cxx1112basic_stringIcSt11char_traitsIcESaIcEEES5_St9_IdentityIS5_ESt4lessIS5_ESaIS5_EE8_M_eraseEPSt13_Rb_tree_nodeIS5_E
FN:1931,_ZNSt8_Rb_treeI13MooseEnumItemS0_St9_IdentityIS0_ESt4lessIS0_ESaIS0_EE8_M_eraseEPSt13_Rb_tree_nodeIS0_E
FNDA:872,_ZNSt8_Rb_treeI13MooseEnumItemS0_St9_IdentityIS0_ESt4lessIS0_ESaIS0_EE8_M_eraseEPSt13_Rb_tree_nodeIS0_E
FN:1931,_ZNSt8_Rb_treeI13MooseEnumItemSt4pairIKS0_NSt7__cxx1112basic_stringIcSt11char_traitsIcESaIcEEEESt10_Select1stIS9_ESt4lessIS0_ESaIS9_EE8_M_eraseEPSt13_Rb_tree_nodeIS9_E
FNDA:218,_ZNSt8_Rb_treeI13MooseEnumItemSt4pairIKS0_NSt7__cxx1112basic_stringIcSt11char_traitsIcESaIcEEEESt10_Select1stIS9_ESt4lessIS0_ESaIS9_EE8_M_eraseEPSt13_Rb_tree_nodeIS9_E
FN:1931,_ZNSt8_Rb_treeIssSt9_IdentityIsESt4lessIsESaIsEE8_M_eraseEPSt13_Rb_tree_nodeIsE
FNDA:0,_ZNSt8_Rb_treeIssSt9_IdentityIsESt4lessIsESaIsEE8_M_eraseEPSt13_Rb_tree_nodeIsE
FN:1931,_ZNSt8_Rb_treeINSt7__cxx1112basic_stringIcSt11char_traitsIcESaIcEEESt4pairIKS5_S5_ESt10_Select1stIS8_ESt4lessIS5_ESaIS8_EE8_M_eraseEPSt13_Rb_tree_nodeIS8_E
FNDA:0,_ZNSt8_Rb_treeINSt7__cxx1112basic_stringIcSt11char_traitsIcESaIcEEESt4pairIKS5_S5_ESt10_Select1stIS8_ESt4lessIS5_ESaIS8_EE8_M_eraseEPSt13_Rb_tree_nodeIS8_E
FN:1931,_ZNSt8_Rb_treeINSt7__cxx1112basic_stringIcSt11char_traitsIcESaIcEEESt4pairIKS5_S6_IS5_S5_EESt10_Select1stIS9_ESt4lessIS5_ESaIS9_EE8_M_eraseEPSt13_Rb_tree_nodeIS9_E
FNDA:0,_ZNSt8_Rb_treeINSt7__cxx1112basic_stringIcSt11char_traitsIcESaIcEEESt4pairIKS5_S6_IS5_S5_EESt10_Select1stIS9_ESt4lessIS5_ESaIS9_EE8_M_eraseEPSt13_Rb_tree_nodeIS9_E
FN:1931,_ZNSt8_Rb_treeIttSt9_IdentityItESt4lessItESaItEE8_M_eraseEPSt13_Rb_tree_nodeItE
FNDA:0,_ZNSt8_Rb_treeIttSt9_IdentityItESt4lessItESaItEE8_M_eraseEPSt13_Rb_tree_nodeItE
FN:1931,_ZNSt8_Rb_treeI13MooseEnumItemSt4pairIKS0_S0_ESt10_Select1stIS3_ESt4lessIS0_ESaIS3_EE8_M_eraseEPSt13_Rb_tree_nodeIS3_E
FNDA:218,_ZNSt8_Rb_treeI13MooseEnumItemSt4pairIKS0_S0_ESt10_Select1stIS3_ESt4lessIS0_ESaIS3_EE8_M_eraseEPSt13_Rb_tree_nodeIS3_E
FN:1931,_ZNSt8_Rb_treeINSt7__cxx1112basic_stringIcSt11char_traitsIcESaIcEEESt4pairIKS5_St10unique_ptrIN7libMesh10Parameters5ValueESt14default_deleteISB_EEESt10_Select1stISF_ESt4lessIvESaISF_EE8_M_eraseEPSt13_Rb_tree_nodeISF_E
FNDA:0,_ZNSt8_Rb_treeINSt7__cxx1112basic_stringIcSt11char_traitsIcESaIcEEESt4pairIKS5_St10unique_ptrIN7libMesh10Parameters5ValueESt14default_deleteISB_EEESt10_Select1stISF_ESt4lessIvESaISF_EE8_M_eraseEPSt13_Rb_tree_nodeISF_E
FN:1931,_ZNSt8_Rb_treeIP22MooseVariableFieldBaseS1_St9_IdentityIS1_ESt4lessIS1_ESaIS1_EE8_M_eraseEPSt13_Rb_tree_nodeIS1_E
FNDA:100,_ZNSt8_Rb_treeIP22MooseVariableFieldBaseS1_St9_IdentityIS1_ESt4lessIS1_ESaIS1_EE8_M_eraseEPSt13_Rb_tree_nodeIS1_E
FN:1931,_ZNSt8_Rb_treeIP18MooseVariableFieldIdES2_St9_IdentityIS2_ESt4lessIS2_ESaIS2_EE8_M_eraseEPSt13_Rb_tree_nodeIS2_E
FNDA:0,_ZNSt8_Rb_treeIP18MooseVariableFieldIdES2_St9_IdentityIS2_ESt4lessIS2_ESaIS2_EE8_M_eraseEPSt13_Rb_tree_nodeIS2_E
FN:1931,_ZNSt8_Rb_treeIN5Moose7ElemArgESt4pairIKS1_dESt10_Select1stIS4_ESt4lessIS1_ESaIS4_EE8_M_eraseEPSt13_Rb_tree_nodeIS4_E
FNDA:0,_ZNSt8_Rb_treeIN5Moose7ElemArgESt4pairIKS1_dESt10_Select1stIS4_ESt4lessIS1_ESaIS4_EE8_M_eraseEPSt13_Rb_tree_nodeIS4_E
FN:1931,_ZNSt8_Rb_treeIN5Moose7FaceArgESt4pairIKS1_dESt10_Select1stIS4_ESt4lessIS1_ESaIS4_EE8_M_eraseEPSt13_Rb_tree_nodeIS4_E
FNDA:0,_ZNSt8_Rb_treeIN5Moose7FaceArgESt4pairIKS1_dESt10_Select1stIS4_ESt4lessIS1_ESaIS4_EE8_M_eraseEPSt13_Rb_tree_nodeIS4_E
FN:1931,_ZNSt8_Rb_treeIN5Moose7NodeArgESt4pairIKS1_dESt10_Select1stIS4_ESt4lessIS1_ESaIS4_EE8_M_eraseEPSt13_Rb_tree_nodeIS4_E
FNDA:0,_ZNSt8_Rb_treeIN5Moose7NodeArgESt4pairIKS1_dESt10_Select1stIS4_ESt4lessIS1_ESaIS4_EE8_M_eraseEPSt13_Rb_tree_nodeIS4_E
FN:1931,_ZNSt8_Rb_treeIN5Moose7ElemArgESt4pairIKS1_N11MetaPhysicL10DualNumberIdNS4_28SemiDynamicSparseNumberArrayIdmNS4_8NWrapperILm64EEEEELb1EEEESt10_Select1stISB_ESt4lessIS1_ESaISB_EE8_M_eraseEPSt13_Rb_tree_nodeISB_E
FNDA:0,_ZNSt8_Rb_treeIN5Moose7ElemArgESt4pairIKS1_N11MetaPhysicL10DualNumberIdNS4_28SemiDynamicSparseNumberArrayIdmNS4_8NWrapperILm64EEEEELb1EEEESt10_Select1stISB_ESt4lessIS1_ESaISB_EE8_M_eraseEPSt13_Rb_tree_nodeISB_E
FN:1931,_ZNSt8_Rb_treeIN5Moose7FaceArgESt4pairIKS1_N11MetaPhysicL10DualNumberIdNS4_28SemiDynamicSparseNumberArrayIdmNS4_8NWrapperILm64EEEEELb1EEEESt10_Select1stISB_ESt4lessIS1_ESaISB_EE8_M_eraseEPSt13_Rb_tree_nodeISB_E
FNDA:0,_ZNSt8_Rb_treeIN5Moose7FaceArgESt4pairIKS1_N11MetaPhysicL10DualNumberIdNS4_28SemiDynamicSparseNumberArrayIdmNS4_8NWrapperILm64EEEEELb1EEEESt10_Select1stISB_ESt4lessIS1_ESaISB_EE8_M_eraseEPSt13_Rb_tree_nodeISB_E
FN:1931,_ZNSt8_Rb_treeIjjSt9_IdentityIjESt4lessIjESaIjEE8_M_eraseEPSt13_Rb_tree_nodeIjE
FNDA:0,_ZNSt8_Rb_treeIjjSt9_IdentityIjESt4lessIjESaIjEE8_M_eraseEPSt13_Rb_tree_nodeIjE
FN:1931,_ZNSt8_Rb_treeIN5Moose7NodeArgESt4pairIKS1_N11MetaPhysicL10DualNumberIdNS4_28SemiDynamicSparseNumberArrayIdmNS4_8NWrapperILm64EEEEELb1EEEESt10_Select1stISB_ESt4lessIS1_ESaISB_EE8_M_eraseEPSt13_Rb_tree_nodeISB_E
FNDA:0,_ZNSt8_Rb_treeIN5Moose7NodeArgESt4pairIKS1_N11MetaPhysicL10DualNumberIdNS4_28SemiDynamicSparseNumberArrayIdmNS4_8NWrapperILm64EEEEELb1EEEESt10_Select1stISB_ESt4lessIS1_ESaISB_EE8_M_eraseEPSt13_Rb_tree_nodeISB_E
FN:1931,_ZNSt8_Rb_treeINSt7__cxx1112basic_stringIcSt11char_traitsIcESaIcEEESt4pairIKS5_N15InputParameters8MetadataEESt10_Select1stISA_ESt4lessIS5_ESaISA_EE8_M_eraseEPSt13_Rb_tree_nodeISA_E
FNDA:0,_ZNSt8_Rb_treeINSt7__cxx1112basic_stringIcSt11char_traitsIcESaIcEEESt4pairIKS5_N15InputParameters8MetadataEESt10_Select1stISA_ESt4lessIS5_ESaISA_EE8_M_eraseEPSt13_Rb_tree_nodeISA_E
FN:1931,_ZNSt8_Rb_treeI17PostprocessorNameSt4pairIKS0_St10unique_ptrIdSt14default_deleteIdEEESt10_Select1stIS7_ESt4lessIS0_ESaIS7_EE8_M_eraseEPSt13_Rb_tree_nodeIS7_E
FNDA:0,_ZNSt8_Rb_treeI17PostprocessorNameSt4pairIKS0_St10unique_ptrIdSt14default_deleteIdEEESt10_Select1stIS7_ESt4lessIS0_ESaIS7_EE8_M_eraseEPSt13_Rb_tree_nodeIS7_E
FN:1948,_ZNSt8_Rb_treeIN5Moose7ElemArgESt4pairIKS1_N11MetaPhysicL10DualNumberIdNS4_28SemiDynamicSparseNumberArrayIdmNS4_8NWrapperILm64EEEEELb1EEEESt10_Select1stISB_ESt4lessIS1_ESaISB_EE14_M_lower_boundEPSt13_Rb_tree_nodeISB_EPSt18_Rb_tree_node_baseRS3_
FNDA:0,_ZNSt8_Rb_treeIN5Moose7ElemArgESt4pairIKS1_N11MetaPhysicL10DualNumberIdNS4_28SemiDynamicSparseNumberArrayIdmNS4_8NWrapperILm64EEEEELb1EEEESt10_Select1stISB_ESt4lessIS1_ESaISB_EE14_M_lower_boundEPSt13_Rb_tree_nodeISB_EPSt18_Rb_tree_node_baseRS3_
FN:1948,_ZNSt8_Rb_treeINSt7__cxx1112basic_stringIcSt11char_traitsIcESaIcEEESt4pairIKS5_N15InputParameters8MetadataEESt10_Select1stISA_ESt4lessIS5_ESaISA_EE14_M_lower_boundEPSt13_Rb_tree_nodeISA_EPSt18_Rb_tree_node_baseRS7_
FNDA:0,_ZNSt8_Rb_treeINSt7__cxx1112basic_stringIcSt11char_traitsIcESaIcEEESt4pairIKS5_N15InputParameters8MetadataEESt10_Select1stISA_ESt4lessIS5_ESaISA_EE14_M_lower_boundEPSt13_Rb_tree_nodeISA_EPSt18_Rb_tree_node_baseRS7_
FN:1948,_ZNSt8_Rb_treeIN5Moose7ElemArgESt4pairIKS1_dESt10_Select1stIS4_ESt4lessIS1_ESaIS4_EE14_M_lower_boundEPSt13_Rb_tree_nodeIS4_EPSt18_Rb_tree_node_baseRS3_
FNDA:0,_ZNSt8_Rb_treeIN5Moose7ElemArgESt4pairIKS1_dESt10_Select1stIS4_ESt4lessIS1_ESaIS4_EE14_M_lower_boundEPSt13_Rb_tree_nodeIS4_EPSt18_Rb_tree_node_baseRS3_
FN:1948,_ZNSt8_Rb_treeIN5Moose7FaceArgESt4pairIKS1_N11MetaPhysicL10DualNumberIdNS4_28SemiDynamicSparseNumberArrayIdmNS4_8NWrapperILm64EEEEELb1EEEESt10_Select1stISB_ESt4lessIS1_ESaISB_EE14_M_lower_boundEPSt13_Rb_tree_nodeISB_EPSt18_Rb_tree_node_baseRS3_
FNDA:0,_ZNSt8_Rb_treeIN5Moose7FaceArgESt4pairIKS1_N11MetaPhysicL10DualNumberIdNS4_28SemiDynamicSparseNumberArrayIdmNS4_8NWrapperILm64EEEEELb1EEEESt10_Select1stISB_ESt4lessIS1_ESaISB_EE14_M_lower_boundEPSt13_Rb_tree_nodeISB_EPSt18_Rb_tree_node_baseRS3_
FN:1948,_ZNSt8_Rb_treeINSt7__cxx1112basic_stringIcSt11char_traitsIcESaIcEEESt4pairIKS5_St10unique_ptrIN7libMesh10Parameters5ValueESt14default_deleteISB_EEESt10_Select1stISF_ESt4lessIvESaISF_EE14_M_lower_boundEPSt13_Rb_tree_nodeISF_EPSt18_Rb_tree_node_baseRS7_
FNDA:0,_ZNSt8_Rb_treeINSt7__cxx1112basic_stringIcSt11char_traitsIcESaIcEEESt4pairIKS5_St10unique_ptrIN7libMesh10Parameters5ValueESt14default_deleteISB_EEESt10_Select1stISF_ESt4lessIvESaISF_EE14_M_lower_boundEPSt13_Rb_tree_nodeISF_EPSt18_Rb_tree_node_baseRS7_
FN:1948,_ZNSt8_Rb_treeINSt7__cxx1112basic_stringIcSt11char_traitsIcESaIcEEESt4pairIKS5_St6vectorISt10shared_ptrI17RegistryEntryBaseESaISB_EEESt10_Select1stISE_ESt4lessIS5_ESaISE_EE14_M_lower_boundEPSt13_Rb_tree_nodeISE_EPSt18_Rb_tree_node_baseRS7_
FNDA:0,_ZNSt8_Rb_treeINSt7__cxx1112basic_stringIcSt11char_traitsIcESaIcEEESt4pairIKS5_St6vectorISt10shared_ptrI17RegistryEntryBaseESaISB_EEESt10_Select1stISE_ESt4lessIS5_ESaISE_EE14_M_lower_boundEPSt13_Rb_tree_nodeISE_EPSt18_Rb_tree_node_baseRS7_
FN:1948,_ZNSt8_Rb_treeIN5Moose7FaceArgESt4pairIKS1_dESt10_Select1stIS4_ESt4lessIS1_ESaIS4_EE14_M_lower_boundEPSt13_Rb_tree_nodeIS4_EPSt18_Rb_tree_node_baseRS3_
FNDA:0,_ZNSt8_Rb_treeIN5Moose7FaceArgESt4pairIKS1_dESt10_Select1stIS4_ESt4lessIS1_ESaIS4_EE14_M_lower_boundEPSt13_Rb_tree_nodeIS4_EPSt18_Rb_tree_node_baseRS3_
FN:1948,_ZNSt8_Rb_treeINSt7__cxx1112basic_stringIcSt11char_traitsIcESaIcEEESt4pairIKS5_S5_ESt10_Select1stIS8_ESt4lessIS5_ESaIS8_EE14_M_lower_boundEPSt13_Rb_tree_nodeIS8_EPSt18_Rb_tree_node_baseRS7_
FNDA:0,_ZNSt8_Rb_treeINSt7__cxx1112basic_stringIcSt11char_traitsIcESaIcEEESt4pairIKS5_S5_ESt10_Select1stIS8_ESt4lessIS5_ESaIS8_EE14_M_lower_boundEPSt13_Rb_tree_nodeIS8_EPSt18_Rb_tree_node_baseRS7_
FN:1964,_ZNKSt8_Rb_treeI13MooseEnumItemS0_St9_IdentityIS0_ESt4lessIS0_ESaIS0_EE14_M_lower_boundEPKSt13_Rb_tree_nodeIS0_EPKSt18_Rb_tree_node_baseRKS0_
FNDA:0,_ZNKSt8_Rb_treeI13MooseEnumItemS0_St9_IdentityIS0_ESt4lessIS0_ESaIS0_EE14_M_lower_boundEPKSt13_Rb_tree_nodeIS0_EPKSt18_Rb_tree_node_baseRKS0_
FN:1964,_ZNKSt8_Rb_treeINSt7__cxx1112basic_stringIcSt11char_traitsIcESaIcEEESt4pairIKS5_St10unique_ptrIN7libMesh10Parameters5ValueESt14default_deleteISB_EEESt10_Select1stISF_ESt4lessIvESaISF_EE14_M_lower_boundEPKSt13_Rb_tree_nodeISF_EPKSt18_Rb_tree_node_baseRS7_
FNDA:0,_ZNKSt8_Rb_treeINSt7__cxx1112basic_stringIcSt11char_traitsIcESaIcEEESt4pairIKS5_St10unique_ptrIN7libMesh10Parameters5ValueESt14default_deleteISB_EEESt10_Select1stISF_ESt4lessIvESaISF_EE14_M_lower_boundEPKSt13_Rb_tree_nodeISF_EPKSt18_Rb_tree_node_baseRS7_
FN:2109,_ZNSt8_Rb_treeINSt7__cxx1112basic_stringIcSt11char_traitsIcESaIcEEESt4pairIKS5_St10unique_ptrIN7libMesh10Parameters5ValueESt14default_deleteISB_EEESt10_Select1stISF_ESt4lessIvESaISF_EE24_M_get_insert_unique_posERS7_
FNDA:0,_ZNSt8_Rb_treeINSt7__cxx1112basic_stringIcSt11char_traitsIcESaIcEEESt4pairIKS5_St10unique_ptrIN7libMesh10Parameters5ValueESt14default_deleteISB_EEESt10_Select1stISF_ESt4lessIvESaISF_EE24_M_get_insert_unique_posERS7_
FN:2109,_ZNSt8_Rb_treeIN5Moose7FaceArgESt4pairIKS1_dESt10_Select1stIS4_ESt4lessIS1_ESaIS4_EE24_M_get_insert_unique_posERS3_
FNDA:0,_ZNSt8_Rb_treeIN5Moose7FaceArgESt4pairIKS1_dESt10_Select1stIS4_ESt4lessIS1_ESaIS4_EE24_M_get_insert_unique_posERS3_
FN:2109,_ZNSt8_Rb_treeINSt7__cxx1112basic_stringIcSt11char_traitsIcESaIcEEESt4pairIKS5_N15InputParameters8MetadataEESt10_Select1stISA_ESt4lessIS5_ESaISA_EE24_M_get_insert_unique_posERS7_
FNDA:0,_ZNSt8_Rb_treeINSt7__cxx1112basic_stringIcSt11char_traitsIcESaIcEEESt4pairIKS5_N15InputParameters8MetadataEESt10_Select1stISA_ESt4lessIS5_ESaISA_EE24_M_get_insert_unique_posERS7_
FN:2109,_ZNSt8_Rb_treeIN5Moose7ElemArgESt4pairIKS1_N11MetaPhysicL10DualNumberIdNS4_28SemiDynamicSparseNumberArrayIdmNS4_8NWrapperILm64EEEEELb1EEEESt10_Select1stISB_ESt4lessIS1_ESaISB_EE24_M_get_insert_unique_posERS3_
FNDA:0,_ZNSt8_Rb_treeIN5Moose7ElemArgESt4pairIKS1_N11MetaPhysicL10DualNumberIdNS4_28SemiDynamicSparseNumberArrayIdmNS4_8NWrapperILm64EEEEELb1EEEESt10_Select1stISB_ESt4lessIS1_ESaISB_EE24_M_get_insert_unique_posERS3_
FN:2109,_ZNSt8_Rb_treeINSt7__cxx1112basic_stringIcSt11char_traitsIcESaIcEEESt4pairIKS5_S5_ESt10_Select1stIS8_ESt4lessIS5_ESaIS8_EE24_M_get_insert_unique_posERS7_
FNDA:0,_ZNSt8_Rb_treeINSt7__cxx1112basic_stringIcSt11char_traitsIcESaIcEEESt4pairIKS5_S5_ESt10_Select1stIS8_ESt4lessIS5_ESaIS8_EE24_M_get_insert_unique_posERS7_
FN:2109,_ZNSt8_Rb_treeIN5Moose7FaceArgESt4pairIKS1_N11MetaPhysicL10DualNumberIdNS4_28SemiDynamicSparseNumberArrayIdmNS4_8NWrapperILm64EEEEELb1EEEESt10_Select1stISB_ESt4lessIS1_ESaISB_EE24_M_get_insert_unique_posERS3_
FNDA:0,_ZNSt8_Rb_treeIN5Moose7FaceArgESt4pairIKS1_N11MetaPhysicL10DualNumberIdNS4_28SemiDynamicSparseNumberArrayIdmNS4_8NWrapperILm64EEEEELb1EEEESt10_Select1stISB_ESt4lessIS1_ESaISB_EE24_M_get_insert_unique_posERS3_
FN:2109,_ZNSt8_Rb_treeINSt7__cxx1112basic_stringIcSt11char_traitsIcESaIcEEESt4pairIKS5_St6vectorISt10shared_ptrI17RegistryEntryBaseESaISB_EEESt10_Select1stISE_ESt4lessIS5_ESaISE_EE24_M_get_insert_unique_posERS7_
FNDA:0,_ZNSt8_Rb_treeINSt7__cxx1112basic_stringIcSt11char_traitsIcESaIcEEESt4pairIKS5_St6vectorISt10shared_ptrI17RegistryEntryBaseESaISB_EEESt10_Select1stISE_ESt4lessIS5_ESaISE_EE24_M_get_insert_unique_posERS7_
FN:2109,_ZNSt8_Rb_treeIN5Moose7ElemArgESt4pairIKS1_dESt10_Select1stIS4_ESt4lessIS1_ESaIS4_EE24_M_get_insert_unique_posERS3_
FNDA:0,_ZNSt8_Rb_treeIN5Moose7ElemArgESt4pairIKS1_dESt10_Select1stIS4_ESt4lessIS1_ESaIS4_EE24_M_get_insert_unique_posERS3_
FN:2211,_ZNSt8_Rb_treeINSt7__cxx1112basic_stringIcSt11char_traitsIcESaIcEEESt4pairIKS5_S5_ESt10_Select1stIS8_ESt4lessIS5_ESaIS8_EE29_M_get_insert_hint_unique_posESt23_Rb_tree_const_iteratorIS8_ERS7_
FNDA:0,_ZNSt8_Rb_treeINSt7__cxx1112basic_stringIcSt11char_traitsIcESaIcEEESt4pairIKS5_S5_ESt10_Select1stIS8_ESt4lessIS5_ESaIS8_EE29_M_get_insert_hint_unique_posESt23_Rb_tree_const_iteratorIS8_ERS7_
FN:2211,_ZNSt8_Rb_treeINSt7__cxx1112basic_stringIcSt11char_traitsIcESaIcEEESt4pairIKS5_St6vectorISt10shared_ptrI17RegistryEntryBaseESaISB_EEESt10_Select1stISE_ESt4lessIS5_ESaISE_EE29_M_get_insert_hint_unique_posESt23_Rb_tree_const_iteratorISE_ERS7_
FNDA:0,_ZNSt8_Rb_treeINSt7__cxx1112basic_stringIcSt11char_traitsIcESaIcEEESt4pairIKS5_St6vectorISt10shared_ptrI17RegistryEntryBaseESaISB_EEESt10_Select1stISE_ESt4lessIS5_ESaISE_EE29_M_get_insert_hint_unique_posESt23_Rb_tree_const_iteratorISE_ERS7_
FN:2211,_ZNSt8_Rb_treeINSt7__cxx1112basic_stringIcSt11char_traitsIcESaIcEEESt4pairIKS5_N15InputParameters8MetadataEESt10_Select1stISA_ESt4lessIS5_ESaISA_EE29_M_get_insert_hint_unique_posESt23_Rb_tree_const_iteratorISA_ERS7_
FNDA:0,_ZNSt8_Rb_treeINSt7__cxx1112basic_stringIcSt11char_traitsIcESaIcEEESt4pairIKS5_N15InputParameters8MetadataEESt10_Select1stISA_ESt4lessIS5_ESaISA_EE29_M_get_insert_hint_unique_posESt23_Rb_tree_const_iteratorISA_ERS7_
FN:2211,_ZNSt8_Rb_treeIN5Moose7FaceArgESt4pairIKS1_dESt10_Select1stIS4_ESt4lessIS1_ESaIS4_EE29_M_get_insert_hint_unique_posESt23_Rb_tree_const_iteratorIS4_ERS3_
FNDA:0,_ZNSt8_Rb_treeIN5Moose7FaceArgESt4pairIKS1_dESt10_Select1stIS4_ESt4lessIS1_ESaIS4_EE29_M_get_insert_hint_unique_posESt23_Rb_tree_const_iteratorIS4_ERS3_
FN:2211,_ZNSt8_Rb_treeIN5Moose7ElemArgESt4pairIKS1_dESt10_Select1stIS4_ESt4lessIS1_ESaIS4_EE29_M_get_insert_hint_unique_posESt23_Rb_tree_const_iteratorIS4_ERS3_
FNDA:0,_ZNSt8_Rb_treeIN5Moose7ElemArgESt4pairIKS1_dESt10_Select1stIS4_ESt4lessIS1_ESaIS4_EE29_M_get_insert_hint_unique_posESt23_Rb_tree_const_iteratorIS4_ERS3_
FN:2211,_ZNSt8_Rb_treeIN5Moose7FaceArgESt4pairIKS1_N11MetaPhysicL10DualNumberIdNS4_28SemiDynamicSparseNumberArrayIdmNS4_8NWrapperILm64EEEEELb1EEEESt10_Select1stISB_ESt4lessIS1_ESaISB_EE29_M_get_insert_hint_unique_posESt23_Rb_tree_const_iteratorISB_ERS3_
FNDA:0,_ZNSt8_Rb_treeIN5Moose7FaceArgESt4pairIKS1_N11MetaPhysicL10DualNumberIdNS4_28SemiDynamicSparseNumberArrayIdmNS4_8NWrapperILm64EEEEELb1EEEESt10_Select1stISB_ESt4lessIS1_ESaISB_EE29_M_get_insert_hint_unique_posESt23_Rb_tree_const_iteratorISB_ERS3_
FN:2211,_ZNSt8_Rb_treeIN5Moose7ElemArgESt4pairIKS1_N11MetaPhysicL10DualNumberIdNS4_28SemiDynamicSparseNumberArrayIdmNS4_8NWrapperILm64EEEEELb1EEEESt10_Select1stISB_ESt4lessIS1_ESaISB_EE29_M_get_insert_hint_unique_posESt23_Rb_tree_const_iteratorISB_ERS3_
FNDA:0,_ZNSt8_Rb_treeIN5Moose7ElemArgESt4pairIKS1_N11MetaPhysicL10DualNumberIdNS4_28SemiDynamicSparseNumberArrayIdmNS4_8NWrapperILm64EEEEELb1EEEESt10_Select1stISB_ESt4lessIS1_ESaISB_EE29_M_get_insert_hint_unique_posESt23_Rb_tree_const_iteratorISB_ERS3_
FN:2211,_ZNSt8_Rb_treeINSt7__cxx1112basic_stringIcSt11char_traitsIcESaIcEEESt4pairIKS5_St10unique_ptrIN7libMesh10Parameters5ValueESt14default_deleteISB_EEESt10_Select1stISF_ESt4lessIvESaISF_EE29_M_get_insert_hint_unique_posESt23_Rb_tree_const_iteratorISF_ERS7_
FNDA:0,_ZNSt8_Rb_treeINSt7__cxx1112basic_stringIcSt11char_traitsIcESaIcEEESt4pairIKS5_St10unique_ptrIN7libMesh10Parameters5ValueESt14default_deleteISB_EEESt10_Select1stISF_ESt4lessIvESaISF_EE29_M_get_insert_hint_unique_posESt23_Rb_tree_const_iteratorISF_ERS7_
FN:2378,_ZNSt8_Rb_treeIN5Moose7FaceArgESt4pairIKS1_N11MetaPhysicL10DualNumberIdNS4_28SemiDynamicSparseNumberArrayIdmNS4_8NWrapperILm64EEEEELb1EEEESt10_Select1stISB_ESt4lessIS1_ESaISB_EE14_M_insert_nodeEPSt18_Rb_tree_node_baseSJ_PSt13_Rb_tree_nodeISB_E
FNDA:0,_ZNSt8_Rb_treeIN5Moose7FaceArgESt4pairIKS1_N11MetaPhysicL10DualNumberIdNS4_28SemiDynamicSparseNumberArrayIdmNS4_8NWrapperILm64EEEEELb1EEEESt10_Select1stISB_ESt4lessIS1_ESaISB_EE14_M_insert_nodeEPSt18_Rb_tree_node_baseSJ_PSt13_Rb_tree_nodeISB_E
FN:2378,_ZNSt8_Rb_treeIN5Moose7ElemArgESt4pairIKS1_dESt10_Select1stIS4_ESt4lessIS1_ESaIS4_EE14_M_insert_nodeEPSt18_Rb_tree_node_baseSC_PSt13_Rb_tree_nodeIS4_E
FNDA:0,_ZNSt8_Rb_treeIN5Moose7ElemArgESt4pairIKS1_dESt10_Select1stIS4_ESt4lessIS1_ESaIS4_EE14_M_insert_nodeEPSt18_Rb_tree_node_baseSC_PSt13_Rb_tree_nodeIS4_E
FN:2378,_ZNSt8_Rb_treeINSt7__cxx1112basic_stringIcSt11char_traitsIcESaIcEEESt4pairIKS5_St10unique_ptrIN7libMesh10Parameters5ValueESt14default_deleteISB_EEESt10_Select1stISF_ESt4lessIvESaISF_EE14_M_insert_nodeEPSt18_Rb_tree_node_baseSN_PSt13_Rb_tree_nodeISF_E
FNDA:0,_ZNSt8_Rb_treeINSt7__cxx1112basic_stringIcSt11char_traitsIcESaIcEEESt4pairIKS5_St10unique_ptrIN7libMesh10Parameters5ValueESt14default_deleteISB_EEESt10_Select1stISF_ESt4lessIvESaISF_EE14_M_insert_nodeEPSt18_Rb_tree_node_baseSN_PSt13_Rb_tree_nodeISF_E
FN:2378,_ZNSt8_Rb_treeIN5Moose7ElemArgESt4pairIKS1_N11MetaPhysicL10DualNumberIdNS4_28SemiDynamicSparseNumberArrayIdmNS4_8NWrapperILm64EEEEELb1EEEESt10_Select1stISB_ESt4lessIS1_ESaISB_EE14_M_insert_nodeEPSt18_Rb_tree_node_baseSJ_PSt13_Rb_tree_nodeISB_E
FNDA:0,_ZNSt8_Rb_treeIN5Moose7ElemArgESt4pairIKS1_N11MetaPhysicL10DualNumberIdNS4_28SemiDynamicSparseNumberArrayIdmNS4_8NWrapperILm64EEEEELb1EEEESt10_Select1stISB_ESt4lessIS1_ESaISB_EE14_M_insert_nodeEPSt18_Rb_tree_node_baseSJ_PSt13_Rb_tree_nodeISB_E
FN:2378,_ZNSt8_Rb_treeIN5Moose7FaceArgESt4pairIKS1_dESt10_Select1stIS4_ESt4lessIS1_ESaIS4_EE14_M_insert_nodeEPSt18_Rb_tree_node_baseSC_PSt13_Rb_tree_nodeIS4_E
FNDA:0,_ZNSt8_Rb_treeIN5Moose7FaceArgESt4pairIKS1_dESt10_Select1stIS4_ESt4lessIS1_ESaIS4_EE14_M_insert_nodeEPSt18_Rb_tree_node_baseSC_PSt13_Rb_tree_nodeIS4_E
FN:2378,_ZNSt8_Rb_treeINSt7__cxx1112basic_stringIcSt11char_traitsIcESaIcEEESt4pairIKS5_S5_ESt10_Select1stIS8_ESt4lessIS5_ESaIS8_EE14_M_insert_nodeEPSt18_Rb_tree_node_baseSG_PSt13_Rb_tree_nodeIS8_E
FNDA:0,_ZNSt8_Rb_treeINSt7__cxx1112basic_stringIcSt11char_traitsIcESaIcEEESt4pairIKS5_S5_ESt10_Select1stIS8_ESt4lessIS5_ESaIS8_EE14_M_insert_nodeEPSt18_Rb_tree_node_baseSG_PSt13_Rb_tree_nodeIS8_E
FN:2378,_ZNSt8_Rb_treeINSt7__cxx1112basic_stringIcSt11char_traitsIcESaIcEEESt4pairIKS5_St6vectorISt10shared_ptrI17RegistryEntryBaseESaISB_EEESt10_Select1stISE_ESt4lessIS5_ESaISE_EE14_M_insert_nodeEPSt18_Rb_tree_node_baseSM_PSt13_Rb_tree_nodeISE_E
FNDA:0,_ZNSt8_Rb_treeINSt7__cxx1112basic_stringIcSt11char_traitsIcESaIcEEESt4pairIKS5_St6vectorISt10shared_ptrI17RegistryEntryBaseESaISB_EEESt10_Select1stISE_ESt4lessIS5_ESaISE_EE14_M_insert_nodeEPSt18_Rb_tree_node_baseSM_PSt13_Rb_tree_nodeISE_E
FN:2378,_ZNSt8_Rb_treeINSt7__cxx1112basic_stringIcSt11char_traitsIcESaIcEEESt4pairIKS5_N15InputParameters8MetadataEESt10_Select1stISA_ESt4lessIS5_ESaISA_EE14_M_insert_nodeEPSt18_Rb_tree_node_baseSI_PSt13_Rb_tree_nodeISA_E
FNDA:0,_ZNSt8_Rb_treeINSt7__cxx1112basic_stringIcSt11char_traitsIcESaIcEEESt4pairIKS5_N15InputParameters8MetadataEESt10_Select1stISA_ESt4lessIS5_ESaISA_EE14_M_insert_nodeEPSt18_Rb_tree_node_baseSI_PSt13_Rb_tree_nodeISA_E
FN:2459,_ZNSt8_Rb_treeIN5Moose7FaceArgESt4pairIKS1_dESt10_Select1stIS4_ESt4lessIS1_ESaIS4_EE22_M_emplace_hint_uniqueIJRKSt21piecewise_construct_tSt5tupleIJRS3_EESF_IJOdEEEEESt17_Rb_tree_iteratorIS4_ESt23_Rb_tree_const_iteratorIS4_EDpOT_
FNDA:0,_ZNSt8_Rb_treeIN5Moose7FaceArgESt4pairIKS1_dESt10_Select1stIS4_ESt4lessIS1_ESaIS4_EE22_M_emplace_hint_uniqueIJRKSt21piecewise_construct_tSt5tupleIJRS3_EESF_IJOdEEEEESt17_Rb_tree_iteratorIS4_ESt23_Rb_tree_const_iteratorIS4_EDpOT_
FN:2459,_ZNSt8_Rb_treeIN5Moose7ElemArgESt4pairIKS1_dESt10_Select1stIS4_ESt4lessIS1_ESaIS4_EE22_M_emplace_hint_uniqueIJRKSt21piecewise_construct_tSt5tupleIJRS3_EESF_IJOdEEEEESt17_Rb_tree_iteratorIS4_ESt23_Rb_tree_const_iteratorIS4_EDpOT_
FNDA:0,_ZNSt8_Rb_treeIN5Moose7ElemArgESt4pairIKS1_dESt10_Select1stIS4_ESt4lessIS1_ESaIS4_EE22_M_emplace_hint_uniqueIJRKSt21piecewise_construct_tSt5tupleIJRS3_EESF_IJOdEEEEESt17_Rb_tree_iteratorIS4_ESt23_Rb_tree_const_iteratorIS4_EDpOT_
FN:2459,_ZNSt8_Rb_treeIN5Moose7FaceArgESt4pairIKS1_N11MetaPhysicL10DualNumberIdNS4_28SemiDynamicSparseNumberArrayIdmNS4_8NWrapperILm64EEEEELb1EEEESt10_Select1stISB_ESt4lessIS1_ESaISB_EE22_M_emplace_hint_uniqueIJRKSt21piecewise_construct_tSt5tupleIJRS3_EESM_IJOSA_EEEEESt17_Rb_tree_iteratorISB_ESt23_Rb_tree_const_iteratorISB_EDpOT_
FNDA:0,_ZNSt8_Rb_treeIN5Moose7FaceArgESt4pairIKS1_N11MetaPhysicL10DualNumberIdNS4_28SemiDynamicSparseNumberArrayIdmNS4_8NWrapperILm64EEEEELb1EEEESt10_Select1stISB_ESt4lessIS1_ESaISB_EE22_M_emplace_hint_uniqueIJRKSt21piecewise_construct_tSt5tupleIJRS3_EESM_IJOSA_EEEEESt17_Rb_tree_iteratorISB_ESt23_Rb_tree_const_iteratorISB_EDpOT_
FN:2459,_ZNSt8_Rb_treeIN5Moose7ElemArgESt4pairIKS1_N11MetaPhysicL10DualNumberIdNS4_28SemiDynamicSparseNumberArrayIdmNS4_8NWrapperILm64EEEEELb1EEEESt10_Select1stISB_ESt4lessIS1_ESaISB_EE22_M_emplace_hint_uniqueIJRKSt21piecewise_construct_tSt5tupleIJRS3_EESM_IJOSA_EEEEESt17_Rb_tree_iteratorISB_ESt23_Rb_tree_const_iteratorISB_EDpOT_
FNDA:0,_ZNSt8_Rb_treeIN5Moose7ElemArgESt4pairIKS1_N11MetaPhysicL10DualNumberIdNS4_28SemiDynamicSparseNumberArrayIdmNS4_8NWrapperILm64EEEEELb1EEEESt10_Select1stISB_ESt4lessIS1_ESaISB_EE22_M_emplace_hint_uniqueIJRKSt21piecewise_construct_tSt5tupleIJRS3_EESM_IJOSA_EEEEESt17_Rb_tree_iteratorISB_ESt23_Rb_tree_const_iteratorISB_EDpOT_
FN:2459,_ZNSt8_Rb_treeINSt7__cxx1112basic_stringIcSt11char_traitsIcESaIcEEESt4pairIKS5_N15InputParameters8MetadataEESt10_Select1stISA_ESt4lessIS5_ESaISA_EE22_M_emplace_hint_uniqueIJRKSt21piecewise_construct_tSt5tupleIJRS7_EESL_IJEEEEESt17_Rb_tree_iteratorISA_ESt23_Rb_tree_const_iteratorISA_EDpOT_
FNDA:0,_ZNSt8_Rb_treeINSt7__cxx1112basic_stringIcSt11char_traitsIcESaIcEEESt4pairIKS5_N15InputParameters8MetadataEESt10_Select1stISA_ESt4lessIS5_ESaISA_EE22_M_emplace_hint_uniqueIJRKSt21piecewise_construct_tSt5tupleIJRS7_EESL_IJEEEEESt17_Rb_tree_iteratorISA_ESt23_Rb_tree_const_iteratorISA_EDpOT_
FN:2459,_ZNSt8_Rb_treeINSt7__cxx1112basic_stringIcSt11char_traitsIcESaIcEEESt4pairIKS5_St6vectorISt10shared_ptrI17RegistryEntryBaseESaISB_EEESt10_Select1stISE_ESt4lessIS5_ESaISE_EE22_M_emplace_hint_uniqueIJRKSt21piecewise_construct_tSt5tupleIJRS7_EESP_IJEEEEESt17_Rb_tree_iteratorISE_ESt23_Rb_tree_const_iteratorISE_EDpOT_
FNDA:0,_ZNSt8_Rb_treeINSt7__cxx1112basic_stringIcSt11char_traitsIcESaIcEEESt4pairIKS5_St6vectorISt10shared_ptrI17RegistryEntryBaseESaISB_EEESt10_Select1stISE_ESt4lessIS5_ESaISE_EE22_M_emplace_hint_uniqueIJRKSt21piecewise_construct_tSt5tupleIJRS7_EESP_IJEEEEESt17_Rb_tree_iteratorISE_ESt23_Rb_tree_const_iteratorISE_EDpOT_
FN:2459,_ZNSt8_Rb_treeINSt7__cxx1112basic_stringIcSt11char_traitsIcESaIcEEESt4pairIKS5_S5_ESt10_Select1stIS8_ESt4lessIS5_ESaIS8_EE22_M_emplace_hint_uniqueIJRKSt21piecewise_construct_tSt5tupleIJOS5_EESJ_IJEEEEESt17_Rb_tree_iteratorIS8_ESt23_Rb_tree_const_iteratorIS8_EDpOT_
FNDA:0,_ZNSt8_Rb_treeINSt7__cxx1112basic_stringIcSt11char_traitsIcESaIcEEESt4pairIKS5_S5_ESt10_Select1stIS8_ESt4lessIS5_ESaIS8_EE22_M_emplace_hint_uniqueIJRKSt21piecewise_construct_tSt5tupleIJOS5_EESJ_IJEEEEESt17_Rb_tree_iteratorIS8_ESt23_Rb_tree_const_iteratorIS8_EDpOT_
FN:2459,_ZNSt8_Rb_treeINSt7__cxx1112basic_stringIcSt11char_traitsIcESaIcEEESt4pairIKS5_St10unique_ptrIN7libMesh10Parameters5ValueESt14default_deleteISB_EEESt10_Select1stISF_ESt4lessIvESaISF_EE22_M_emplace_hint_uniqueIJRKSt21piecewise_construct_tSt5tupleIJRS7_EESQ_IJEEEEESt17_Rb_tree_iteratorISF_ESt23_Rb_tree_const_iteratorISF_EDpOT_
FNDA:0,_ZNSt8_Rb_treeINSt7__cxx1112basic_stringIcSt11char_traitsIcESaIcEEESt4pairIKS5_St10unique_ptrIN7libMesh10Parameters5ValueESt14default_deleteISB_EEESt10_Select1stISF_ESt4lessIvESaISF_EE22_M_emplace_hint_uniqueIJRKSt21piecewise_construct_tSt5tupleIJRS7_EESQ_IJEEEEESt17_Rb_tree_iteratorISF_ESt23_Rb_tree_const_iteratorISF_EDpOT_
FN:2543,_ZNKSt8_Rb_treeI13MooseEnumItemS0_St9_IdentityIS0_ESt4lessIS0_ESaIS0_EE4findERKS0_
FNDA:0,_ZNKSt8_Rb_treeI13MooseEnumItemS0_St9_IdentityIS0_ESt4lessIS0_ESaIS0_EE4findERKS0_
FN:2543,_ZNKSt8_Rb_treeINSt7__cxx1112basic_stringIcSt11char_traitsIcESaIcEEESt4pairIKS5_St10unique_ptrIN7libMesh10Parameters5ValueESt14default_deleteISB_EEESt10_Select1stISF_ESt4lessIvESaISF_EE4findERS7_
FNDA:0,_ZNKSt8_Rb_treeINSt7__cxx1112basic_stringIcSt11char_traitsIcESaIcEEESt4pairIKS5_St10unique_ptrIN7libMesh10Parameters5ValueESt14default_deleteISB_EEESt10_Select1stISF_ESt4lessIvESaISF_EE4findERS7_
FNF:106
FNH:5
DA:208,0
DA:209,0
DA:210,0
DA:211,0
DA:282,0
DA:287,0
DA:302,0
DA:303,0
DA:350,0
DA:351,0
DA:355,0
DA:368,0
DA:369,0
DA:397,0
DA:550,0
DA:592,0
DA:601,0
DA:603,0
DA:605,0
DA:607,0
DA:592,0
DA:601,0
DA:603,0
DA:605,0
DA:607,0
DA:592,0
DA:601,0
DA:603,0
DA:605,0
DA:607,0
DA:611,0
DA:615,0
DA:611,0
DA:615,0
DA:611,0
DA:615,0
DA:611,0
DA:615,0
DA:611,0
DA:615,0
DA:611,0
DA:614,0
DA:615,0
DA:611,0
DA:614,0
DA:615,0
DA:611,0
DA:614,0
DA:615,0
DA:626,654
DA:631,654
DA:635,654
DA:631,0
DA:635,0
DA:631,0
DA:635,0
DA:631,0
DA:635,0
DA:631,0
DA:635,0
DA:631,0
DA:635,0
DA:635,0
DA:737,654
DA:747,0
DA:752,0
DA:756,0
DA:782,52
DA:786,0
DA:790,0
DA:794,0
DA:986,218
DA:998,0
DA:1002,0
DA:1006,0
DA:1010,0
DA:1034,0
DA:1254,0
DA:1256,0
DA:1258,0
DA:1254,0
DA:1256,0
DA:1258,0
DA:1254,0
DA:1256,0
DA:1258,0
DA:1254,0
DA:1256,0
DA:1258,0
DA:1254,0
DA:1256,0
DA:1258,0
DA:1254,0
DA:1256,0
DA:1258,0
DA:1254,0
DA:1256,0
DA:1258,0
DA:1272,0
DA:1305,0
DA:1307,0
DA:1308,0
DA:1310,0
DA:1334,0
DA:1338,0
DA:1339,0
DA:1346,0
DA:1636,0
DA:1637,0
DA:1638,0
DA:1641,0
DA:1643,0
DA:1645,0
DA:1641,0
DA:1643,0
DA:1645,0
DA:1641,0
DA:1643,0
DA:1645,0
DA:1641,0
DA:1643,0
DA:1645,0
DA:1641,0
DA:1643,0
DA:1644,0
DA:1645,0
DA:1641,0
DA:1643,0
DA:1644,0
DA:1645,0
DA:1641,0
DA:1643,0
DA:1644,0
DA:1645,0
DA:1641,0
DA:1643,0
DA:1644,0
DA:1645,0
DA:1656,0
DA:1658,0
DA:1659,0
DA:1660,0
DA:1656,0
DA:1658,0
DA:1659,0
DA:1660,0
DA:1656,0
DA:1658,0
DA:1659,0
DA:1660,0
DA:1656,0
DA:1658,0
DA:1659,0
DA:1660,0
DA:1656,0
DA:1658,0
DA:1659,0
DA:1660,0
DA:1656,0
DA:1658,0
DA:1659,0
DA:1660,0
DA:1656,0
DA:1658,0
DA:1659,0
DA:1660,0
DA:1656,0
DA:1658,0
DA:1659,0
DA:1660,0
DA:1931,872
DA:1935,1526
DA:1937,654
DA:1939,654
DA:1942,872
DA:1931,0
DA:1935,0
DA:1937,0
DA:1939,0
DA:1942,0
DA:1931,0
DA:1935,0
DA:1937,0
DA:1942,0
DA:1931,0
DA:1935,0
DA:1937,0
DA:1942,0
DA:1931,0
DA:1935,0
DA:1937,0
DA:1942,0
DA:1931,0
DA:1935,0
DA:1937,0
DA:1939,0
DA:1942,0
DA:1931,0
DA:1935,0
DA:1937,0
DA:1942,0
DA:1931,0
DA:1935,0
DA:1937,0
DA:1942,0
DA:1931,0
DA:1935,0
DA:1937,0
DA:1939,0
DA:1942,0
DA:1931,100
DA:1935,152
DA:1937,52
DA:1942,100
DA:1931,0
DA:1935,0
DA:1937,0
DA:1939,0
DA:1942,0
DA:1931,218
DA:1935,218
DA:1937,0
DA:1942,218
DA:1931,218
DA:1935,218
DA:1937,0
DA:1942,218
DA:1931,0
DA:1935,0
DA:1937,0
DA:1942,0
DA:1931,0
DA:1935,0
DA:1937,0
DA:1942,0
DA:1931,0
DA:1935,0
DA:1937,0
DA:1942,0
DA:1931,0
DA:1935,0
DA:1937,0
DA:1942,0
DA:1931,0
DA:1935,0
DA:1937,0
DA:1942,0
DA:1931,0
DA:1935,0
DA:1937,0
DA:1942,0
DA:1931,0
DA:1935,0
DA:1937,0
DA:1942,0
DA:1948,0
DA:1952,0
DA:1953,0
DA:1957,0
DA:1948,0
DA:1952,0
DA:1957,0
DA:1948,0
DA:1952,0
DA:1953,0
DA:1957,0
DA:1948,0
DA:1952,0
DA:1957,0
DA:1948,0
DA:1952,0
DA:1953,0
DA:1957,0
DA:1948,0
DA:1952,0
DA:1953,0
DA:1957,0
DA:1948,0
DA:1952,0
DA:1953,0
DA:1957,0
DA:1948,0
DA:1952,0
DA:1953,0
DA:1957,0
DA:1964,0
DA:1968,0
DA:1969,0
DA:1973,0
DA:1964,0
DA:1968,0
DA:1969,0
DA:1973,0
DA:2109,0
DA:2116,0
DA:2120,0
DA:2123,0
DA:2125,0
DA:2126,0
DA:2130,0
DA:2131,0
DA:2132,0
DA:2109,0
DA:2116,0
DA:2123,0
DA:2125,0
DA:2126,0
DA:2131,0
DA:2132,0
DA:2109,0
DA:2116,0
DA:2120,0
DA:2123,0
DA:2125,0
DA:2126,0
DA:2130,0
DA:2131,0
DA:2132,0
DA:2109,0
DA:2116,0
DA:2123,0
DA:2125,0
DA:2126,0
DA:2131,0
DA:2132,0
DA:2109,0
DA:2116,0
DA:2120,0
DA:2123,0
DA:2125,0
DA:2126,0
DA:2130,0
DA:2131,0
DA:2132,0
DA:2109,0
DA:2116,0
DA:2120,0
DA:2123,0
DA:2125,0
DA:2126,0
DA:2130,0
DA:2131,0
DA:2132,0
DA:2109,0
DA:2116,0
DA:2120,0
DA:2123,0
DA:2125,0
DA:2126,0
DA:2130,0
DA:2131,0
DA:2132,0
DA:2109,0
DA:2116,0
DA:2120,0
DA:2123,0
DA:2125,0
DA:2126,0
DA:2130,0
DA:2131,0
DA:2132,0
DA:2211,0
DA:2219,0
DA:2222,0
DA:2223,0
DA:2225,0
DA:2227,0
DA:2231,0
DA:2232,0
DA:2233,0
DA:2235,0
DA:2236,0
DA:2238,0
DA:2241,0
DA:2243,0
DA:2247,0
DA:2248,0
DA:2249,0
DA:2251,0
DA:2252,0
DA:2254,0
DA:2257,0
DA:2261,0
DA:2211,0
DA:2219,0
DA:2222,0
DA:2223,0
DA:2225,0
DA:2231,0
DA:2232,0
DA:2235,0
DA:2236,0
DA:2238,0
DA:2241,0
DA:2247,0
DA:2248,0
DA:2251,0
DA:2252,0
DA:2254,0
DA:2257,0
DA:2261,0
DA:2211,0
DA:2219,0
DA:2222,0
DA:2223,0
DA:2225,0
DA:2227,0
DA:2231,0
DA:2232,0
DA:2233,0
DA:2235,0
DA:2236,0
DA:2238,0
DA:2241,0
DA:2243,0
DA:2247,0
DA:2248,0
DA:2249,0
DA:2251,0
DA:2252,0
DA:2254,0
DA:2257,0
DA:2261,0
DA:2211,0
DA:2219,0
DA:2222,0
DA:2223,0
DA:2225,0
DA:2231,0
DA:2232,0
DA:2235,0
DA:2236,0
DA:2238,0
DA:2241,0
DA:2247,0
DA:2248,0
DA:2251,0
DA:2252,0
DA:2254,0
DA:2257,0
DA:2261,0
DA:2211,0
DA:2219,0
DA:2222,0
DA:2223,0
DA:2225,0
DA:2227,0
DA:2231,0
DA:2232,0
DA:2233,0
DA:2235,0
DA:2236,0
DA:2238,0
DA:2241,0
DA:2243,0
DA:2247,0
DA:2248,0
DA:2249,0
DA:2251,0
DA:2252,0
DA:2254,0
DA:2257,0
DA:2261,0
DA:2211,0
DA:2219,0
DA:2222,0
DA:2223,0
DA:2225,0
DA:2227,0
DA:2231,0
DA:2232,0
DA:2233,0
DA:2235,0
DA:2236,0
DA:2238,0
DA:2241,0
DA:2243,0
DA:2247,0
DA:2248,0
DA:2249,0
DA:2251,0
DA:2252,0
DA:2254,0
DA:2257,0
DA:2261,0
DA:2211,0
DA:2219,0
DA:2222,0
DA:2223,0
DA:2225,0
DA:2227,0
DA:2231,0
DA:2232,0
DA:2233,0
DA:2235,0
DA:2236,0
DA:2238,0
DA:2241,0
DA:2243,0
DA:2247,0
DA:2248,0
DA:2249,0
DA:2251,0
DA:2252,0
DA:2254,0
DA:2257,0
DA:2261,0
DA:2211,0
DA:2219,0
DA:2222,0
DA:2223,0
DA:2225,0
DA:2227,0
DA:2231,0
DA:2232,0
DA:2233,0
DA:2235,0
DA:2236,0
DA:2238,0
DA:2241,0
DA:2243,0
DA:2247,0
DA:2248,0
DA:2249,0
DA:2251,0
DA:2252,0
DA:2254,0
DA:2257,0
DA:2261,0
DA:2378,0
DA:2382,0
DA:2383,0
DA:2386,0
DA:2387,0
DA:2388,0
DA:2389,0
DA:2378,0
DA:2382,0
DA:2383,0
DA:2386,0
DA:2387,0
DA:2388,0
DA:2389,0
DA:2378,0
DA:2382,0
DA:2383,0
DA:2386,0
DA:2387,0
DA:2388,0
DA:2389,0
DA:2378,0
DA:2382,0
DA:2383,0
DA:2386,0
DA:2387,0
DA:2388,0
DA:2389,0
DA:2378,0
DA:2382,0
DA:2383,0
DA:2386,0
DA:2387,0
DA:2388,0
DA:2389,0
DA:2378,0
DA:2382,0
DA:2383,0
DA:2386,0
DA:2387,0
DA:2388,0
DA:2389,0
DA:2378,0
DA:2382,0
DA:2383,0
DA:2386,0
DA:2387,0
DA:2388,0
DA:2389,0
DA:2378,0
DA:2382,0
DA:2383,0
DA:2386,0
DA:2387,0
DA:2388,0
DA:2389,0
DA:2459,0
DA:2464,0
DA:2465,0
DA:2466,0
DA:2467,0
DA:2468,0
DA:2459,0
DA:2464,0
DA:2465,0
DA:2466,0
DA:2467,0
DA:2468,0
DA:2459,0
DA:2464,0
DA:2465,0
DA:2466,0
DA:2467,0
DA:2468,0
DA:2459,0
DA:2464,0
DA:2465,0
DA:2466,0
DA:2467,0
DA:2468,0
DA:2459,0
DA:2464,0
DA:2465,0
DA:2466,0
DA:2467,0
DA:2468,0
DA:2459,0
DA:2464,0
DA:2465,0
DA:2466,0
DA:2467,0
DA:2468,0
DA:2459,0
DA:2464,0
DA:2465,0
DA:2466,0
DA:2467,0
DA:2468,0
DA:2459,0
DA:2464,0
DA:2465,0
DA:2466,0
DA:2467,0
DA:2468,0
DA:2543,0
DA:2546,0
DA:2548,0
DA:2549,0
DA:2543,0
DA:2546,0
DA:2548,0
DA:2549,0
LF:641
LH:21
end_of_record
SF:/usr/share/miniconda3/envs/moose/x86_64-conda-linux-gnu/include/c++/12.3.0/ostream
DA:113,0
DA:175,0
DA:196,0
DA:246,0
LF:4
LH:0
end_of_record
SF:/home/runner/work/beaver/beaver/src/kernels/BVSinglePhaseTimeDerivative.C
FN:19,_ZN27BVSinglePhaseTimeDerivative11validParamsEv
FNDA:138,_ZN27BVSinglePhaseTimeDerivative11validParamsEv
FN:26,_ZN27BVSinglePhaseTimeDerivativeC2ERK15InputParameters
FNDA:3,_ZN27BVSinglePhaseTimeDerivativeC2ERK15InputParameters
FN:38,_ZN27BVSinglePhaseTimeDerivative20precomputeQpResidualEv
FNDA:341984,_ZN27BVSinglePhaseTimeDerivative20precomputeQpResidualEv
FNF:3
FNH:3
DA:19,138
DA:21,138
DA:22,138
DA:23,138
DA:24,0
DA:26,3
DA:28,3
DA:29,6
DA:30,6
DA:31,3
DA:32,5
DA:33,8
DA:35,3
DA:38,341984
DA:41,341984
DA:44,341984
DA:45,520768
DA:47,341984
LF:18
LH:17
end_of_record
SF:/home/runner/work/beaver/beaver/moose/framework/build/header_symlinks/MeshChangedInterface.h
FN:34,_ZN20MeshChangedInterface11meshChangedEv
FNDA:0,_ZN20MeshChangedInterface11meshChangedEv
FNF:1
FNH:0
DA:34,0
LF:1
LH:0
end_of_record
SF:/home/runner/work/beaver/beaver/moose/framework/build/header_symlinks/MooseFunctorArguments.h
FN:126,_ZN5MooseltERKNS_7FaceArgES2_
FNDA:0,_ZN5MooseltERKNS_7FaceArgES2_
FNF:1
FNH:0
DA:126,0
DA:128,0
DA:130,0
LF:3
LH:0
end_of_record
SF:/home/runner/work/beaver/beaver/moose/framework/build/header_symlinks/ElemInfo.h
DA:34,0
LF:1
LH:0
end_of_record
SF:/usr/share/miniconda3/envs/moose/x86_64-conda-linux-gnu/include/c++/12.3.0/bits/locale_facets.h
FN:880,_ZNKSt5ctypeIcE5widenEc
FNDA:0,_ZNKSt5ctypeIcE5widenEc
FN:1092,_ZNKSt5ctypeIcE8do_widenEc
FNDA:0,_ZNKSt5ctypeIcE8do_widenEc
FNF:2
FNH:0
DA:880,0
DA:882,0
DA:883,0
DA:884,0
DA:885,0
DA:1092,0
DA:1093,0
LF:7
LH:0
end_of_record
SF:/home/runner/work/beaver/beaver/moose/framework/build/header_symlinks/MooseError.h
FN:173,_ZN5moose8internal14mooseStreamAllINSt7__cxx1112basic_stringIcSt11char_traitsIcESaIcEEEJEEEvRNS2_19basic_ostringstreamIcS5_S6_EEOT_DpOT0_
FNDA:0,_ZN5moose8internal14mooseStreamAllINSt7__cxx1112basic_stringIcSt11char_traitsIcESaIcEEEJEEEvRNS2_19basic_ostringstreamIcS5_S6_EEOT_DpOT0_
FN:173,_ZN5moose8internal14mooseStreamAllIRK20MaterialPropertyNameJRA17_KcEEEvRNSt7__cxx1119basic_ostringstreamIcSt11char_traitsIcESaIcEEEOT_DpOT0_
FNDA:0,_ZN5moose8internal14mooseStreamAllIRK20MaterialPropertyNameJRA17_KcEEEvRNSt7__cxx1119basic_ostringstreamIcSt11char_traitsIcESaIcEEEOT_DpOT0_
FN:173,_ZN5moose8internal14mooseStreamAllINSt7__cxx1112basic_stringIcSt11char_traitsIcESaIcEEEJRA2_KcEEEvRNS2_19basic_ostringstreamIcS5_S6_EEOT_DpOT0_
FNDA:0,_ZN5moose8internal14mooseStreamAllINSt7__cxx1112basic_stringIcSt11char_traitsIcESaIcEEEJRA2_KcEEEvRNS2_19basic_ostringstreamIcS5_S6_EEOT_DpOT0_
FN:173,_ZN5moose8internal14mooseStreamAllIRKjJRA16_KcRK20MaterialPropertyNameRA17_S4_EEEvRNSt7__cxx1119basic_ostringstreamIcSt11char_traitsIcESaIcEEEOT_DpOT0_
FNDA:0,_ZN5moose8internal14mooseStreamAllIRKjJRA16_KcRK20MaterialPropertyNameRA17_S4_EEEvRNSt7__cxx1119basic_ostringstreamIcSt11char_traitsIcESaIcEEEOT_DpOT0_
FN:173,_ZN5moose8internal14mooseStreamAllINSt7__cxx1112basic_stringIcSt11char_traitsIcESaIcEEEJRA45_KcS7_RA2_S8_EEEvRNS2_19basic_ostringstreamIcS5_S6_EEOT_DpOT0_
FNDA:0,_ZN5moose8internal14mooseStreamAllINSt7__cxx1112basic_stringIcSt11char_traitsIcESaIcEEEJRA45_KcS7_RA2_S8_EEEvRNS2_19basic_ostringstreamIcS5_S6_EEOT_DpOT0_
FN:173,_ZN5moose8internal14mooseStreamAllIRKNSt7__cxx1112basic_stringIcSt11char_traitsIcESaIcEEEJRA14_KcS7_RA45_SA_S7_RA2_SA_EEEvRNS2_19basic_ostringstreamIcS5_S6_EEOT_DpOT0_
FNDA:0,_ZN5moose8internal14mooseStreamAllIRKNSt7__cxx1112basic_stringIcSt11char_traitsIcESaIcEEEJRA14_KcS7_RA45_SA_S7_RA2_SA_EEEvRNS2_19basic_ostringstreamIcS5_S6_EEOT_DpOT0_
FN:299,_Z10mooseErrorIJRA16_KcEEvDpOT_
FNDA:0,_Z10mooseErrorIJRA16_KcEEvDpOT_
FN:299,_Z10mooseErrorIJNSt7__cxx1112basic_stringIcSt11char_traitsIcESaIcEEEEEvDpOT_
FNDA:0,_Z10mooseErrorIJNSt7__cxx1112basic_stringIcSt11char_traitsIcESaIcEEEEEvDpOT_
FN:299,_Z10mooseErrorIJRA57_KcEEvDpOT_
FNDA:0,_Z10mooseErrorIJRA57_KcEEvDpOT_
FN:299,_Z10mooseErrorIJRA51_KcEEvDpOT_
FNDA:0,_Z10mooseErrorIJRA51_KcEEvDpOT_
FN:299,_Z10mooseErrorIJRA65_KcRKjRA16_S0_RK20MaterialPropertyNameRA17_S0_EEvDpOT_
FNDA:0,_Z10mooseErrorIJRA65_KcRKjRA16_S0_RK20MaterialPropertyNameRA17_S0_EEvDpOT_
FN:299,_Z10mooseErrorIJRA30_KcRKNSt7__cxx1112basic_stringIcSt11char_traitsIcESaIcEEERA14_S0_S8_RA45_S0_S8_RA2_S0_EEvDpOT_
FNDA:0,_Z10mooseErrorIJRA30_KcRKNSt7__cxx1112basic_stringIcSt11char_traitsIcESaIcEEERA14_S0_S8_RA45_S0_S8_RA2_S0_EEvDpOT_
FNF:12
FNH:0
DA:173,0
DA:175,0
DA:176,0
DA:177,0
DA:173,0
DA:175,0
DA:176,0
DA:177,0
DA:173,0
DA:175,0
DA:176,0
DA:177,0
DA:173,0
DA:175,0
DA:176,0
DA:177,0
DA:173,0
DA:175,0
DA:176,0
DA:177,0
DA:173,0
DA:175,0
DA:176,0
DA:177,0
DA:175,0
DA:176,0
DA:177,0
DA:299,0
DA:301,0
DA:303,0
DA:304,0
DA:299,0
DA:301,0
DA:302,0
DA:303,0
DA:304,0
DA:299,0
DA:301,0
DA:303,0
DA:304,0
DA:299,0
DA:301,0
DA:303,0
DA:304,0
DA:299,0
DA:301,0
DA:303,0
DA:304,0
DA:299,0
DA:301,0
DA:303,0
DA:304,0
LF:52
LH:0
end_of_record
SF:/usr/share/miniconda3/envs/moose/x86_64-conda-linux-gnu/include/c++/12.3.0/bits/stl_vector.h
FN:364,_ZNSt12_Vector_baseISt6vectorIS0_IaSaIaEESaIS2_EESaIS4_EED2Ev
FNDA:0,_ZNSt12_Vector_baseISt6vectorIS0_IaSaIaEESaIS2_EESaIS4_EED2Ev
FN:364,_ZNSt12_Vector_baseISt10shared_ptrI17RegistryEntryBaseESaIS2_EED2Ev
FNDA:0,_ZNSt12_Vector_baseISt10shared_ptrI17RegistryEntryBaseESaIS2_EED2Ev
FN:364,_ZNSt12_Vector_baseI13SubdomainNameSaIS0_EED2Ev
FNDA:0,_ZNSt12_Vector_baseI13SubdomainNameSaIS0_EED2Ev
FN:364,_ZNSt12_Vector_baseISt6vectorIaSaIaEESaIS2_EED2Ev
FNDA:0,_ZNSt12_Vector_baseISt6vectorIaSaIaEESaIS2_EED2Ev
FN:364,_ZNSt12_Vector_baseISt6vectorIS0_ISt4pairIhhESaIS2_EESaIS4_EESaIS6_EED2Ev
FNDA:0,_ZNSt12_Vector_baseISt6vectorIS0_ISt4pairIhhESaIS2_EESaIS4_EESaIS6_EED2Ev
FN:364,_ZNSt12_Vector_baseIP22MooseVariableFieldBaseSaIS1_EED2Ev
FNDA:96,_ZNSt12_Vector_baseIP22MooseVariableFieldBaseSaIS1_EED2Ev
FN:364,_ZNSt12_Vector_baseIP15MooseVariableFEIdESaIS2_EED2Ev
FNDA:0,_ZNSt12_Vector_baseIP15MooseVariableFEIdESaIS2_EED2Ev
FN:364,_ZNSt12_Vector_baseIP15MooseVariableFEIN7libMesh11VectorValueIdEEESaIS5_EED2Ev
FNDA:0,_ZNSt12_Vector_baseIP15MooseVariableFEIN7libMesh11VectorValueIdEEESaIS5_EED2Ev
FN:364,_ZNSt12_Vector_baseIP15MooseVariableFEIN5Eigen6MatrixIdLin1ELi1ELi0ELin1ELi1EEEESaIS5_EED2Ev
FNDA:0,_ZNSt12_Vector_baseIP15MooseVariableFEIN5Eigen6MatrixIdLin1ELi1ELi0ELin1ELi1EEEESaIS5_EED2Ev
FN:364,_ZNSt12_Vector_baseIP15MooseVariableFVIdESaIS2_EED2Ev
FNDA:0,_ZNSt12_Vector_baseIP15MooseVariableFVIdESaIS2_EED2Ev
FN:364,_ZNSt12_Vector_baseISt10unique_ptrI10MooseArrayIdESt14default_deleteIS2_EESaIS5_EED2Ev
FNDA:0,_ZNSt12_Vector_baseISt10unique_ptrI10MooseArrayIdESt14default_deleteIS2_EESaIS5_EED2Ev
FN:364,_ZNSt12_Vector_baseIP21MooseLinearVariableFVIdESaIS2_EED2Ev
FNDA:0,_ZNSt12_Vector_baseIP21MooseLinearVariableFVIdESaIS2_EED2Ev
FN:364,_ZNSt12_Vector_baseIN11MetaPhysicL10DualNumberIdNS0_28SemiDynamicSparseNumberArrayIdmNS0_8NWrapperILm64EEEEELb1EEESaIS6_EED2Ev
FNDA:48,_ZNSt12_Vector_baseIN11MetaPhysicL10DualNumberIdNS0_28SemiDynamicSparseNumberArrayIdmNS0_8NWrapperILm64EEEEELb1EEESaIS6_EED2Ev
FN:364,_ZNSt12_Vector_baseISt10unique_ptrIN5Moose15FunctorEnvelopeIN11MetaPhysicL10DualNumberIdNS3_28SemiDynamicSparseNumberArrayIdmNS3_8NWrapperILm64EEEEELb1EEEEESt14default_deleteISA_EESaISD_EED2Ev
FNDA:48,_ZNSt12_Vector_baseISt10unique_ptrIN5Moose15FunctorEnvelopeIN11MetaPhysicL10DualNumberIdNS3_28SemiDynamicSparseNumberArrayIdmNS3_8NWrapperILm64EEEEELb1EEEEESt14default_deleteISA_EESaISD_EED2Ev
FN:364,_ZNSt12_Vector_baseISt10unique_ptrIN5Moose15FunctorEnvelopeIdEESt14default_deleteIS3_EESaIS6_EED2Ev
FNDA:48,_ZNSt12_Vector_baseISt10unique_ptrIN5Moose15FunctorEnvelopeIdEESt14default_deleteIS3_EESaIS6_EED2Ev
FN:364,_ZNSt12_Vector_baseI15AuxVariableNameSaIS0_EED2Ev
FNDA:96,_ZNSt12_Vector_baseI15AuxVariableNameSaIS0_EED2Ev
FN:364,_ZNSt12_Vector_baseISt10unique_ptrI33OptionalMaterialPropertyProxyBaseI25MaterialPropertyInterfaceESt14default_deleteIS3_EESaIS6_EED2Ev
FNDA:0,_ZNSt12_Vector_baseISt10unique_ptrI33OptionalMaterialPropertyProxyBaseI25MaterialPropertyInterfaceESt14default_deleteIS3_EESaIS6_EED2Ev
FN:364,_ZNSt12_Vector_baseISt10unique_ptrI13PropertyValueSt14default_deleteIS1_EESaIS4_EED2Ev
FNDA:0,_ZNSt12_Vector_baseISt10unique_ptrI13PropertyValueSt14default_deleteIS1_EESaIS4_EED2Ev
FN:364,_ZNSt12_Vector_baseIP19MooseVariableScalarSaIS1_EED2Ev
FNDA:0,_ZNSt12_Vector_baseIP19MooseVariableScalarSaIS1_EED2Ev
FN:364,_ZNSt12_Vector_baseISt3setIP18MooseVariableFieldIdESt4lessIS3_ESaIS3_EESaIS7_EED2Ev
FNDA:0,_ZNSt12_Vector_baseISt3setIP18MooseVariableFieldIdESt4lessIS3_ESaIS3_EESaIS7_EED2Ev
FN:364,_ZNSt12_Vector_baseISt6vectorISt4pairIhhESaIS2_EESaIS4_EED2Ev
FNDA:0,_ZNSt12_Vector_baseISt6vectorISt4pairIhhESaIS2_EESaIS4_EED2Ev
FN:364,_ZNSt12_Vector_baseINSt7__cxx1112basic_stringIcSt11char_traitsIcESaIcEEESaIS5_EED2Ev
FNDA:0,_ZNSt12_Vector_baseINSt7__cxx1112basic_stringIcSt11char_traitsIcESaIcEEESaIS5_EED2Ev
FN:364,_ZNSt12_Vector_baseIaSaIaEED2Ev
FNDA:0,_ZNSt12_Vector_baseIaSaIaEED2Ev
FN:364,_ZNSt12_Vector_baseIjSaIjEED2Ev
FNDA:48,_ZNSt12_Vector_baseIjSaIjEED2Ev
FN:364,_ZNSt12_Vector_baseImSaImEED2Ev
FNDA:48,_ZNSt12_Vector_baseImSaImEED2Ev
FN:364,_ZNSt12_Vector_baseISt4pairIbdESaIS1_EED2Ev
FNDA:0,_ZNSt12_Vector_baseISt4pairIbdESaIS1_EED2Ev
FN:364,_ZNSt12_Vector_baseISt6vectorISt4pairIbdESaIS2_EESaIS4_EED2Ev
FNDA:0,_ZNSt12_Vector_baseISt6vectorISt4pairIbdESaIS2_EESaIS4_EED2Ev
FN:364,_ZNSt12_Vector_baseISt4pairIbN11MetaPhysicL10DualNumberIdNS1_28SemiDynamicSparseNumberArrayIdmNS1_8NWrapperILm64EEEEELb1EEEESaIS8_EED2Ev
FNDA:0,_ZNSt12_Vector_baseISt4pairIbN11MetaPhysicL10DualNumberIdNS1_28SemiDynamicSparseNumberArrayIdmNS1_8NWrapperILm64EEEEELb1EEEESaIS8_EED2Ev
FN:364,_ZNSt12_Vector_baseISt6vectorISt4pairIbN11MetaPhysicL10DualNumberIdNS2_28SemiDynamicSparseNumberArrayIdmNS2_8NWrapperILm64EEEEELb1EEEESaIS9_EESaISB_EED2Ev
FNDA:0,_ZNSt12_Vector_baseISt6vectorISt4pairIbN11MetaPhysicL10DualNumberIdNS2_28SemiDynamicSparseNumberArrayIdmNS2_8NWrapperILm64EEEEELb1EEEESaIS9_EESaISB_EED2Ev
FN:364,_ZNSt12_Vector_baseISt4pairIhhESaIS1_EED2Ev
FNDA:0,_ZNSt12_Vector_baseISt4pairIhhESaIS1_EED2Ev
FN:364,_ZNSt12_Vector_baseIdSaIdEED2Ev
FNDA:0,_ZNSt12_Vector_baseIdSaIdEED2Ev
FN:364,_ZNSt12_Vector_baseISt5tupleIJNSt7__cxx1112basic_stringIcSt11char_traitsIcESaIcEEEN5Moose23RelationshipManagerTypeESt8functionIFvRK15InputParametersRSA_EEEESaISG_EED2Ev
FNDA:0,_ZNSt12_Vector_baseISt5tupleIJNSt7__cxx1112basic_stringIcSt11char_traitsIcESaIcEEEN5Moose23RelationshipManagerTypeESt8functionIFvRK15InputParametersRSA_EEEESaISG_EED2Ev
FN:364,_ZNSt12_Vector_baseISt6vectorIS0_IS0_ISt4pairIhhESaIS2_EESaIS4_EESaIS6_EESaIS8_EED2Ev
FNDA:0,_ZNSt12_Vector_baseISt6vectorIS0_IS0_ISt4pairIhhESaIS2_EESaIS4_EESaIS6_EESaIS8_EED2Ev
FN:364,_ZNSt12_Vector_baseItSaItEED2Ev
FNDA:0,_ZNSt12_Vector_baseItSaItEED2Ev
FN:499,_ZNSt6vectorISt10unique_ptrI13PropertyValueSt14default_deleteIS1_EESaIS4_EE11_S_relocateEPS4_S7_S7_RS5_
FNDA:0,_ZNSt6vectorISt10unique_ptrI13PropertyValueSt14default_deleteIS1_EESaIS4_EE11_S_relocateEPS4_S7_S7_RS5_
FN:673,_ZNSt6vectorIdSaIdEEC2ESt16initializer_listIdERKS0_
FNDA:0,_ZNSt6vectorIdSaIdEEC2ESt16initializer_listIdERKS0_
FN:673,_ZNSt6vectorINSt7__cxx1112basic_stringIcSt11char_traitsIcESaIcEEESaIS5_EEC2ESt16initializer_listIS5_ERKS6_
FNDA:0,_ZNSt6vectorINSt7__cxx1112basic_stringIcSt11char_traitsIcESaIcEEESaIS5_EEC2ESt16initializer_listIS5_ERKS6_
FN:728,_ZNSt6vectorISt3setIP18MooseVariableFieldIdESt4lessIS3_ESaIS3_EESaIS7_EED2Ev
FNDA:0,_ZNSt6vectorISt3setIP18MooseVariableFieldIdESt4lessIS3_ESaIS3_EESaIS7_EED2Ev
FN:728,_ZNSt6vectorISt10unique_ptrI13PropertyValueSt14default_deleteIS1_EESaIS4_EED2Ev
FNDA:0,_ZNSt6vectorISt10unique_ptrI13PropertyValueSt14default_deleteIS1_EESaIS4_EED2Ev
FN:728,_ZNSt6vectorISt10unique_ptrI33OptionalMaterialPropertyProxyBaseI25MaterialPropertyInterfaceESt14default_deleteIS3_EESaIS6_EED2Ev
FNDA:0,_ZNSt6vectorISt10unique_ptrI33OptionalMaterialPropertyProxyBaseI25MaterialPropertyInterfaceESt14default_deleteIS3_EESaIS6_EED2Ev
FN:728,_ZNSt6vectorI15AuxVariableNameSaIS0_EED2Ev
FNDA:96,_ZNSt6vectorI15AuxVariableNameSaIS0_EED2Ev
FN:728,_ZNSt6vectorISt10unique_ptrIN5Moose15FunctorEnvelopeIdEESt14default_deleteIS3_EESaIS6_EED2Ev
FNDA:48,_ZNSt6vectorISt10unique_ptrIN5Moose15FunctorEnvelopeIdEESt14default_deleteIS3_EESaIS6_EED2Ev
FN:728,_ZNSt6vectorI13SubdomainNameSaIS0_EED2Ev
FNDA:0,_ZNSt6vectorI13SubdomainNameSaIS0_EED2Ev
FN:728,_ZNSt6vectorISt10unique_ptrIN5Moose15FunctorEnvelopeIN11MetaPhysicL10DualNumberIdNS3_28SemiDynamicSparseNumberArrayIdmNS3_8NWrapperILm64EEEEELb1EEEEESt14default_deleteISA_EESaISD_EED2Ev
FNDA:48,_ZNSt6vectorISt10unique_ptrIN5Moose15FunctorEnvelopeIN11MetaPhysicL10DualNumberIdNS3_28SemiDynamicSparseNumberArrayIdmNS3_8NWrapperILm64EEEEELb1EEEEESt14default_deleteISA_EESaISD_EED2Ev
FN:728,_ZNSt6vectorIS_IS_IaSaIaEESaIS1_EESaIS3_EED2Ev
FNDA:0,_ZNSt6vectorIS_IS_IaSaIaEESaIS1_EESaIS3_EED2Ev
FN:728,_ZNSt6vectorISt5tupleIJNSt7__cxx1112basic_stringIcSt11char_traitsIcESaIcEEEN5Moose23RelationshipManagerTypeESt8functionIFvRK15InputParametersRSA_EEEESaISG_EED2Ev
FNDA:0,_ZNSt6vectorISt5tupleIJNSt7__cxx1112basic_stringIcSt11char_traitsIcESaIcEEEN5Moose23RelationshipManagerTypeESt8functionIFvRK15InputParametersRSA_EEEESaISG_EED2Ev
FN:728,_ZNSt6vectorIS_ISt4pairIbN11MetaPhysicL10DualNumberIdNS1_28SemiDynamicSparseNumberArrayIdmNS1_8NWrapperILm64EEEEELb1EEEESaIS8_EESaISA_EED2Ev
FNDA:0,_ZNSt6vectorIS_ISt4pairIbN11MetaPhysicL10DualNumberIdNS1_28SemiDynamicSparseNumberArrayIdmNS1_8NWrapperILm64EEEEELb1EEEESaIS8_EESaISA_EED2Ev
FN:728,_ZNSt6vectorIS_ISt4pairIbdESaIS1_EESaIS3_EED2Ev
FNDA:0,_ZNSt6vectorIS_ISt4pairIbdESaIS1_EESaIS3_EED2Ev
FN:728,_ZNSt6vectorIS_ISt4pairIhhESaIS1_EESaIS3_EED2Ev
FNDA:0,_ZNSt6vectorIS_ISt4pairIhhESaIS1_EESaIS3_EED2Ev
FN:728,_ZNSt6vectorINSt7__cxx1112basic_stringIcSt11char_traitsIcESaIcEEESaIS5_EED2Ev
FNDA:0,_ZNSt6vectorINSt7__cxx1112basic_stringIcSt11char_traitsIcESaIcEEESaIS5_EED2Ev
FN:728,_ZNSt6vectorISt10unique_ptrI10MooseArrayIdESt14default_deleteIS2_EESaIS5_EED2Ev
FNDA:0,_ZNSt6vectorISt10unique_ptrI10MooseArrayIdESt14default_deleteIS2_EESaIS5_EED2Ev
FN:728,_ZNSt6vectorISt10shared_ptrI17RegistryEntryBaseESaIS2_EED2Ev
FNDA:0,_ZNSt6vectorISt10shared_ptrI17RegistryEntryBaseESaIS2_EED2Ev
FN:728,_ZNSt6vectorIS_IaSaIaEESaIS1_EED2Ev
FNDA:0,_ZNSt6vectorIS_IaSaIaEESaIS1_EED2Ev
FN:728,_ZNSt6vectorIS_IS_ISt4pairIhhESaIS1_EESaIS3_EESaIS5_EED2Ev
FNDA:0,_ZNSt6vectorIS_IS_ISt4pairIhhESaIS1_EESaIS3_EESaIS5_EED2Ev
FN:728,_ZNSt6vectorIS_IS_IS_ISt4pairIhhESaIS1_EESaIS3_EESaIS5_EESaIS7_EED2Ev
FNDA:0,_ZNSt6vectorIS_IS_IS_ISt4pairIhhESaIS1_EESaIS3_EESaIS5_EESaIS7_EED2Ev
FN:1008,_ZNSt6vectorISt10unique_ptrI13PropertyValueSt14default_deleteIS1_EESaIS4_EE6resizeEm
FNDA:0,_ZNSt6vectorISt10unique_ptrI13PropertyValueSt14default_deleteIS1_EESaIS4_EE6resizeEm
FN:1008,_ZNSt6vectorIS_ISt4pairIbN11MetaPhysicL10DualNumberIdNS1_28SemiDynamicSparseNumberArrayIdmNS1_8NWrapperILm64EEEEELb1EEEESaIS8_EESaISA_EE6resizeEm
FNDA:0,_ZNSt6vectorIS_ISt4pairIbN11MetaPhysicL10DualNumberIdNS1_28SemiDynamicSparseNumberArrayIdmNS1_8NWrapperILm64EEEEELb1EEEESaIS8_EESaISA_EE6resizeEm
FN:1008,_ZNSt6vectorIS_ISt4pairIbdESaIS1_EESaIS3_EE6resizeEm
FNDA:0,_ZNSt6vectorIS_ISt4pairIbdESaIS1_EESaIS3_EE6resizeEm
FN:1029,_ZNSt6vectorISt4pairIbN11MetaPhysicL10DualNumberIdNS1_28SemiDynamicSparseNumberArrayIdmNS1_8NWrapperILm64EEEEELb1EEEESaIS8_EE6resizeEmRKS8_
FNDA:0,_ZNSt6vectorISt4pairIbN11MetaPhysicL10DualNumberIdNS1_28SemiDynamicSparseNumberArrayIdmNS1_8NWrapperILm64EEEEELb1EEEESaIS8_EE6resizeEmRKS8_
FN:1029,_ZNSt6vectorISt4pairIbdESaIS1_EE6resizeEmRKS1_
FNDA:0,_ZNSt6vectorISt4pairIbdESaIS1_EE6resizeEmRKS1_
FN:1682,_ZNSt6vectorINSt7__cxx1112basic_stringIcSt11char_traitsIcESaIcEEESaIS5_EE19_M_range_initializeIPKS5_EEvT_SB_St20forward_iterator_tag
FNDA:0,_ZNSt6vectorINSt7__cxx1112basic_stringIcSt11char_traitsIcESaIcEEESaIS5_EE19_M_range_initializeIPKS5_EEvT_SB_St20forward_iterator_tag
FN:1682,_ZNSt6vectorIdSaIdEE19_M_range_initializeIPKdEEvT_S5_St20forward_iterator_tag
FNDA:0,_ZNSt6vectorIdSaIdEE19_M_range_initializeIPKdEEvT_S5_St20forward_iterator_tag
FN:1891,_ZNKSt6vectorISt4pairIbN11MetaPhysicL10DualNumberIdNS1_28SemiDynamicSparseNumberArrayIdmNS1_8NWrapperILm64EEEEELb1EEEESaIS8_EE12_M_check_lenEmPKc
FNDA:0,_ZNKSt6vectorISt4pairIbN11MetaPhysicL10DualNumberIdNS1_28SemiDynamicSparseNumberArrayIdmNS1_8NWrapperILm64EEEEELb1EEEESaIS8_EE12_M_check_lenEmPKc
FN:1891,_ZNKSt6vectorISt10unique_ptrI13PropertyValueSt14default_deleteIS1_EESaIS4_EE12_M_check_lenEmPKc
FNDA:0,_ZNKSt6vectorISt10unique_ptrI13PropertyValueSt14default_deleteIS1_EESaIS4_EE12_M_check_lenEmPKc
FN:1891,_ZNKSt6vectorISt10shared_ptrI17RegistryEntryBaseESaIS2_EE12_M_check_lenEmPKc
FNDA:0,_ZNKSt6vectorISt10shared_ptrI17RegistryEntryBaseESaIS2_EE12_M_check_lenEmPKc
FN:1891,_ZNKSt6vectorIS_ISt4pairIbN11MetaPhysicL10DualNumberIdNS1_28SemiDynamicSparseNumberArrayIdmNS1_8NWrapperILm64EEEEELb1EEEESaIS8_EESaISA_EE12_M_check_lenEmPKc
FNDA:0,_ZNKSt6vectorIS_ISt4pairIbN11MetaPhysicL10DualNumberIdNS1_28SemiDynamicSparseNumberArrayIdmNS1_8NWrapperILm64EEEEELb1EEEESaIS8_EESaISA_EE12_M_check_lenEmPKc
FN:1891,_ZNKSt6vectorIS_ISt4pairIbdESaIS1_EESaIS3_EE12_M_check_lenEmPKc
FNDA:0,_ZNKSt6vectorIS_ISt4pairIbdESaIS1_EESaIS3_EE12_M_check_lenEmPKc
FN:1891,_ZNKSt6vectorISt4pairIbdESaIS1_EE12_M_check_lenEmPKc
FNDA:0,_ZNKSt6vectorISt4pairIbdESaIS1_EE12_M_check_lenEmPKc
FN:1928,_ZNSt6vectorISt10unique_ptrI13PropertyValueSt14default_deleteIS1_EESaIS4_EE15_M_erase_at_endEPS4_
FNDA:0,_ZNSt6vectorISt10unique_ptrI13PropertyValueSt14default_deleteIS1_EESaIS4_EE15_M_erase_at_endEPS4_
FN:1928,_ZNSt6vectorIS_ISt4pairIbN11MetaPhysicL10DualNumberIdNS1_28SemiDynamicSparseNumberArrayIdmNS1_8NWrapperILm64EEEEELb1EEEESaIS8_EESaISA_EE15_M_erase_at_endEPSA_
FNDA:0,_ZNSt6vectorIS_ISt4pairIbN11MetaPhysicL10DualNumberIdNS1_28SemiDynamicSparseNumberArrayIdmNS1_8NWrapperILm64EEEEELb1EEEESaIS8_EESaISA_EE15_M_erase_at_endEPSA_
FN:1928,_ZNSt6vectorIS_ISt4pairIbdESaIS1_EESaIS3_EE15_M_erase_at_endEPS3_
FNDA:0,_ZNSt6vectorIS_ISt4pairIbdESaIS1_EESaIS3_EE15_M_erase_at_endEPS3_
FNF:71
FNH:10
DA:99,0
DA:100,0
DA:105,0
DA:106,0
DA:107,0
DA:108,0
DA:299,0
DA:364,0
DA:367,0
DA:368,0
DA:364,0
DA:367,0
DA:368,0
DA:364,0
DA:367,0
DA:368,0
DA:364,0
DA:367,0
DA:368,0
DA:364,0
DA:367,0
DA:368,0
DA:364,0
DA:367,0
DA:368,0
DA:364,0
DA:367,0
DA:368,0
DA:364,0
DA:367,0
DA:368,0
DA:364,96
DA:367,96
DA:368,96
DA:364,0
DA:367,0
DA:368,0
DA:364,0
DA:367,0
DA:368,0
DA:364,0
DA:367,0
DA:368,0
DA:364,48
DA:367,48
DA:368,48
DA:364,0
DA:367,0
DA:368,0
DA:364,0
DA:367,0
DA:368,0
DA:364,48
DA:367,48
DA:368,48
DA:364,0
DA:367,0
DA:368,0
DA:364,0
DA:367,0
DA:368,0
DA:364,0
DA:367,0
DA:368,0
DA:364,0
DA:367,0
DA:368,0
DA:364,0
DA:367,0
DA:368,0
DA:364,0
DA:367,0
DA:368,0
DA:364,0
DA:367,0
DA:368,0
DA:364,0
DA:366,0
DA:367,0
DA:368,0
DA:364,0
DA:367,0
DA:368,0
DA:364,0
DA:367,0
DA:368,0
DA:364,0
DA:367,0
DA:368,0
DA:364,0
DA:367,0
DA:368,0
DA:364,0
DA:367,0
DA:368,0
DA:364,48
DA:367,48
DA:368,48
DA:364,48
DA:367,48
DA:368,48
DA:364,48
DA:367,48
DA:368,48
DA:364,96
DA:367,96
DA:368,96
DA:364,0
DA:367,0
DA:368,0
DA:378,0
DA:386,432
DA:499,0
DA:504,0
DA:673,0
DA:675,0
DA:677,0
DA:679,0
DA:673,0
DA:675,0
DA:677,0
DA:679,0
DA:728,48
DA:730,48
DA:733,48
DA:728,0
DA:730,0
DA:733,0
DA:728,0
DA:730,0
DA:733,0
DA:728,0
DA:730,0
DA:733,0
DA:728,0
DA:730,0
DA:733,0
DA:728,0
DA:730,0
DA:733,0
DA:728,0
DA:730,0
DA:733,0
DA:728,0
DA:730,0
DA:733,0
DA:728,96
DA:730,96
DA:733,96
DA:728,0
DA:730,0
DA:733,0
DA:728,48
DA:730,48
DA:733,48
DA:728,0
DA:730,0
DA:733,0
DA:728,0
DA:730,0
DA:733,0
DA:728,0
DA:730,0
DA:733,0
DA:728,0
DA:730,0
DA:733,0
DA:728,0
DA:730,0
DA:733,0
DA:728,0
DA:730,0
DA:733,0
DA:728,0
DA:730,0
DA:733,0
DA:733,0
DA:988,0
DA:1008,0
DA:1010,0
DA:1011,0
DA:1012,0
DA:1013,0
DA:1014,0
DA:1008,0
DA:1010,0
DA:1011,0
DA:1012,0
DA:1013,0
DA:1014,0
DA:1008,0
DA:1010,0
DA:1011,0
DA:1012,0
DA:1013,0
DA:1014,0
DA:1029,0
DA:1031,0
DA:1032,0
DA:1033,0
DA:1034,0
DA:1035,0
DA:1029,0
DA:1031,0
DA:1032,0
DA:1033,0
DA:1034,0
DA:1035,0
DA:1124,0
DA:1143,10675464
DA:1294,78
DA:1682,0
DA:1685,0
DA:1687,0
DA:1688,0
DA:1689,0
DA:1693,0
DA:1682,0
DA:1685,0
DA:1687,0
DA:1688,0
DA:1689,0
DA:1693,0
DA:1828,0
DA:1836,0
DA:1847,0
DA:1891,0
DA:1893,0
DA:1894,0
DA:1896,0
DA:1897,0
DA:1891,0
DA:1893,0
DA:1894,0
DA:1896,0
DA:1897,0
DA:1891,0
DA:1893,0
DA:1894,0
DA:1896,0
DA:1897,0
DA:1891,0
DA:1893,0
DA:1894,0
DA:1896,0
DA:1897,0
DA:1891,0
DA:1893,0
DA:1894,0
DA:1896,0
DA:1897,0
DA:1891,0
DA:1893,0
DA:1894,0
DA:1896,0
DA:1897,0
DA:1904,0
DA:1905,0
DA:1928,0
DA:1930,0
DA:1934,0
DA:1937,0
DA:1928,0
DA:1930,0
DA:1934,0
DA:1937,0
DA:1928,0
DA:1930,0
DA:1934,0
DA:1937,0
DA:1930,0
DA:1934,0
LF:272
LH:33
end_of_record
SF:/home/runner/work/beaver/beaver/moose/framework/build/header_symlinks/MaterialPropertyInterface.h
FN:618,_ZN25MaterialPropertyInterface30defaultGenericMaterialPropertyIdLb0EEEPKN29GenericMaterialPropertyStructIT_XT0_EE4typeERKNSt7__cxx1112basic_stringIcSt11char_traitsIcESaIcEEE
FNDA:0,_ZN25MaterialPropertyInterface30defaultGenericMaterialPropertyIdLb0EEEPKN29GenericMaterialPropertyStructIT_XT0_EE4typeERKNSt7__cxx1112basic_stringIcSt11char_traitsIcESaIcEEE
FN:618,_ZN25MaterialPropertyInterface30defaultGenericMaterialPropertyIdLb1EEEPKN29GenericMaterialPropertyStructIT_XT0_EE4typeERKNSt7__cxx1112basic_stringIcSt11char_traitsIcESaIcEEE
FNDA:0,_ZN25MaterialPropertyInterface30defaultGenericMaterialPropertyIdLb1EEEPKN29GenericMaterialPropertyStructIT_XT0_EE4typeERKNSt7__cxx1112basic_stringIcSt11char_traitsIcESaIcEEE
FN:735,_ZN25MaterialPropertyInterface21hasADMaterialPropertyIdEEbRKNSt7__cxx1112basic_stringIcSt11char_traitsIcESaIcEEE
FNDA:0,_ZN25MaterialPropertyInterface21hasADMaterialPropertyIdEEbRKNSt7__cxx1112basic_stringIcSt11char_traitsIcESaIcEEE
FN:744,_ZN25MaterialPropertyInterface27hasADMaterialPropertyByNameIdEEbRKNSt7__cxx1112basic_stringIcSt11char_traitsIcESaIcEEE
FNDA:0,_ZN25MaterialPropertyInterface27hasADMaterialPropertyByNameIdEEbRKNSt7__cxx1112basic_stringIcSt11char_traitsIcESaIcEEE
FN:766,_ZN25MaterialPropertyInterface48getPossiblyConstantGenericMaterialPropertyByNameIdLb0EEERKN29GenericMaterialPropertyStructIT_XT0_EE4typeERK20MaterialPropertyNameR12MaterialDataj
FNDA:0,_ZN25MaterialPropertyInterface48getPossiblyConstantGenericMaterialPropertyByNameIdLb0EEERKN29GenericMaterialPropertyStructIT_XT0_EE4typeERK20MaterialPropertyNameR12MaterialDataj
FN:766,_ZN25MaterialPropertyInterface48getPossiblyConstantGenericMaterialPropertyByNameI18RankTwoTensorTemplIdELb1EEERKN29GenericMaterialPropertyStructIT_XT0_EE4typeERK20MaterialPropertyNameR12MaterialDataj
FNDA:43,_ZN25MaterialPropertyInterface48getPossiblyConstantGenericMaterialPropertyByNameI18RankTwoTensorTemplIdELb1EEERKN29GenericMaterialPropertyStructIT_XT0_EE4typeERK20MaterialPropertyNameR12MaterialDataj
FN:766,_ZN25MaterialPropertyInterface48getPossiblyConstantGenericMaterialPropertyByNameIdLb1EEERKN29GenericMaterialPropertyStructIT_XT0_EE4typeERK20MaterialPropertyNameR12MaterialDataj
FNDA:0,_ZN25MaterialPropertyInterface48getPossiblyConstantGenericMaterialPropertyByNameIdLb1EEERKN29GenericMaterialPropertyStructIT_XT0_EE4typeERK20MaterialPropertyNameR12MaterialDataj
FN:786,_ZN25MaterialPropertyInterface26getGenericMaterialPropertyIdLb0EEERKN29GenericMaterialPropertyStructIT_XT0_EE4typeERKNSt7__cxx1112basic_stringIcSt11char_traitsIcESaIcEEER12MaterialDataj
FNDA:3,_ZN25MaterialPropertyInterface26getGenericMaterialPropertyIdLb0EEERKN29GenericMaterialPropertyStructIT_XT0_EE4typeERKNSt7__cxx1112basic_stringIcSt11char_traitsIcESaIcEEER12MaterialDataj
FN:786,_ZN25MaterialPropertyInterface26getGenericMaterialPropertyI18RankTwoTensorTemplIdELb1EEERKN29GenericMaterialPropertyStructIT_XT0_EE4typeERKNSt7__cxx1112basic_stringIcSt11char_traitsIcESaIcEEER12MaterialDataj
FNDA:43,_ZN25MaterialPropertyInterface26getGenericMaterialPropertyI18RankTwoTensorTemplIdELb1EEERKN29GenericMaterialPropertyStructIT_XT0_EE4typeERKNSt7__cxx1112basic_stringIcSt11char_traitsIcESaIcEEER12MaterialDataj
FN:786,_ZN25MaterialPropertyInterface26getGenericMaterialPropertyIdLb1EEERKN29GenericMaterialPropertyStructIT_XT0_EE4typeERKNSt7__cxx1112basic_stringIcSt11char_traitsIcESaIcEEER12MaterialDataj
FNDA:0,_ZN25MaterialPropertyInterface26getGenericMaterialPropertyIdLb1EEERKN29GenericMaterialPropertyStructIT_XT0_EE4typeERKNSt7__cxx1112basic_stringIcSt11char_traitsIcESaIcEEER12MaterialDataj
FN:799,_ZN25MaterialPropertyInterface32getGenericMaterialPropertyByNameIdLb0EEERKN29GenericMaterialPropertyStructIT_XT0_EE4typeERK20MaterialPropertyNameR12MaterialDataj
FNDA:0,_ZN25MaterialPropertyInterface32getGenericMaterialPropertyByNameIdLb0EEERKN29GenericMaterialPropertyStructIT_XT0_EE4typeERK20MaterialPropertyNameR12MaterialDataj
FN:799,_ZN25MaterialPropertyInterface32getGenericMaterialPropertyByNameI18RankTwoTensorTemplIdELb1EEERKN29GenericMaterialPropertyStructIT_XT0_EE4typeERK20MaterialPropertyNameR12MaterialDataj
FNDA:0,_ZN25MaterialPropertyInterface32getGenericMaterialPropertyByNameI18RankTwoTensorTemplIdELb1EEERKN29GenericMaterialPropertyStructIT_XT0_EE4typeERK20MaterialPropertyNameR12MaterialDataj
FN:799,_ZN25MaterialPropertyInterface32getGenericMaterialPropertyByNameIdLb1EEERKN29GenericMaterialPropertyStructIT_XT0_EE4typeERK20MaterialPropertyNameR12MaterialDataj
FNDA:0,_ZN25MaterialPropertyInterface32getGenericMaterialPropertyByNameIdLb1EEERKN29GenericMaterialPropertyStructIT_XT0_EE4typeERK20MaterialPropertyNameR12MaterialDataj
FNF:13
FNH:3
DA:94,65
DA:618,0
DA:622,0
DA:626,0
DA:632,0
DA:636,0
DA:637,0
DA:641,0
DA:643,0
DA:618,0
DA:622,0
DA:626,0
DA:632,0
DA:636,0
DA:637,0
DA:641,0
DA:643,0
DA:735,0
DA:738,0
DA:739,0
DA:744,0
DA:746,0
DA:747,0
DA:748,0
DA:749,0
DA:750,0
DA:766,0
DA:770,0
DA:773,0
DA:774,0
DA:781,0
DA:766,43
DA:773,43
DA:774,0
DA:781,43
DA:766,0
DA:770,0
DA:773,0
DA:774,0
DA:781,0
DA:786,3
DA:791,3
DA:793,3
DA:794,3
DA:786,43
DA:791,43
DA:793,43
DA:794,43
DA:786,0
DA:791,0
DA:793,0
DA:794,0
DA:799,0
DA:803,0
DA:805,0
DA:806,0
DA:808,0
DA:809,0
DA:813,0
DA:814,0
DA:815,0
DA:817,0
DA:818,0
DA:821,0
DA:824,0
DA:827,0
DA:830,0
DA:832,0
DA:833,0
DA:836,0
DA:799,0
DA:803,0
DA:805,0
DA:806,0
DA:808,0
DA:809,0
DA:813,0
DA:814,0
DA:815,0
DA:817,0
DA:818,0
DA:821,0
DA:824,0
DA:827,0
DA:830,0
DA:832,0
DA:833,0
DA:836,0
DA:799,0
DA:803,0
DA:805,0
DA:806,0
DA:808,0
DA:809,0
DA:813,0
DA:814,0
DA:815,0
DA:817,0
DA:818,0
DA:821,0
DA:824,0
DA:827,0
DA:830,0
DA:832,0
DA:833,0
DA:836,0
LF:106
LH:12
end_of_record
SF:/home/runner/work/beaver/beaver/moose/framework/build/header_symlinks/UserObjectInterface.h
FN:108,_ZNK19UserObjectInterface29addUserObjectDependencyHelperERK10UserObject
FNDA:0,_ZNK19UserObjectInterface29addUserObjectDependencyHelperERK10UserObject
FNF:1
FNH:0
DA:108,0
LF:1
LH:0
end_of_record
SF:/home/runner/work/beaver/beaver/moose/framework/build/header_symlinks/MooseObject.h
FN:35,_ZN11MooseObjectD0Ev
FNDA:0,_ZN11MooseObjectD0Ev
FN:35,_ZN11MooseObjectD2Ev
FNDA:0,_ZN11MooseObjectD2Ev
FN:40,_ZNK11MooseObject7enabledEv
FNDA:0,_ZNK11MooseObject7enabledEv
FNF:3
FNH:0
DA:35,0
DA:35,0
DA:40,0
LF:3
LH:0
end_of_record
SF:/usr/share/miniconda3/envs/moose/libmesh/include/libmesh/threads_pthread.h
FN:147,_ZN7libMesh7Threads10spin_mutexD2Ev
FNDA:0,_ZN7libMesh7Threads10spin_mutexD2Ev
FN:502,_ZN7libMesh7Threads6atomicIjEppEv
FNDA:0,_ZN7libMesh7Threads6atomicIjEppEv
FN:516,_ZN7libMesh7Threads6atomicIjEmmEv
FNDA:0,_ZN7libMesh7Threads6atomicIjEmmEv
FNF:3
FNH:0
DA:147,0
DA:149,0
DA:150,0
DA:502,0
DA:505,0
DA:506,0
DA:516,0
DA:519,0
DA:520,0
LF:9
LH:0
end_of_record
SF:/usr/share/miniconda3/envs/moose/x86_64-conda-linux-gnu/include/c++/12.3.0/ext/aligned_buffer.h
DA:65,0
DA:69,0
DA:104,78
LF:3
LH:1
end_of_record
SF:/usr/share/miniconda3/envs/moose/libmesh/include/libmesh/vector_value.h
DA:47,10675464
DA:208,10675464
DA:209,11077928
LF:3
LH:3
end_of_record
SF:/usr/share/miniconda3/envs/moose/x86_64-conda-linux-gnu/include/c++/12.3.0/bits/move.h
DA:204,0
DA:205,0
DA:206,0
LF:3
LH:0
end_of_record
SF:/usr/share/miniconda3/envs/moose/x86_64-conda-linux-gnu/include/c++/12.3.0/bits/ios_base.h
DA:167,0
LF:1
LH:0
end_of_record
SF:/home/runner/work/beaver/beaver/moose/framework/build/header_symlinks/InfixIterator.h
FN:46,_ZN22infix_ostream_iteratorINSt7__cxx1112basic_stringIcSt11char_traitsIcESaIcEEEcS3_EaSERKS5_
FNDA:0,_ZN22infix_ostream_iteratorINSt7__cxx1112basic_stringIcSt11char_traitsIcESaIcEEEcS3_EaSERKS5_
FNF:1
FNH:0
DA:46,0
DA:50,0
DA:51,0
DA:52,0
DA:53,0
DA:54,0
LF:6
LH:0
end_of_record
SF:/usr/share/miniconda3/envs/moose/libmesh/include/metaphysicl/dualnumber_decl.h
DA:59,13360904
LF:1
LH:1
end_of_record
SF:/usr/share/miniconda3/envs/moose/x86_64-conda-linux-gnu/include/c++/12.3.0/istream
DA:219,0
LF:1
LH:0
end_of_record
SF:/usr/share/miniconda3/envs/moose/x86_64-conda-linux-gnu/include/c++/12.3.0/bits/basic_ios.h
DA:138,0
LF:1
LH:0
end_of_record
SF:/home/runner/work/beaver/beaver/moose/framework/build/header_symlinks/ADKernel.h
FN:32,_ZNK13ADKernelTemplIdE8variableEv
FNDA:693919,_ZNK13ADKernelTemplIdE8variableEv
FN:49,_ZNK13ADKernelTemplIdE10dofIndicesEv
FNDA:243352,_ZNK13ADKernelTemplIdE10dofIndicesEv
FN:70,_ZN13ADKernelTemplIdE17computeQpJacobianEv
FNDA:0,_ZN13ADKernelTemplIdE17computeQpJacobianEv
FN:76,_ZN13ADKernelTemplIdE24computeQpOffDiagJacobianEj
FNDA:0,_ZN13ADKernelTemplIdE24computeQpOffDiagJacobianEj
FNF:4
FNH:2
DA:32,693919
DA:49,243352
DA:70,0
DA:76,0
LF:4
LH:2
end_of_record
SF:/home/runner/work/beaver/beaver/moose/framework/build/header_symlinks/PostprocessorInterface.h
FN:141,_ZNK22PostprocessorInterface32addPostprocessorDependencyHelperERK17PostprocessorName
FNDA:0,_ZNK22PostprocessorInterface32addPostprocessorDependencyHelperERK17PostprocessorName
FNF:1
FNH:0
DA:141,0
LF:1
LH:0
end_of_record
SF:/usr/share/miniconda3/envs/moose/x86_64-conda-linux-gnu/include/c++/12.3.0/bits/char_traits.h
DA:358,0
DA:376,0
DA:389,0
DA:399,2897
LF:4
LH:1
end_of_record
SF:/home/runner/work/beaver/beaver/moose/framework/build/header_symlinks/MooseVariableDependencyInterface.h
LF:0
LH:0
end_of_record
SF:/usr/share/miniconda3/envs/moose/libmesh/include/metaphysicl/semidynamicsparsenumberarray.h
DA:84,0
DA:85,0
LF:2
LH:0
end_of_record
SF:/home/runner/work/beaver/beaver/moose/framework/build/header_symlinks/MooseFunctor.h
FN:152,_ZN5Moose11FunctorBaseIdED2Ev
FNDA:0,_ZN5Moose11FunctorBaseIdED2Ev
FN:152,_ZN5Moose11FunctorBaseIdED0Ev
FNDA:0,_ZN5Moose11FunctorBaseIdED0Ev
FN:152,_ZN5Moose11FunctorBaseIN11MetaPhysicL10DualNumberIdNS1_28SemiDynamicSparseNumberArrayIdmNS1_8NWrapperILm64EEEEELb1EEEED2Ev
FNDA:0,_ZN5Moose11FunctorBaseIN11MetaPhysicL10DualNumberIdNS1_28SemiDynamicSparseNumberArrayIdmNS1_8NWrapperILm64EEEEELb1EEEED2Ev
FN:152,_ZN5Moose11FunctorBaseIN11MetaPhysicL10DualNumberIdNS1_28SemiDynamicSparseNumberArrayIdmNS1_8NWrapperILm64EEEEELb1EEEED0Ev
FNDA:0,_ZN5Moose11FunctorBaseIN11MetaPhysicL10DualNumberIdNS1_28SemiDynamicSparseNumberArrayIdmNS1_8NWrapperILm64EEEEELb1EEEED0Ev
FN:237,_ZNK5Moose11FunctorBaseIN11MetaPhysicL10DualNumberIdNS1_28SemiDynamicSparseNumberArrayIdmNS1_8NWrapperILm64EEEEELb1EEEE9hasBlocksEt
FNDA:0,_ZNK5Moose11FunctorBaseIN11MetaPhysicL10DualNumberIdNS1_28SemiDynamicSparseNumberArrayIdmNS1_8NWrapperILm64EEEEELb1EEEE9hasBlocksEt
FN:237,_ZNK5Moose11FunctorBaseIdE9hasBlocksEt
FNDA:0,_ZNK5Moose11FunctorBaseIdE9hasBlocksEt
FN:247,_ZNK5Moose11FunctorBaseIN11MetaPhysicL10DualNumberIdNS1_28SemiDynamicSparseNumberArrayIdmNS1_8NWrapperILm64EEEEELb1EEEE26isExtrapolatedBoundaryFaceERK8FaceInfoPKN7libMesh4ElemERKNS_8StateArgE
FNDA:0,_ZNK5Moose11FunctorBaseIN11MetaPhysicL10DualNumberIdNS1_28SemiDynamicSparseNumberArrayIdmNS1_8NWrapperILm64EEEEELb1EEEE26isExtrapolatedBoundaryFaceERK8FaceInfoPKN7libMesh4ElemERKNS_8StateArgE
FN:247,_ZNK5Moose11FunctorBaseIdE26isExtrapolatedBoundaryFaceERK8FaceInfoPKN7libMesh4ElemERKNS_8StateArgE
FNDA:0,_ZNK5Moose11FunctorBaseIdE26isExtrapolatedBoundaryFaceERK8FaceInfoPKN7libMesh4ElemERKNS_8StateArgE
FN:260,_ZNK5Moose11FunctorBaseIN11MetaPhysicL10DualNumberIdNS1_28SemiDynamicSparseNumberArrayIdmNS1_8NWrapperILm64EEEEELb1EEEE10isConstantEv
FNDA:0,_ZNK5Moose11FunctorBaseIN11MetaPhysicL10DualNumberIdNS1_28SemiDynamicSparseNumberArrayIdmNS1_8NWrapperILm64EEEEELb1EEEE10isConstantEv
FN:260,_ZNK5Moose11FunctorBaseIdE10isConstantEv
FNDA:0,_ZNK5Moose11FunctorBaseIdE10isConstantEv
FN:332,_ZNK5Moose11FunctorBaseIN11MetaPhysicL10DualNumberIdNS1_28SemiDynamicSparseNumberArrayIdmNS1_8NWrapperILm64EEEEELb1EEEE16evaluateGradientERKNS_7ElemArgERKNS_8StateArgE
FNDA:0,_ZNK5Moose11FunctorBaseIN11MetaPhysicL10DualNumberIdNS1_28SemiDynamicSparseNumberArrayIdmNS1_8NWrapperILm64EEEEELb1EEEE16evaluateGradientERKNS_7ElemArgERKNS_8StateArgE
FN:332,_ZNK5Moose11FunctorBaseIdE16evaluateGradientERKNS_7ElemArgERKNS_8StateArgE
FNDA:0,_ZNK5Moose11FunctorBaseIdE16evaluateGradientERKNS_7ElemArgERKNS_8StateArgE
FN:342,_ZNK5Moose11FunctorBaseIN11MetaPhysicL10DualNumberIdNS1_28SemiDynamicSparseNumberArrayIdmNS1_8NWrapperILm64EEEEELb1EEEE16evaluateGradientERKNS_7FaceArgERKNS_8StateArgE
FNDA:0,_ZNK5Moose11FunctorBaseIN11MetaPhysicL10DualNumberIdNS1_28SemiDynamicSparseNumberArrayIdmNS1_8NWrapperILm64EEEEELb1EEEE16evaluateGradientERKNS_7FaceArgERKNS_8StateArgE
FN:342,_ZNK5Moose11FunctorBaseIdE16evaluateGradientERKNS_7FaceArgERKNS_8StateArgE
FNDA:0,_ZNK5Moose11FunctorBaseIdE16evaluateGradientERKNS_7FaceArgERKNS_8StateArgE
FN:352,_ZNK5Moose11FunctorBaseIdE16evaluateGradientERKNS_9ElemQpArgERKNS_8StateArgE
FNDA:0,_ZNK5Moose11FunctorBaseIdE16evaluateGradientERKNS_9ElemQpArgERKNS_8StateArgE
FN:352,_ZNK5Moose11FunctorBaseIN11MetaPhysicL10DualNumberIdNS1_28SemiDynamicSparseNumberArrayIdmNS1_8NWrapperILm64EEEEELb1EEEE16evaluateGradientERKNS_9ElemQpArgERKNS_8StateArgE
FNDA:0,_ZNK5Moose11FunctorBaseIN11MetaPhysicL10DualNumberIdNS1_28SemiDynamicSparseNumberArrayIdmNS1_8NWrapperILm64EEEEELb1EEEE16evaluateGradientERKNS_9ElemQpArgERKNS_8StateArgE
FN:362,_ZNK5Moose11FunctorBaseIN11MetaPhysicL10DualNumberIdNS1_28SemiDynamicSparseNumberArrayIdmNS1_8NWrapperILm64EEEEELb1EEEE16evaluateGradientERKNS_13ElemSideQpArgERKNS_8StateArgE
FNDA:0,_ZNK5Moose11FunctorBaseIN11MetaPhysicL10DualNumberIdNS1_28SemiDynamicSparseNumberArrayIdmNS1_8NWrapperILm64EEEEELb1EEEE16evaluateGradientERKNS_13ElemSideQpArgERKNS_8StateArgE
FN:362,_ZNK5Moose11FunctorBaseIdE16evaluateGradientERKNS_13ElemSideQpArgERKNS_8StateArgE
FNDA:0,_ZNK5Moose11FunctorBaseIdE16evaluateGradientERKNS_13ElemSideQpArgERKNS_8StateArgE
FN:371,_ZNK5Moose11FunctorBaseIdE16evaluateGradientERKNS_12ElemPointArgERKNS_8StateArgE
FNDA:0,_ZNK5Moose11FunctorBaseIdE16evaluateGradientERKNS_12ElemPointArgERKNS_8StateArgE
FN:371,_ZNK5Moose11FunctorBaseIN11MetaPhysicL10DualNumberIdNS1_28SemiDynamicSparseNumberArrayIdmNS1_8NWrapperILm64EEEEELb1EEEE16evaluateGradientERKNS_12ElemPointArgERKNS_8StateArgE
FNDA:0,_ZNK5Moose11FunctorBaseIN11MetaPhysicL10DualNumberIdNS1_28SemiDynamicSparseNumberArrayIdmNS1_8NWrapperILm64EEEEELb1EEEE16evaluateGradientERKNS_12ElemPointArgERKNS_8StateArgE
FN:376,_ZNK5Moose11FunctorBaseIdE16evaluateGradientERKNS_7NodeArgERKNS_8StateArgE
FNDA:0,_ZNK5Moose11FunctorBaseIdE16evaluateGradientERKNS_7NodeArgERKNS_8StateArgE
FN:376,_ZNK5Moose11FunctorBaseIN11MetaPhysicL10DualNumberIdNS1_28SemiDynamicSparseNumberArrayIdmNS1_8NWrapperILm64EEEEELb1EEEE16evaluateGradientERKNS_7NodeArgERKNS_8StateArgE
FNDA:0,_ZNK5Moose11FunctorBaseIN11MetaPhysicL10DualNumberIdNS1_28SemiDynamicSparseNumberArrayIdmNS1_8NWrapperILm64EEEEELb1EEEE16evaluateGradientERKNS_7NodeArgERKNS_8StateArgE
FN:385,_ZNK5Moose11FunctorBaseIN11MetaPhysicL10DualNumberIdNS1_28SemiDynamicSparseNumberArrayIdmNS1_8NWrapperILm64EEEEELb1EEEE11evaluateDotERKNS_7ElemArgERKNS_8StateArgE
FNDA:0,_ZNK5Moose11FunctorBaseIN11MetaPhysicL10DualNumberIdNS1_28SemiDynamicSparseNumberArrayIdmNS1_8NWrapperILm64EEEEELb1EEEE11evaluateDotERKNS_7ElemArgERKNS_8StateArgE
FN:385,_ZNK5Moose11FunctorBaseIdE11evaluateDotERKNS_7ElemArgERKNS_8StateArgE
FNDA:0,_ZNK5Moose11FunctorBaseIdE11evaluateDotERKNS_7ElemArgERKNS_8StateArgE
FN:395,_ZNK5Moose11FunctorBaseIN11MetaPhysicL10DualNumberIdNS1_28SemiDynamicSparseNumberArrayIdmNS1_8NWrapperILm64EEEEELb1EEEE11evaluateDotERKNS_7FaceArgERKNS_8StateArgE
FNDA:0,_ZNK5Moose11FunctorBaseIN11MetaPhysicL10DualNumberIdNS1_28SemiDynamicSparseNumberArrayIdmNS1_8NWrapperILm64EEEEELb1EEEE11evaluateDotERKNS_7FaceArgERKNS_8StateArgE
FN:395,_ZNK5Moose11FunctorBaseIdE11evaluateDotERKNS_7FaceArgERKNS_8StateArgE
FNDA:0,_ZNK5Moose11FunctorBaseIdE11evaluateDotERKNS_7FaceArgERKNS_8StateArgE
FN:405,_ZNK5Moose11FunctorBaseIN11MetaPhysicL10DualNumberIdNS1_28SemiDynamicSparseNumberArrayIdmNS1_8NWrapperILm64EEEEELb1EEEE11evaluateDotERKNS_9ElemQpArgERKNS_8StateArgE
FNDA:0,_ZNK5Moose11FunctorBaseIN11MetaPhysicL10DualNumberIdNS1_28SemiDynamicSparseNumberArrayIdmNS1_8NWrapperILm64EEEEELb1EEEE11evaluateDotERKNS_9ElemQpArgERKNS_8StateArgE
FN:405,_ZNK5Moose11FunctorBaseIdE11evaluateDotERKNS_9ElemQpArgERKNS_8StateArgE
FNDA:0,_ZNK5Moose11FunctorBaseIdE11evaluateDotERKNS_9ElemQpArgERKNS_8StateArgE
FN:416,_ZNK5Moose11FunctorBaseIN11MetaPhysicL10DualNumberIdNS1_28SemiDynamicSparseNumberArrayIdmNS1_8NWrapperILm64EEEEELb1EEEE11evaluateDotERKNS_13ElemSideQpArgERKNS_8StateArgE
FNDA:0,_ZNK5Moose11FunctorBaseIN11MetaPhysicL10DualNumberIdNS1_28SemiDynamicSparseNumberArrayIdmNS1_8NWrapperILm64EEEEELb1EEEE11evaluateDotERKNS_13ElemSideQpArgERKNS_8StateArgE
FN:416,_ZNK5Moose11FunctorBaseIdE11evaluateDotERKNS_13ElemSideQpArgERKNS_8StateArgE
FNDA:0,_ZNK5Moose11FunctorBaseIdE11evaluateDotERKNS_13ElemSideQpArgERKNS_8StateArgE
FN:425,_ZNK5Moose11FunctorBaseIN11MetaPhysicL10DualNumberIdNS1_28SemiDynamicSparseNumberArrayIdmNS1_8NWrapperILm64EEEEELb1EEEE11evaluateDotERKNS_12ElemPointArgERKNS_8StateArgE
FNDA:0,_ZNK5Moose11FunctorBaseIN11MetaPhysicL10DualNumberIdNS1_28SemiDynamicSparseNumberArrayIdmNS1_8NWrapperILm64EEEEELb1EEEE11evaluateDotERKNS_12ElemPointArgERKNS_8StateArgE
FN:425,_ZNK5Moose11FunctorBaseIdE11evaluateDotERKNS_12ElemPointArgERKNS_8StateArgE
FNDA:0,_ZNK5Moose11FunctorBaseIdE11evaluateDotERKNS_12ElemPointArgERKNS_8StateArgE
FN:430,_ZNK5Moose11FunctorBaseIdE11evaluateDotERKNS_7NodeArgERKNS_8StateArgE
FNDA:0,_ZNK5Moose11FunctorBaseIdE11evaluateDotERKNS_7NodeArgERKNS_8StateArgE
FN:430,_ZNK5Moose11FunctorBaseIN11MetaPhysicL10DualNumberIdNS1_28SemiDynamicSparseNumberArrayIdmNS1_8NWrapperILm64EEEEELb1EEEE11evaluateDotERKNS_7NodeArgERKNS_8StateArgE
FNDA:0,_ZNK5Moose11FunctorBaseIN11MetaPhysicL10DualNumberIdNS1_28SemiDynamicSparseNumberArrayIdmNS1_8NWrapperILm64EEEEELb1EEEE11evaluateDotERKNS_7NodeArgERKNS_8StateArgE
FN:439,_ZNK5Moose11FunctorBaseIdE15evaluateGradDotERKNS_7ElemArgERKNS_8StateArgE
FNDA:0,_ZNK5Moose11FunctorBaseIdE15evaluateGradDotERKNS_7ElemArgERKNS_8StateArgE
FN:439,_ZNK5Moose11FunctorBaseIN11MetaPhysicL10DualNumberIdNS1_28SemiDynamicSparseNumberArrayIdmNS1_8NWrapperILm64EEEEELb1EEEE15evaluateGradDotERKNS_7ElemArgERKNS_8StateArgE
FNDA:0,_ZNK5Moose11FunctorBaseIN11MetaPhysicL10DualNumberIdNS1_28SemiDynamicSparseNumberArrayIdmNS1_8NWrapperILm64EEEEELb1EEEE15evaluateGradDotERKNS_7ElemArgERKNS_8StateArgE
FN:449,_ZNK5Moose11FunctorBaseIdE15evaluateGradDotERKNS_7FaceArgERKNS_8StateArgE
FNDA:0,_ZNK5Moose11FunctorBaseIdE15evaluateGradDotERKNS_7FaceArgERKNS_8StateArgE
FN:449,_ZNK5Moose11FunctorBaseIN11MetaPhysicL10DualNumberIdNS1_28SemiDynamicSparseNumberArrayIdmNS1_8NWrapperILm64EEEEELb1EEEE15evaluateGradDotERKNS_7FaceArgERKNS_8StateArgE
FNDA:0,_ZNK5Moose11FunctorBaseIN11MetaPhysicL10DualNumberIdNS1_28SemiDynamicSparseNumberArrayIdmNS1_8NWrapperILm64EEEEELb1EEEE15evaluateGradDotERKNS_7FaceArgERKNS_8StateArgE
FN:459,_ZNK5Moose11FunctorBaseIN11MetaPhysicL10DualNumberIdNS1_28SemiDynamicSparseNumberArrayIdmNS1_8NWrapperILm64EEEEELb1EEEE15evaluateGradDotERKNS_9ElemQpArgERKNS_8StateArgE
FNDA:0,_ZNK5Moose11FunctorBaseIN11MetaPhysicL10DualNumberIdNS1_28SemiDynamicSparseNumberArrayIdmNS1_8NWrapperILm64EEEEELb1EEEE15evaluateGradDotERKNS_9ElemQpArgERKNS_8StateArgE
FN:459,_ZNK5Moose11FunctorBaseIdE15evaluateGradDotERKNS_9ElemQpArgERKNS_8StateArgE
FNDA:0,_ZNK5Moose11FunctorBaseIdE15evaluateGradDotERKNS_9ElemQpArgERKNS_8StateArgE
FN:470,_ZNK5Moose11FunctorBaseIN11MetaPhysicL10DualNumberIdNS1_28SemiDynamicSparseNumberArrayIdmNS1_8NWrapperILm64EEEEELb1EEEE15evaluateGradDotERKNS_13ElemSideQpArgERKNS_8StateArgE
FNDA:0,_ZNK5Moose11FunctorBaseIN11MetaPhysicL10DualNumberIdNS1_28SemiDynamicSparseNumberArrayIdmNS1_8NWrapperILm64EEEEELb1EEEE15evaluateGradDotERKNS_13ElemSideQpArgERKNS_8StateArgE
FN:470,_ZNK5Moose11FunctorBaseIdE15evaluateGradDotERKNS_13ElemSideQpArgERKNS_8StateArgE
FNDA:0,_ZNK5Moose11FunctorBaseIdE15evaluateGradDotERKNS_13ElemSideQpArgERKNS_8StateArgE
FN:479,_ZNK5Moose11FunctorBaseIN11MetaPhysicL10DualNumberIdNS1_28SemiDynamicSparseNumberArrayIdmNS1_8NWrapperILm64EEEEELb1EEEE15evaluateGradDotERKNS_12ElemPointArgERKNS_8StateArgE
FNDA:0,_ZNK5Moose11FunctorBaseIN11MetaPhysicL10DualNumberIdNS1_28SemiDynamicSparseNumberArrayIdmNS1_8NWrapperILm64EEEEELb1EEEE15evaluateGradDotERKNS_12ElemPointArgERKNS_8StateArgE
FN:479,_ZNK5Moose11FunctorBaseIdE15evaluateGradDotERKNS_12ElemPointArgERKNS_8StateArgE
FNDA:0,_ZNK5Moose11FunctorBaseIdE15evaluateGradDotERKNS_12ElemPointArgERKNS_8StateArgE
FN:484,_ZNK5Moose11FunctorBaseIN11MetaPhysicL10DualNumberIdNS1_28SemiDynamicSparseNumberArrayIdmNS1_8NWrapperILm64EEEEELb1EEEE15evaluateGradDotERKNS_7NodeArgERKNS_8StateArgE
FNDA:0,_ZNK5Moose11FunctorBaseIN11MetaPhysicL10DualNumberIdNS1_28SemiDynamicSparseNumberArrayIdmNS1_8NWrapperILm64EEEEELb1EEEE15evaluateGradDotERKNS_7NodeArgERKNS_8StateArgE
FN:484,_ZNK5Moose11FunctorBaseIdE15evaluateGradDotERKNS_7NodeArgERKNS_8StateArgE
FNDA:0,_ZNK5Moose11FunctorBaseIdE15evaluateGradDotERKNS_7NodeArgERKNS_8StateArgE
FN:580,_ZNK5Moose11FunctorBaseIN11MetaPhysicL10DualNumberIdNS1_28SemiDynamicSparseNumberArrayIdmNS1_8NWrapperILm64EEEEELb1EEEE15queryFVArgCacheINS_7ElemArgEEES7_RSt3mapIT_S7_St4lessISC_ESaISt4pairIKSC_S7_EEERSG_
FNDA:0,_ZNK5Moose11FunctorBaseIN11MetaPhysicL10DualNumberIdNS1_28SemiDynamicSparseNumberArrayIdmNS1_8NWrapperILm64EEEEELb1EEEE15queryFVArgCacheINS_7ElemArgEEES7_RSt3mapIT_S7_St4lessISC_ESaISt4pairIKSC_S7_EEERSG_
FN:580,_ZNK5Moose11FunctorBaseIdE15queryFVArgCacheINS_7FaceArgEEEdRSt3mapIT_dSt4lessIS5_ESaISt4pairIKS5_dEEERS9_
FNDA:0,_ZNK5Moose11FunctorBaseIdE15queryFVArgCacheINS_7FaceArgEEEdRSt3mapIT_dSt4lessIS5_ESaISt4pairIKS5_dEEERS9_
FN:580,_ZNK5Moose11FunctorBaseIdE15queryFVArgCacheINS_7ElemArgEEEdRSt3mapIT_dSt4lessIS5_ESaISt4pairIKS5_dEEERS9_
FNDA:0,_ZNK5Moose11FunctorBaseIdE15queryFVArgCacheINS_7ElemArgEEEdRSt3mapIT_dSt4lessIS5_ESaISt4pairIKS5_dEEERS9_
FN:580,_ZNK5Moose11FunctorBaseIN11MetaPhysicL10DualNumberIdNS1_28SemiDynamicSparseNumberArrayIdmNS1_8NWrapperILm64EEEEELb1EEEE15queryFVArgCacheINS_7FaceArgEEES7_RSt3mapIT_S7_St4lessISC_ESaISt4pairIKSC_S7_EEERSG_
FNDA:0,_ZNK5Moose11FunctorBaseIN11MetaPhysicL10DualNumberIdNS1_28SemiDynamicSparseNumberArrayIdmNS1_8NWrapperILm64EEEEELb1EEEE15queryFVArgCacheINS_7FaceArgEEES7_RSt3mapIT_S7_St4lessISC_ESaISt4pairIKSC_S7_EEERSG_
FN:597,_ZNK5Moose11FunctorBaseIdEclERKNS_7ElemArgERKNS_8StateArgE
FNDA:0,_ZNK5Moose11FunctorBaseIdEclERKNS_7ElemArgERKNS_8StateArgE
FN:597,_ZNK5Moose11FunctorBaseIN11MetaPhysicL10DualNumberIdNS1_28SemiDynamicSparseNumberArrayIdmNS1_8NWrapperILm64EEEEELb1EEEEclERKNS_7ElemArgERKNS_8StateArgE
FNDA:0,_ZNK5Moose11FunctorBaseIN11MetaPhysicL10DualNumberIdNS1_28SemiDynamicSparseNumberArrayIdmNS1_8NWrapperILm64EEEEELb1EEEEclERKNS_7ElemArgERKNS_8StateArgE
FN:610,_ZNK5Moose11FunctorBaseIdEclERKNS_7FaceArgERKNS_8StateArgE
FNDA:0,_ZNK5Moose11FunctorBaseIdEclERKNS_7FaceArgERKNS_8StateArgE
FN:610,_ZNK5Moose11FunctorBaseIN11MetaPhysicL10DualNumberIdNS1_28SemiDynamicSparseNumberArrayIdmNS1_8NWrapperILm64EEEEELb1EEEEclERKNS_7FaceArgERKNS_8StateArgE
FNDA:0,_ZNK5Moose11FunctorBaseIN11MetaPhysicL10DualNumberIdNS1_28SemiDynamicSparseNumberArrayIdmNS1_8NWrapperILm64EEEEELb1EEEEclERKNS_7FaceArgERKNS_8StateArgE
FN:626,_ZNK5Moose11FunctorBaseIdE12queryQpCacheINS_9ElemQpArgENS_8StateArgEEEdjRKN7libMesh5QBaseERSt6vectorISt4pairIbdESaISB_EERKT_RKT0_
FNDA:0,_ZNK5Moose11FunctorBaseIdE12queryQpCacheINS_9ElemQpArgENS_8StateArgEEEdjRKN7libMesh5QBaseERSt6vectorISt4pairIbdESaISB_EERKT_RKT0_
FN:626,_ZNK5Moose11FunctorBaseIdE12queryQpCacheINS_13ElemSideQpArgENS_8StateArgEEEdjRKN7libMesh5QBaseERSt6vectorISt4pairIbdESaISB_EERKT_RKT0_
FNDA:0,_ZNK5Moose11FunctorBaseIdE12queryQpCacheINS_13ElemSideQpArgENS_8StateArgEEEdjRKN7libMesh5QBaseERSt6vectorISt4pairIbdESaISB_EERKT_RKT0_
FN:626,_ZNK5Moose11FunctorBaseIN11MetaPhysicL10DualNumberIdNS1_28SemiDynamicSparseNumberArrayIdmNS1_8NWrapperILm64EEEEELb1EEEE12queryQpCacheINS_13ElemSideQpArgENS_8StateArgEEES7_jRKN7libMesh5QBaseERSt6vectorISt4pairIbS7_ESaISI_EERKT_RKT0_
FNDA:0,_ZNK5Moose11FunctorBaseIN11MetaPhysicL10DualNumberIdNS1_28SemiDynamicSparseNumberArrayIdmNS1_8NWrapperILm64EEEEELb1EEEE12queryQpCacheINS_13ElemSideQpArgENS_8StateArgEEES7_jRKN7libMesh5QBaseERSt6vectorISt4pairIbS7_ESaISI_EERKT_RKT0_
FN:626,_ZNK5Moose11FunctorBaseIN11MetaPhysicL10DualNumberIdNS1_28SemiDynamicSparseNumberArrayIdmNS1_8NWrapperILm64EEEEELb1EEEE12queryQpCacheINS_9ElemQpArgENS_8StateArgEEES7_jRKN7libMesh5QBaseERSt6vectorISt4pairIbS7_ESaISI_EERKT_RKT0_
FNDA:0,_ZNK5Moose11FunctorBaseIN11MetaPhysicL10DualNumberIdNS1_28SemiDynamicSparseNumberArrayIdmNS1_8NWrapperILm64EEEEELb1EEEE12queryQpCacheINS_9ElemQpArgENS_8StateArgEEES7_jRKN7libMesh5QBaseERSt6vectorISt4pairIbS7_ESaISI_EERKT_RKT0_
FN:656,_ZNK5Moose11FunctorBaseIN11MetaPhysicL10DualNumberIdNS1_28SemiDynamicSparseNumberArrayIdmNS1_8NWrapperILm64EEEEELb1EEEEclERKNS_9ElemQpArgERKNS_8StateArgE
FNDA:0,_ZNK5Moose11FunctorBaseIN11MetaPhysicL10DualNumberIdNS1_28SemiDynamicSparseNumberArrayIdmNS1_8NWrapperILm64EEEEELb1EEEEclERKNS_9ElemQpArgERKNS_8StateArgE
FN:656,_ZNK5Moose11FunctorBaseIdEclERKNS_9ElemQpArgERKNS_8StateArgE
FNDA:0,_ZNK5Moose11FunctorBaseIdEclERKNS_9ElemQpArgERKNS_8StateArgE
FN:677,_ZNK5Moose11FunctorBaseIN11MetaPhysicL10DualNumberIdNS1_28SemiDynamicSparseNumberArrayIdmNS1_8NWrapperILm64EEEEELb1EEEEclERKNS_13ElemSideQpArgERKNS_8StateArgE
FNDA:0,_ZNK5Moose11FunctorBaseIN11MetaPhysicL10DualNumberIdNS1_28SemiDynamicSparseNumberArrayIdmNS1_8NWrapperILm64EEEEELb1EEEEclERKNS_13ElemSideQpArgERKNS_8StateArgE
FN:677,_ZNK5Moose11FunctorBaseIdEclERKNS_13ElemSideQpArgERKNS_8StateArgE
FNDA:0,_ZNK5Moose11FunctorBaseIdEclERKNS_13ElemSideQpArgERKNS_8StateArgE
FN:788,_ZN5Moose11FunctorBaseIN11MetaPhysicL10DualNumberIdNS1_28SemiDynamicSparseNumberArrayIdmNS1_8NWrapperILm64EEEEELb1EEEE14clearCacheDataEv
FNDA:0,_ZN5Moose11FunctorBaseIN11MetaPhysicL10DualNumberIdNS1_28SemiDynamicSparseNumberArrayIdmNS1_8NWrapperILm64EEEEELb1EEEE14clearCacheDataEv
FN:788,_ZN5Moose11FunctorBaseIdE14clearCacheDataEv
FNDA:0,_ZN5Moose11FunctorBaseIdE14clearCacheDataEv
FN:814,_ZN5Moose11FunctorBaseIdE13timestepSetupEv
FNDA:0,_ZN5Moose11FunctorBaseIdE13timestepSetupEv
FN:814,_ZN5Moose11FunctorBaseIN11MetaPhysicL10DualNumberIdNS1_28SemiDynamicSparseNumberArrayIdmNS1_8NWrapperILm64EEEEELb1EEEE13timestepSetupEv
FNDA:0,_ZN5Moose11FunctorBaseIN11MetaPhysicL10DualNumberIdNS1_28SemiDynamicSparseNumberArrayIdmNS1_8NWrapperILm64EEEEELb1EEEE13timestepSetupEv
FN:822,_ZN5Moose11FunctorBaseIdE13residualSetupEv
FNDA:0,_ZN5Moose11FunctorBaseIdE13residualSetupEv
FN:822,_ZN5Moose11FunctorBaseIN11MetaPhysicL10DualNumberIdNS1_28SemiDynamicSparseNumberArrayIdmNS1_8NWrapperILm64EEEEELb1EEEE13residualSetupEv
FNDA:0,_ZN5Moose11FunctorBaseIN11MetaPhysicL10DualNumberIdNS1_28SemiDynamicSparseNumberArrayIdmNS1_8NWrapperILm64EEEEELb1EEEE13residualSetupEv
FN:830,_ZN5Moose11FunctorBaseIdE13jacobianSetupEv
FNDA:0,_ZN5Moose11FunctorBaseIdE13jacobianSetupEv
FN:830,_ZN5Moose11FunctorBaseIN11MetaPhysicL10DualNumberIdNS1_28SemiDynamicSparseNumberArrayIdmNS1_8NWrapperILm64EEEEELb1EEEE13jacobianSetupEv
FNDA:0,_ZN5Moose11FunctorBaseIN11MetaPhysicL10DualNumberIdNS1_28SemiDynamicSparseNumberArrayIdmNS1_8NWrapperILm64EEEEELb1EEEE13jacobianSetupEv
FN:838,_ZN5Moose11FunctorBaseIdE11customSetupERK13MooseEnumItem
FNDA:0,_ZN5Moose11FunctorBaseIdE11customSetupERK13MooseEnumItem
FN:838,_ZN5Moose11FunctorBaseIN11MetaPhysicL10DualNumberIdNS1_28SemiDynamicSparseNumberArrayIdmNS1_8NWrapperILm64EEEEELb1EEEE11customSetupERK13MooseEnumItem
FNDA:0,_ZN5Moose11FunctorBaseIN11MetaPhysicL10DualNumberIdNS1_28SemiDynamicSparseNumberArrayIdmNS1_8NWrapperILm64EEEEELb1EEEE11customSetupERK13MooseEnumItem
FN:975,_ZNK5Moose11FunctorBaseIN11MetaPhysicL10DualNumberIdNS1_28SemiDynamicSparseNumberArrayIdmNS1_8NWrapperILm64EEEEELb1EEEE11hasFaceSideERK8FaceInfob
FNDA:0,_ZNK5Moose11FunctorBaseIN11MetaPhysicL10DualNumberIdNS1_28SemiDynamicSparseNumberArrayIdmNS1_8NWrapperILm64EEEEELb1EEEE11hasFaceSideERK8FaceInfob
FN:975,_ZNK5Moose11FunctorBaseIdE11hasFaceSideERK8FaceInfob
FNDA:0,_ZNK5Moose11FunctorBaseIdE11hasFaceSideERK8FaceInfob
FN:1104,_ZN5Moose15FunctorEnvelopeIN11MetaPhysicL10DualNumberIdNS1_28SemiDynamicSparseNumberArrayIdmNS1_8NWrapperILm64EEEEELb1EEEED0Ev
FNDA:0,_ZN5Moose15FunctorEnvelopeIN11MetaPhysicL10DualNumberIdNS1_28SemiDynamicSparseNumberArrayIdmNS1_8NWrapperILm64EEEEELb1EEEED0Ev
FN:1104,_ZN5Moose15FunctorEnvelopeIN11MetaPhysicL10DualNumberIdNS1_28SemiDynamicSparseNumberArrayIdmNS1_8NWrapperILm64EEEEELb1EEEED2Ev
FNDA:0,_ZN5Moose15FunctorEnvelopeIN11MetaPhysicL10DualNumberIdNS1_28SemiDynamicSparseNumberArrayIdmNS1_8NWrapperILm64EEEEELb1EEEED2Ev
FN:1104,_ZN5Moose15FunctorEnvelopeIdED0Ev
FNDA:0,_ZN5Moose15FunctorEnvelopeIdED0Ev
FN:1104,_ZN5Moose15FunctorEnvelopeIdED2Ev
FNDA:0,_ZN5Moose15FunctorEnvelopeIdED2Ev
FN:1109,_ZNK5Moose15FunctorEnvelopeIN11MetaPhysicL10DualNumberIdNS1_28SemiDynamicSparseNumberArrayIdmNS1_8NWrapperILm64EEEEELb1EEEE9wrapsNullEv
FNDA:0,_ZNK5Moose15FunctorEnvelopeIN11MetaPhysicL10DualNumberIdNS1_28SemiDynamicSparseNumberArrayIdmNS1_8NWrapperILm64EEEEELb1EEEE9wrapsNullEv
FN:1109,_ZNK5Moose15FunctorEnvelopeIdE9wrapsNullEv
FNDA:0,_ZNK5Moose15FunctorEnvelopeIdE9wrapsNullEv
FN:1114,_ZNK5Moose15FunctorEnvelopeIN11MetaPhysicL10DualNumberIdNS1_28SemiDynamicSparseNumberArrayIdmNS1_8NWrapperILm64EEEEELb1EEEE10returnTypeB5cxx11Ev
FNDA:0,_ZNK5Moose15FunctorEnvelopeIN11MetaPhysicL10DualNumberIdNS1_28SemiDynamicSparseNumberArrayIdmNS1_8NWrapperILm64EEEEELb1EEEE10returnTypeB5cxx11Ev
FN:1114,_ZNK5Moose15FunctorEnvelopeIdE10returnTypeB5cxx11Ev
FNDA:0,_ZNK5Moose15FunctorEnvelopeIdE10returnTypeB5cxx11Ev
FN:1116,_ZNK5Moose15FunctorEnvelopeIN11MetaPhysicL10DualNumberIdNS1_28SemiDynamicSparseNumberArrayIdmNS1_8NWrapperILm64EEEEELb1EEEE18ownsWrappedFunctorEv
FNDA:0,_ZNK5Moose15FunctorEnvelopeIN11MetaPhysicL10DualNumberIdNS1_28SemiDynamicSparseNumberArrayIdmNS1_8NWrapperILm64EEEEELb1EEEE18ownsWrappedFunctorEv
FN:1116,_ZNK5Moose15FunctorEnvelopeIdE18ownsWrappedFunctorEv
FNDA:0,_ZNK5Moose15FunctorEnvelopeIdE18ownsWrappedFunctorEv
FN:1122,_ZNK5Moose15FunctorEnvelopeIdE9wrapsTypeINS_11NullFunctorIdEEEEbv
FNDA:0,_ZNK5Moose15FunctorEnvelopeIdE9wrapsTypeINS_11NullFunctorIdEEEEbv
FN:1122,_ZNK5Moose15FunctorEnvelopeIN11MetaPhysicL10DualNumberIdNS1_28SemiDynamicSparseNumberArrayIdmNS1_8NWrapperILm64EEEEELb1EEEE9wrapsTypeINS_11NullFunctorIS7_EEEEbv
FNDA:0,_ZNK5Moose15FunctorEnvelopeIN11MetaPhysicL10DualNumberIdNS1_28SemiDynamicSparseNumberArrayIdmNS1_8NWrapperILm64EEEEELb1EEEE9wrapsTypeINS_11NullFunctorIS7_EEEEbv
FN:1127,_ZNK5Moose15FunctorEnvelopeIN11MetaPhysicL10DualNumberIdNS1_28SemiDynamicSparseNumberArrayIdmNS1_8NWrapperILm64EEEEELb1EEEE26isExtrapolatedBoundaryFaceERK8FaceInfoPKN7libMesh4ElemERKNS_8StateArgE
FNDA:0,_ZNK5Moose15FunctorEnvelopeIN11MetaPhysicL10DualNumberIdNS1_28SemiDynamicSparseNumberArrayIdmNS1_8NWrapperILm64EEEEELb1EEEE26isExtrapolatedBoundaryFaceERK8FaceInfoPKN7libMesh4ElemERKNS_8StateArgE
FN:1127,_ZNK5Moose15FunctorEnvelopeIdE26isExtrapolatedBoundaryFaceERK8FaceInfoPKN7libMesh4ElemERKNS_8StateArgE
FNDA:0,_ZNK5Moose15FunctorEnvelopeIdE26isExtrapolatedBoundaryFaceERK8FaceInfoPKN7libMesh4ElemERKNS_8StateArgE
FN:1133,_ZNK5Moose15FunctorEnvelopeIN11MetaPhysicL10DualNumberIdNS1_28SemiDynamicSparseNumberArrayIdmNS1_8NWrapperILm64EEEEELb1EEEE10isConstantEv
FNDA:0,_ZNK5Moose15FunctorEnvelopeIN11MetaPhysicL10DualNumberIdNS1_28SemiDynamicSparseNumberArrayIdmNS1_8NWrapperILm64EEEEELb1EEEE10isConstantEv
FN:1133,_ZNK5Moose15FunctorEnvelopeIdE10isConstantEv
FNDA:0,_ZNK5Moose15FunctorEnvelopeIdE10isConstantEv
FN:1134,_ZNK5Moose15FunctorEnvelopeIN11MetaPhysicL10DualNumberIdNS1_28SemiDynamicSparseNumberArrayIdmNS1_8NWrapperILm64EEEEELb1EEEE9hasBlocksEt
FNDA:0,_ZNK5Moose15FunctorEnvelopeIN11MetaPhysicL10DualNumberIdNS1_28SemiDynamicSparseNumberArrayIdmNS1_8NWrapperILm64EEEEELb1EEEE9hasBlocksEt
FN:1134,_ZNK5Moose15FunctorEnvelopeIdE9hasBlocksEt
FNDA:0,_ZNK5Moose15FunctorEnvelopeIdE9hasBlocksEt
FN:1135,_ZNK5Moose15FunctorEnvelopeIN11MetaPhysicL10DualNumberIdNS1_28SemiDynamicSparseNumberArrayIdmNS1_8NWrapperILm64EEEEELb1EEEE11hasFaceSideERK8FaceInfob
FNDA:0,_ZNK5Moose15FunctorEnvelopeIN11MetaPhysicL10DualNumberIdNS1_28SemiDynamicSparseNumberArrayIdmNS1_8NWrapperILm64EEEEELb1EEEE11hasFaceSideERK8FaceInfob
FN:1135,_ZNK5Moose15FunctorEnvelopeIdE11hasFaceSideERK8FaceInfob
FNDA:0,_ZNK5Moose15FunctorEnvelopeIdE11hasFaceSideERK8FaceInfob
FN:1140,_ZNK5Moose15FunctorEnvelopeIdE15supportsFaceArgEv
FNDA:0,_ZNK5Moose15FunctorEnvelopeIdE15supportsFaceArgEv
FN:1140,_ZNK5Moose15FunctorEnvelopeIN11MetaPhysicL10DualNumberIdNS1_28SemiDynamicSparseNumberArrayIdmNS1_8NWrapperILm64EEEEELb1EEEE15supportsFaceArgEv
FNDA:0,_ZNK5Moose15FunctorEnvelopeIN11MetaPhysicL10DualNumberIdNS1_28SemiDynamicSparseNumberArrayIdmNS1_8NWrapperILm64EEEEELb1EEEE15supportsFaceArgEv
FN:1141,_ZNK5Moose15FunctorEnvelopeIdE21supportsElemSideQpArgEv
FNDA:0,_ZNK5Moose15FunctorEnvelopeIdE21supportsElemSideQpArgEv
FN:1141,_ZNK5Moose15FunctorEnvelopeIN11MetaPhysicL10DualNumberIdNS1_28SemiDynamicSparseNumberArrayIdmNS1_8NWrapperILm64EEEEELb1EEEE21supportsElemSideQpArgEv
FNDA:0,_ZNK5Moose15FunctorEnvelopeIN11MetaPhysicL10DualNumberIdNS1_28SemiDynamicSparseNumberArrayIdmNS1_8NWrapperILm64EEEEELb1EEEE21supportsElemSideQpArgEv
FN:1148,_ZNK5Moose15FunctorEnvelopeIdE8evaluateERKNS_7ElemArgERKNS_8StateArgE
FNDA:0,_ZNK5Moose15FunctorEnvelopeIdE8evaluateERKNS_7ElemArgERKNS_8StateArgE
FN:1148,_ZNK5Moose15FunctorEnvelopeIN11MetaPhysicL10DualNumberIdNS1_28SemiDynamicSparseNumberArrayIdmNS1_8NWrapperILm64EEEEELb1EEEE8evaluateERKNS_7ElemArgERKNS_8StateArgE
FNDA:0,_ZNK5Moose15FunctorEnvelopeIN11MetaPhysicL10DualNumberIdNS1_28SemiDynamicSparseNumberArrayIdmNS1_8NWrapperILm64EEEEELb1EEEE8evaluateERKNS_7ElemArgERKNS_8StateArgE
FN:1152,_ZNK5Moose15FunctorEnvelopeIN11MetaPhysicL10DualNumberIdNS1_28SemiDynamicSparseNumberArrayIdmNS1_8NWrapperILm64EEEEELb1EEEE8evaluateERKNS_7FaceArgERKNS_8StateArgE
FNDA:0,_ZNK5Moose15FunctorEnvelopeIN11MetaPhysicL10DualNumberIdNS1_28SemiDynamicSparseNumberArrayIdmNS1_8NWrapperILm64EEEEELb1EEEE8evaluateERKNS_7FaceArgERKNS_8StateArgE
FN:1152,_ZNK5Moose15FunctorEnvelopeIdE8evaluateERKNS_7FaceArgERKNS_8StateArgE
FNDA:0,_ZNK5Moose15FunctorEnvelopeIdE8evaluateERKNS_7FaceArgERKNS_8StateArgE
FN:1156,_ZNK5Moose15FunctorEnvelopeIN11MetaPhysicL10DualNumberIdNS1_28SemiDynamicSparseNumberArrayIdmNS1_8NWrapperILm64EEEEELb1EEEE8evaluateERKNS_9ElemQpArgERKNS_8StateArgE
FNDA:0,_ZNK5Moose15FunctorEnvelopeIN11MetaPhysicL10DualNumberIdNS1_28SemiDynamicSparseNumberArrayIdmNS1_8NWrapperILm64EEEEELb1EEEE8evaluateERKNS_9ElemQpArgERKNS_8StateArgE
FN:1156,_ZNK5Moose15FunctorEnvelopeIdE8evaluateERKNS_9ElemQpArgERKNS_8StateArgE
FNDA:0,_ZNK5Moose15FunctorEnvelopeIdE8evaluateERKNS_9ElemQpArgERKNS_8StateArgE
FN:1160,_ZNK5Moose15FunctorEnvelopeIN11MetaPhysicL10DualNumberIdNS1_28SemiDynamicSparseNumberArrayIdmNS1_8NWrapperILm64EEEEELb1EEEE8evaluateERKNS_13ElemSideQpArgERKNS_8StateArgE
FNDA:0,_ZNK5Moose15FunctorEnvelopeIN11MetaPhysicL10DualNumberIdNS1_28SemiDynamicSparseNumberArrayIdmNS1_8NWrapperILm64EEEEELb1EEEE8evaluateERKNS_13ElemSideQpArgERKNS_8StateArgE
FN:1160,_ZNK5Moose15FunctorEnvelopeIdE8evaluateERKNS_13ElemSideQpArgERKNS_8StateArgE
FNDA:0,_ZNK5Moose15FunctorEnvelopeIdE8evaluateERKNS_13ElemSideQpArgERKNS_8StateArgE
FN:1164,_ZNK5Moose15FunctorEnvelopeIdE8evaluateERKNS_12ElemPointArgERKNS_8StateArgE
FNDA:0,_ZNK5Moose15FunctorEnvelopeIdE8evaluateERKNS_12ElemPointArgERKNS_8StateArgE
FN:1164,_ZNK5Moose15FunctorEnvelopeIN11MetaPhysicL10DualNumberIdNS1_28SemiDynamicSparseNumberArrayIdmNS1_8NWrapperILm64EEEEELb1EEEE8evaluateERKNS_12ElemPointArgERKNS_8StateArgE
FNDA:0,_ZNK5Moose15FunctorEnvelopeIN11MetaPhysicL10DualNumberIdNS1_28SemiDynamicSparseNumberArrayIdmNS1_8NWrapperILm64EEEEELb1EEEE8evaluateERKNS_12ElemPointArgERKNS_8StateArgE
FN:1168,_ZNK5Moose15FunctorEnvelopeIN11MetaPhysicL10DualNumberIdNS1_28SemiDynamicSparseNumberArrayIdmNS1_8NWrapperILm64EEEEELb1EEEE8evaluateERKNS_7NodeArgERKNS_8StateArgE
FNDA:0,_ZNK5Moose15FunctorEnvelopeIN11MetaPhysicL10DualNumberIdNS1_28SemiDynamicSparseNumberArrayIdmNS1_8NWrapperILm64EEEEELb1EEEE8evaluateERKNS_7NodeArgERKNS_8StateArgE
FN:1168,_ZNK5Moose15FunctorEnvelopeIdE8evaluateERKNS_7NodeArgERKNS_8StateArgE
FNDA:0,_ZNK5Moose15FunctorEnvelopeIdE8evaluateERKNS_7NodeArgERKNS_8StateArgE
FN:1173,_ZNK5Moose15FunctorEnvelopeIdE16evaluateGradientERKNS_7ElemArgERKNS_8StateArgE
FNDA:0,_ZNK5Moose15FunctorEnvelopeIdE16evaluateGradientERKNS_7ElemArgERKNS_8StateArgE
FN:1173,_ZNK5Moose15FunctorEnvelopeIN11MetaPhysicL10DualNumberIdNS1_28SemiDynamicSparseNumberArrayIdmNS1_8NWrapperILm64EEEEELb1EEEE16evaluateGradientERKNS_7ElemArgERKNS_8StateArgE
FNDA:0,_ZNK5Moose15FunctorEnvelopeIN11MetaPhysicL10DualNumberIdNS1_28SemiDynamicSparseNumberArrayIdmNS1_8NWrapperILm64EEEEELb1EEEE16evaluateGradientERKNS_7ElemArgERKNS_8StateArgE
FN:1177,_ZNK5Moose15FunctorEnvelopeIdE16evaluateGradientERKNS_7FaceArgERKNS_8StateArgE
FNDA:0,_ZNK5Moose15FunctorEnvelopeIdE16evaluateGradientERKNS_7FaceArgERKNS_8StateArgE
FN:1177,_ZNK5Moose15FunctorEnvelopeIN11MetaPhysicL10DualNumberIdNS1_28SemiDynamicSparseNumberArrayIdmNS1_8NWrapperILm64EEEEELb1EEEE16evaluateGradientERKNS_7FaceArgERKNS_8StateArgE
FNDA:0,_ZNK5Moose15FunctorEnvelopeIN11MetaPhysicL10DualNumberIdNS1_28SemiDynamicSparseNumberArrayIdmNS1_8NWrapperILm64EEEEELb1EEEE16evaluateGradientERKNS_7FaceArgERKNS_8StateArgE
FN:1181,_ZNK5Moose15FunctorEnvelopeIdE16evaluateGradientERKNS_9ElemQpArgERKNS_8StateArgE
FNDA:0,_ZNK5Moose15FunctorEnvelopeIdE16evaluateGradientERKNS_9ElemQpArgERKNS_8StateArgE
FN:1181,_ZNK5Moose15FunctorEnvelopeIN11MetaPhysicL10DualNumberIdNS1_28SemiDynamicSparseNumberArrayIdmNS1_8NWrapperILm64EEEEELb1EEEE16evaluateGradientERKNS_9ElemQpArgERKNS_8StateArgE
FNDA:0,_ZNK5Moose15FunctorEnvelopeIN11MetaPhysicL10DualNumberIdNS1_28SemiDynamicSparseNumberArrayIdmNS1_8NWrapperILm64EEEEELb1EEEE16evaluateGradientERKNS_9ElemQpArgERKNS_8StateArgE
FN:1185,_ZNK5Moose15FunctorEnvelopeIdE16evaluateGradientERKNS_13ElemSideQpArgERKNS_8StateArgE
FNDA:0,_ZNK5Moose15FunctorEnvelopeIdE16evaluateGradientERKNS_13ElemSideQpArgERKNS_8StateArgE
FN:1185,_ZNK5Moose15FunctorEnvelopeIN11MetaPhysicL10DualNumberIdNS1_28SemiDynamicSparseNumberArrayIdmNS1_8NWrapperILm64EEEEELb1EEEE16evaluateGradientERKNS_13ElemSideQpArgERKNS_8StateArgE
FNDA:0,_ZNK5Moose15FunctorEnvelopeIN11MetaPhysicL10DualNumberIdNS1_28SemiDynamicSparseNumberArrayIdmNS1_8NWrapperILm64EEEEELb1EEEE16evaluateGradientERKNS_13ElemSideQpArgERKNS_8StateArgE
FN:1190,_ZNK5Moose15FunctorEnvelopeIdE16evaluateGradientERKNS_12ElemPointArgERKNS_8StateArgE
FNDA:0,_ZNK5Moose15FunctorEnvelopeIdE16evaluateGradientERKNS_12ElemPointArgERKNS_8StateArgE
FN:1190,_ZNK5Moose15FunctorEnvelopeIN11MetaPhysicL10DualNumberIdNS1_28SemiDynamicSparseNumberArrayIdmNS1_8NWrapperILm64EEEEELb1EEEE16evaluateGradientERKNS_12ElemPointArgERKNS_8StateArgE
FNDA:0,_ZNK5Moose15FunctorEnvelopeIN11MetaPhysicL10DualNumberIdNS1_28SemiDynamicSparseNumberArrayIdmNS1_8NWrapperILm64EEEEELb1EEEE16evaluateGradientERKNS_12ElemPointArgERKNS_8StateArgE
FN:1195,_ZNK5Moose15FunctorEnvelopeIdE16evaluateGradientERKNS_7NodeArgERKNS_8StateArgE
FNDA:0,_ZNK5Moose15FunctorEnvelopeIdE16evaluateGradientERKNS_7NodeArgERKNS_8StateArgE
FN:1195,_ZNK5Moose15FunctorEnvelopeIN11MetaPhysicL10DualNumberIdNS1_28SemiDynamicSparseNumberArrayIdmNS1_8NWrapperILm64EEEEELb1EEEE16evaluateGradientERKNS_7NodeArgERKNS_8StateArgE
FNDA:0,_ZNK5Moose15FunctorEnvelopeIN11MetaPhysicL10DualNumberIdNS1_28SemiDynamicSparseNumberArrayIdmNS1_8NWrapperILm64EEEEELb1EEEE16evaluateGradientERKNS_7NodeArgERKNS_8StateArgE
FN:1200,_ZNK5Moose15FunctorEnvelopeIN11MetaPhysicL10DualNumberIdNS1_28SemiDynamicSparseNumberArrayIdmNS1_8NWrapperILm64EEEEELb1EEEE11evaluateDotERKNS_7ElemArgERKNS_8StateArgE
FNDA:0,_ZNK5Moose15FunctorEnvelopeIN11MetaPhysicL10DualNumberIdNS1_28SemiDynamicSparseNumberArrayIdmNS1_8NWrapperILm64EEEEELb1EEEE11evaluateDotERKNS_7ElemArgERKNS_8StateArgE
FN:1200,_ZNK5Moose15FunctorEnvelopeIdE11evaluateDotERKNS_7ElemArgERKNS_8StateArgE
FNDA:0,_ZNK5Moose15FunctorEnvelopeIdE11evaluateDotERKNS_7ElemArgERKNS_8StateArgE
FN:1204,_ZNK5Moose15FunctorEnvelopeIdE11evaluateDotERKNS_7FaceArgERKNS_8StateArgE
FNDA:0,_ZNK5Moose15FunctorEnvelopeIdE11evaluateDotERKNS_7FaceArgERKNS_8StateArgE
FN:1204,_ZNK5Moose15FunctorEnvelopeIN11MetaPhysicL10DualNumberIdNS1_28SemiDynamicSparseNumberArrayIdmNS1_8NWrapperILm64EEEEELb1EEEE11evaluateDotERKNS_7FaceArgERKNS_8StateArgE
FNDA:0,_ZNK5Moose15FunctorEnvelopeIN11MetaPhysicL10DualNumberIdNS1_28SemiDynamicSparseNumberArrayIdmNS1_8NWrapperILm64EEEEELb1EEEE11evaluateDotERKNS_7FaceArgERKNS_8StateArgE
FN:1208,_ZNK5Moose15FunctorEnvelopeIN11MetaPhysicL10DualNumberIdNS1_28SemiDynamicSparseNumberArrayIdmNS1_8NWrapperILm64EEEEELb1EEEE11evaluateDotERKNS_9ElemQpArgERKNS_8StateArgE
FNDA:0,_ZNK5Moose15FunctorEnvelopeIN11MetaPhysicL10DualNumberIdNS1_28SemiDynamicSparseNumberArrayIdmNS1_8NWrapperILm64EEEEELb1EEEE11evaluateDotERKNS_9ElemQpArgERKNS_8StateArgE
FN:1208,_ZNK5Moose15FunctorEnvelopeIdE11evaluateDotERKNS_9ElemQpArgERKNS_8StateArgE
FNDA:0,_ZNK5Moose15FunctorEnvelopeIdE11evaluateDotERKNS_9ElemQpArgERKNS_8StateArgE
FN:1212,_ZNK5Moose15FunctorEnvelopeIdE11evaluateDotERKNS_13ElemSideQpArgERKNS_8StateArgE
FNDA:0,_ZNK5Moose15FunctorEnvelopeIdE11evaluateDotERKNS_13ElemSideQpArgERKNS_8StateArgE
FN:1212,_ZNK5Moose15FunctorEnvelopeIN11MetaPhysicL10DualNumberIdNS1_28SemiDynamicSparseNumberArrayIdmNS1_8NWrapperILm64EEEEELb1EEEE11evaluateDotERKNS_13ElemSideQpArgERKNS_8StateArgE
FNDA:0,_ZNK5Moose15FunctorEnvelopeIN11MetaPhysicL10DualNumberIdNS1_28SemiDynamicSparseNumberArrayIdmNS1_8NWrapperILm64EEEEELb1EEEE11evaluateDotERKNS_13ElemSideQpArgERKNS_8StateArgE
FN:1216,_ZNK5Moose15FunctorEnvelopeIdE11evaluateDotERKNS_12ElemPointArgERKNS_8StateArgE
FNDA:0,_ZNK5Moose15FunctorEnvelopeIdE11evaluateDotERKNS_12ElemPointArgERKNS_8StateArgE
FN:1216,_ZNK5Moose15FunctorEnvelopeIN11MetaPhysicL10DualNumberIdNS1_28SemiDynamicSparseNumberArrayIdmNS1_8NWrapperILm64EEEEELb1EEEE11evaluateDotERKNS_12ElemPointArgERKNS_8StateArgE
FNDA:0,_ZNK5Moose15FunctorEnvelopeIN11MetaPhysicL10DualNumberIdNS1_28SemiDynamicSparseNumberArrayIdmNS1_8NWrapperILm64EEEEELb1EEEE11evaluateDotERKNS_12ElemPointArgERKNS_8StateArgE
FN:1221,_ZNK5Moose15FunctorEnvelopeIN11MetaPhysicL10DualNumberIdNS1_28SemiDynamicSparseNumberArrayIdmNS1_8NWrapperILm64EEEEELb1EEEE11evaluateDotERKNS_7NodeArgERKNS_8StateArgE
FNDA:0,_ZNK5Moose15FunctorEnvelopeIN11MetaPhysicL10DualNumberIdNS1_28SemiDynamicSparseNumberArrayIdmNS1_8NWrapperILm64EEEEELb1EEEE11evaluateDotERKNS_7NodeArgERKNS_8StateArgE
FN:1221,_ZNK5Moose15FunctorEnvelopeIdE11evaluateDotERKNS_7NodeArgERKNS_8StateArgE
FNDA:0,_ZNK5Moose15FunctorEnvelopeIdE11evaluateDotERKNS_7NodeArgERKNS_8StateArgE
FN:1226,_ZNK5Moose15FunctorEnvelopeIN11MetaPhysicL10DualNumberIdNS1_28SemiDynamicSparseNumberArrayIdmNS1_8NWrapperILm64EEEEELb1EEEE15evaluateGradDotERKNS_7ElemArgERKNS_8StateArgE
FNDA:0,_ZNK5Moose15FunctorEnvelopeIN11MetaPhysicL10DualNumberIdNS1_28SemiDynamicSparseNumberArrayIdmNS1_8NWrapperILm64EEEEELb1EEEE15evaluateGradDotERKNS_7ElemArgERKNS_8StateArgE
FN:1226,_ZNK5Moose15FunctorEnvelopeIdE15evaluateGradDotERKNS_7ElemArgERKNS_8StateArgE
FNDA:0,_ZNK5Moose15FunctorEnvelopeIdE15evaluateGradDotERKNS_7ElemArgERKNS_8StateArgE
FN:1230,_ZNK5Moose15FunctorEnvelopeIN11MetaPhysicL10DualNumberIdNS1_28SemiDynamicSparseNumberArrayIdmNS1_8NWrapperILm64EEEEELb1EEEE15evaluateGradDotERKNS_7FaceArgERKNS_8StateArgE
FNDA:0,_ZNK5Moose15FunctorEnvelopeIN11MetaPhysicL10DualNumberIdNS1_28SemiDynamicSparseNumberArrayIdmNS1_8NWrapperILm64EEEEELb1EEEE15evaluateGradDotERKNS_7FaceArgERKNS_8StateArgE
FN:1230,_ZNK5Moose15FunctorEnvelopeIdE15evaluateGradDotERKNS_7FaceArgERKNS_8StateArgE
FNDA:0,_ZNK5Moose15FunctorEnvelopeIdE15evaluateGradDotERKNS_7FaceArgERKNS_8StateArgE
FN:1234,_ZNK5Moose15FunctorEnvelopeIN11MetaPhysicL10DualNumberIdNS1_28SemiDynamicSparseNumberArrayIdmNS1_8NWrapperILm64EEEEELb1EEEE15evaluateGradDotERKNS_9ElemQpArgERKNS_8StateArgE
FNDA:0,_ZNK5Moose15FunctorEnvelopeIN11MetaPhysicL10DualNumberIdNS1_28SemiDynamicSparseNumberArrayIdmNS1_8NWrapperILm64EEEEELb1EEEE15evaluateGradDotERKNS_9ElemQpArgERKNS_8StateArgE
FN:1234,_ZNK5Moose15FunctorEnvelopeIdE15evaluateGradDotERKNS_9ElemQpArgERKNS_8StateArgE
FNDA:0,_ZNK5Moose15FunctorEnvelopeIdE15evaluateGradDotERKNS_9ElemQpArgERKNS_8StateArgE
FN:1238,_ZNK5Moose15FunctorEnvelopeIN11MetaPhysicL10DualNumberIdNS1_28SemiDynamicSparseNumberArrayIdmNS1_8NWrapperILm64EEEEELb1EEEE15evaluateGradDotERKNS_13ElemSideQpArgERKNS_8StateArgE
FNDA:0,_ZNK5Moose15FunctorEnvelopeIN11MetaPhysicL10DualNumberIdNS1_28SemiDynamicSparseNumberArrayIdmNS1_8NWrapperILm64EEEEELb1EEEE15evaluateGradDotERKNS_13ElemSideQpArgERKNS_8StateArgE
FN:1238,_ZNK5Moose15FunctorEnvelopeIdE15evaluateGradDotERKNS_13ElemSideQpArgERKNS_8StateArgE
FNDA:0,_ZNK5Moose15FunctorEnvelopeIdE15evaluateGradDotERKNS_13ElemSideQpArgERKNS_8StateArgE
FN:1243,_ZNK5Moose15FunctorEnvelopeIN11MetaPhysicL10DualNumberIdNS1_28SemiDynamicSparseNumberArrayIdmNS1_8NWrapperILm64EEEEELb1EEEE15evaluateGradDotERKNS_12ElemPointArgERKNS_8StateArgE
FNDA:0,_ZNK5Moose15FunctorEnvelopeIN11MetaPhysicL10DualNumberIdNS1_28SemiDynamicSparseNumberArrayIdmNS1_8NWrapperILm64EEEEELb1EEEE15evaluateGradDotERKNS_12ElemPointArgERKNS_8StateArgE
FN:1243,_ZNK5Moose15FunctorEnvelopeIdE15evaluateGradDotERKNS_12ElemPointArgERKNS_8StateArgE
FNDA:0,_ZNK5Moose15FunctorEnvelopeIdE15evaluateGradDotERKNS_12ElemPointArgERKNS_8StateArgE
FN:1248,_ZNK5Moose15FunctorEnvelopeIdE15evaluateGradDotERKNS_7NodeArgERKNS_8StateArgE
FNDA:0,_ZNK5Moose15FunctorEnvelopeIdE15evaluateGradDotERKNS_7NodeArgERKNS_8StateArgE
FN:1248,_ZNK5Moose15FunctorEnvelopeIN11MetaPhysicL10DualNumberIdNS1_28SemiDynamicSparseNumberArrayIdmNS1_8NWrapperILm64EEEEELb1EEEE15evaluateGradDotERKNS_7NodeArgERKNS_8StateArgE
FNDA:0,_ZNK5Moose15FunctorEnvelopeIN11MetaPhysicL10DualNumberIdNS1_28SemiDynamicSparseNumberArrayIdmNS1_8NWrapperILm64EEEEELb1EEEE15evaluateGradDotERKNS_7NodeArgERKNS_8StateArgE
FNF:146
FNH:0
DA:152,0
DA:152,0
DA:152,0
DA:152,0
DA:237,0
DA:239,0
DA:237,0
DA:239,0
DA:247,0
DA:249,0
DA:247,0
DA:249,0
DA:260,0
DA:260,0
DA:332,0
DA:334,0
DA:332,0
DA:334,0
DA:342,0
DA:344,0
DA:342,0
DA:344,0
DA:352,0
DA:354,0
DA:352,0
DA:354,0
DA:362,0
DA:364,0
DA:362,0
DA:364,0
DA:371,0
DA:373,0
DA:371,0
DA:373,0
DA:376,0
DA:378,0
DA:376,0
DA:378,0
DA:385,0
DA:387,0
DA:385,0
DA:387,0
DA:395,0
DA:397,0
DA:395,0
DA:397,0
DA:405,0
DA:407,0
DA:405,0
DA:407,0
DA:416,0
DA:418,0
DA:416,0
DA:418,0
DA:425,0
DA:427,0
DA:425,0
DA:427,0
DA:430,0
DA:432,0
DA:430,0
DA:432,0
DA:439,0
DA:441,0
DA:439,0
DA:441,0
DA:449,0
DA:451,0
DA:449,0
DA:451,0
DA:459,0
DA:461,0
DA:459,0
DA:461,0
DA:470,0
DA:472,0
DA:470,0
DA:472,0
DA:479,0
DA:481,0
DA:479,0
DA:481,0
DA:484,0
DA:486,0
DA:484,0
DA:486,0
DA:580,0
DA:584,0
DA:587,0
DA:590,0
DA:592,0
DA:580,0
DA:584,0
DA:587,0
DA:590,0
DA:592,0
DA:580,0
DA:584,0
DA:585,0
DA:587,0
DA:590,0
DA:592,0
DA:580,0
DA:584,0
DA:585,0
DA:587,0
DA:590,0
DA:592,0
DA:597,0
DA:599,0
DA:600,0
DA:605,0
DA:597,0
DA:599,0
DA:600,0
DA:605,0
DA:610,0
DA:614,0
DA:615,0
DA:620,0
DA:610,0
DA:614,0
DA:615,0
DA:620,0
DA:626,0
DA:634,0
DA:636,0
DA:638,0
DA:639,0
DA:640,0
DA:645,0
DA:646,0
DA:649,0
DA:650,0
DA:651,0
DA:626,0
DA:634,0
DA:636,0
DA:638,0
DA:639,0
DA:640,0
DA:645,0
DA:646,0
DA:649,0
DA:650,0
DA:651,0
DA:626,0
DA:634,0
DA:636,0
DA:638,0
DA:639,0
DA:640,0
DA:645,0
DA:646,0
DA:649,0
DA:650,0
DA:651,0
DA:626,0
DA:634,0
DA:636,0
DA:638,0
DA:639,0
DA:640,0
DA:645,0
DA:646,0
DA:649,0
DA:650,0
DA:651,0
DA:656,0
DA:658,0
DA:659,0
DA:661,0
DA:662,0
DA:664,0
DA:665,0
DA:667,0
DA:668,0
DA:669,0
DA:672,0
DA:656,0
DA:658,0
DA:659,0
DA:661,0
DA:662,0
DA:664,0
DA:665,0
DA:667,0
DA:668,0
DA:669,0
DA:672,0
DA:677,0
DA:679,0
DA:680,0
DA:682,0
DA:684,0
DA:685,0
DA:687,0
DA:688,0
DA:690,0
DA:691,0
DA:692,0
DA:693,0
DA:697,0
DA:698,0
DA:702,0
DA:677,0
DA:679,0
DA:680,0
DA:682,0
DA:684,0
DA:685,0
DA:687,0
DA:688,0
DA:690,0
DA:691,0
DA:692,0
DA:693,0
DA:697,0
DA:698,0
DA:702,0
DA:709,0
DA:726,0
DA:788,0
DA:790,0
DA:791,0
DA:792,0
DA:794,0
DA:797,0
DA:798,0
DA:799,0
DA:802,0
DA:803,0
DA:804,0
DA:805,0
DA:810,0
DA:788,0
DA:790,0
DA:791,0
DA:792,0
DA:794,0
DA:797,0
DA:798,0
DA:799,0
DA:802,0
DA:803,0
DA:804,0
DA:805,0
DA:810,0
DA:814,0
DA:817,0
DA:818,0
DA:814,0
DA:817,0
DA:818,0
DA:822,0
DA:825,0
DA:826,0
DA:822,0
DA:825,0
DA:826,0
DA:830,0
DA:833,0
DA:834,0
DA:830,0
DA:833,0
DA:834,0
DA:838,0
DA:841,0
DA:842,0
DA:838,0
DA:841,0
DA:842,0
DA:848,0
DA:856,0
DA:863,0
DA:870,0
DA:877,0
DA:884,0
DA:891,0
DA:899,0
DA:906,0
DA:913,0
DA:920,0
DA:927,0
DA:934,0
DA:942,0
DA:949,0
DA:956,0
DA:963,0
DA:970,0
DA:975,0
DA:977,0
DA:978,0
DA:980,0
DA:975,0
DA:977,0
DA:978,0
DA:980,0
DA:1006,0
DA:1104,0
DA:1104,0
DA:1104,0
DA:1104,0
DA:1109,0
DA:1109,0
DA:1114,0
DA:1114,0
DA:1116,0
DA:1116,0
DA:1122,0
DA:1124,0
DA:1122,0
DA:1124,0
DA:1127,0
DA:1131,0
DA:1127,0
DA:1131,0
DA:1133,0
DA:1133,0
DA:1134,0
DA:1134,0
DA:1135,0
DA:1137,0
DA:1135,0
DA:1137,0
DA:1140,0
DA:1140,0
DA:1141,0
DA:1141,0
DA:1148,0
DA:1150,0
DA:1148,0
DA:1150,0
DA:1152,0
DA:1154,0
DA:1152,0
DA:1154,0
DA:1156,0
DA:1158,0
DA:1156,0
DA:1158,0
DA:1160,0
DA:1162,0
DA:1160,0
DA:1162,0
DA:1164,0
DA:1166,0
DA:1164,0
DA:1166,0
DA:1168,0
DA:1170,0
DA:1168,0
DA:1170,0
DA:1173,0
DA:1175,0
DA:1173,0
DA:1175,0
DA:1177,0
DA:1179,0
DA:1177,0
DA:1179,0
DA:1181,0
DA:1183,0
DA:1181,0
DA:1183,0
DA:1185,0
DA:1188,0
DA:1185,0
DA:1188,0
DA:1190,0
DA:1193,0
DA:1190,0
DA:1193,0
DA:1195,0
DA:1197,0
DA:1195,0
DA:1197,0
DA:1200,0
DA:1202,0
DA:1200,0
DA:1202,0
DA:1204,0
DA:1206,0
DA:1204,0
DA:1206,0
DA:1208,0
DA:1210,0
DA:1208,0
DA:1210,0
DA:1212,0
DA:1214,0
DA:1212,0
DA:1214,0
DA:1216,0
DA:1219,0
DA:1216,0
DA:1219,0
DA:1221,0
DA:1223,0
DA:1221,0
DA:1223,0
DA:1226,0
DA:1228,0
DA:1226,0
DA:1228,0
DA:1230,0
DA:1232,0
DA:1230,0
DA:1232,0
DA:1234,0
DA:1236,0
DA:1234,0
DA:1236,0
DA:1238,0
DA:1241,0
DA:1238,0
DA:1241,0
DA:1243,0
DA:1246,0
DA:1243,0
DA:1246,0
DA:1248,0
DA:1250,0
DA:1248,0
DA:1250,0
LF:425
LH:0
end_of_record
SF:/home/runner/work/beaver/beaver/moose/framework/build/header_symlinks/DataIO.h
DA:196,0
DA:450,0
DA:451,0
DA:498,0
DA:542,0
DA:803,0
DA:804,0
DA:852,0
DA:895,0
DA:987,0
LF:10
LH:0
end_of_record
SF:/home/runner/work/beaver/beaver/build/header_symlinks/BVStressDivergence.h
LF:0
LH:0
end_of_record
SF:/usr/share/miniconda3/envs/moose/x86_64-conda-linux-gnu/include/c++/12.3.0/streambuf
LF:0
LH:0
end_of_record
SF:/home/runner/work/beaver/beaver/src/kernels/BVSinglePhaseDarcy.C
FN:19,_ZN18BVSinglePhaseDarcy11validParamsEv
FNDA:142,_ZN18BVSinglePhaseDarcy11validParamsEv
FN:27,_ZN18BVSinglePhaseDarcyC2ERK15InputParameters
FNDA:5,_ZN18BVSinglePhaseDarcyC2ERK15InputParameters
FN:33,_ZN18BVSinglePhaseDarcy20precomputeQpResidualEv
FNDA:402464,_ZN18BVSinglePhaseDarcy20precomputeQpResidualEv
FNF:3
FNH:3
DA:19,142
DA:21,142
DA:22,142
DA:24,142
DA:25,0
DA:27,5
DA:28,10
DA:30,5
DA:33,402464
DA:35,402464
LF:10
LH:9
end_of_record
SF:/home/runner/work/beaver/beaver/moose/framework/build/header_symlinks/FaceInfo.h
DA:80,0
DA:83,0
LF:2
LH:0
end_of_record
SF:/usr/share/miniconda3/envs/moose/libmesh/include/Eigen/src/Core/DenseStorage.h
DA:621,0
LF:1
LH:0
end_of_record
SF:/home/runner/work/beaver/beaver/moose/framework/build/header_symlinks/ADTimeKernelValue.h
LF:0
LH:0
end_of_record
SF:/home/runner/work/beaver/beaver/moose/framework/build/header_symlinks/ADKernelValue.h
FN:43,_ZN18ADKernelValueTemplIdE20precomputeQpJacobianEv
FNDA:0,_ZN18ADKernelValueTemplIdE20precomputeQpJacobianEv
FNF:1
FNH:0
DA:43,0
DA:45,0
LF:2
LH:0
end_of_record
SF:/usr/share/miniconda3/envs/moose/x86_64-conda-linux-gnu/include/c++/12.3.0/typeinfo
FN:193,_ZNKSt9type_infoeqERKS_
FNDA:0,_ZNKSt9type_infoeqERKS_
FNF:1
FNH:0
DA:104,0
DA:193,0
DA:198,0
DA:206,0
LF:4
LH:0
end_of_record
SF:/home/runner/work/beaver/beaver/moose/framework/build/header_symlinks/MooseVariableData.h
DA:387,243352
LF:1
LH:1
end_of_record
SF:/usr/share/miniconda3/envs/moose/libmesh/include/timpi/message_tag.h
LF:0
LH:0
end_of_record
SF:/usr/share/miniconda3/envs/moose/x86_64-conda-linux-gnu/include/c++/12.3.0/sstream
DA:918,0
DA:1137,0
LF:2
LH:0
end_of_record
SF:/home/runner/work/beaver/beaver/src/kernels/BVStressDivergence.C
FN:19,_ZN18BVStressDivergence11validParamsEv
FNDA:218,_ZN18BVStressDivergence11validParamsEv
FN:36,_ZN18BVStressDivergenceC2ERK15InputParameters
FNDA:43,_ZN18BVStressDivergenceC2ERK15InputParameters
FN:49,_ZN18BVStressDivergence17computeQpResidualEv
FNDA:10675464,_ZN18BVStressDivergence17computeQpResidualEv
FNF:3
FNH:3
DA:19,218
DA:21,218
DA:22,218
DA:23,436
DA:24,218
DA:25,436
DA:26,436
DA:33,218
DA:34,218
DA:36,43
DA:38,43
DA:39,43
DA:40,86
DA:43,86
DA:44,90
DA:46,43
DA:49,10675464
DA:53,10675464
DA:54,10675464
DA:55,4166144
DA:57,10675464
LF:21
LH:21
end_of_record
SF:/usr/share/miniconda3/envs/moose/x86_64-conda-linux-gnu/include/c++/12.3.0/optional
LF:0
LH:0
end_of_record
SF:/home/runner/work/beaver/beaver/moose/framework/build/header_symlinks/KernelBase.h
LF:0
LH:0
end_of_record
SF:/usr/share/miniconda3/envs/moose/x86_64-conda-linux-gnu/include/c++/12.3.0/bits/stl_set.h
FN:281,_ZNSt3setIsSt4lessIsESaIsEED2Ev
FNDA:0,_ZNSt3setIsSt4lessIsESaIsEED2Ev
FN:281,_ZNSt3setItSt4lessItESaItEED2Ev
FNDA:0,_ZNSt3setItSt4lessItESaItEED2Ev
FNF:2
FNH:0
DA:281,0
DA:281,0
DA:281,218
DA:749,0
LF:4
LH:1
end_of_record
SF:/usr/share/miniconda3/envs/moose/libmesh/include/Eigen/src/Core/util/Memory.h
DA:203,0
LF:1
LH:0
end_of_record
SF:/usr/share/miniconda3/envs/moose/libmesh/include/libmesh/reference_counter.h
DA:152,0
LF:1
LH:0
end_of_record
SF:/usr/share/miniconda3/envs/moose/libmesh/include/libmesh/int_range.h
DA:64,0
DA:65,0
LF:2
LH:0
end_of_record
SF:/usr/share/miniconda3/envs/moose/x86_64-conda-linux-gnu/include/c++/12.3.0/bits/allocated_ptr.h
FN:71,_ZNSt15__allocated_ptrISaISt23_Sp_counted_ptr_inplaceI13RegistryEntryI18BVStressDivergenceESaIvELN9__gnu_cxx12_Lock_policyE2EEEED2Ev
FNDA:26,_ZNSt15__allocated_ptrISaISt23_Sp_counted_ptr_inplaceI13RegistryEntryI18BVStressDivergenceESaIvELN9__gnu_cxx12_Lock_policyE2EEEED2Ev
FN:71,_ZNSt15__allocated_ptrISaISt23_Sp_counted_ptr_inplaceI13RegistryEntryI27BVSinglePhaseTimeDerivativeESaIvELN9__gnu_cxx12_Lock_policyE2EEEED2Ev
FNDA:26,_ZNSt15__allocated_ptrISaISt23_Sp_counted_ptr_inplaceI13RegistryEntryI27BVSinglePhaseTimeDerivativeESaIvELN9__gnu_cxx12_Lock_policyE2EEEED2Ev
FN:71,_ZNSt15__allocated_ptrISaISt23_Sp_counted_ptr_inplaceI13RegistryEntryI18BVSinglePhaseDarcyESaIvELN9__gnu_cxx12_Lock_policyE2EEEED2Ev
FNDA:26,_ZNSt15__allocated_ptrISaISt23_Sp_counted_ptr_inplaceI13RegistryEntryI18BVSinglePhaseDarcyESaIvELN9__gnu_cxx12_Lock_policyE2EEEED2Ev
FN:71,_ZNSt15__allocated_ptrISaISt23_Sp_counted_ptr_inplaceINSt13__future_base13_State_baseV2ESaIvELN9__gnu_cxx12_Lock_policyE2EEEED2Ev
FNDA:0,_ZNSt15__allocated_ptrISaISt23_Sp_counted_ptr_inplaceINSt13__future_base13_State_baseV2ESaIvELN9__gnu_cxx12_Lock_policyE2EEEED2Ev
FN:71,_ZNSt15__allocated_ptrISaISt23_Sp_counted_ptr_inplaceISt5mutexSaIvELN9__gnu_cxx12_Lock_policyE2EEEED2Ev
FNDA:0,_ZNSt15__allocated_ptrISaISt23_Sp_counted_ptr_inplaceISt5mutexSaIvELN9__gnu_cxx12_Lock_policyE2EEEED2Ev
FNF:5
FNH:3
DA:53,0
DA:54,78
DA:71,26
DA:73,26
DA:75,26
DA:71,26
DA:73,26
DA:75,26
DA:71,26
DA:73,26
DA:75,26
DA:71,0
DA:73,0
DA:75,0
DA:71,0
DA:73,0
DA:75,0
DA:81,78
LF:18
LH:11
end_of_record
SF:/home/runner/work/beaver/beaver/build/header_symlinks/BVSinglePhaseTimeDerivative.h
LF:0
LH:0
end_of_record
SF:/home/runner/work/beaver/beaver/build/header_symlinks/BVSinglePhaseDarcy.h
LF:0
LH:0
end_of_record
SF:/home/runner/work/beaver/beaver/moose/framework/build/header_symlinks/ADFunctorInterface.h
FN:27,_ZNK18ADFunctorInterface10isADObjectEv
FNDA:0,_ZNK18ADFunctorInterface10isADObjectEv
FNF:1
FNH:0
DA:27,0
LF:1
LH:0
end_of_record
SF:/home/runner/work/beaver/beaver/moose/framework/build/header_symlinks/ScalarCoupleable.h
LF:0
LH:0
end_of_record
SF:/home/runner/work/beaver/beaver/moose/framework/build/header_symlinks/MooseMesh.h
LF:0
LH:0
end_of_record
SF:/usr/share/miniconda3/envs/moose/x86_64-conda-linux-gnu/include/c++/12.3.0/bits/basic_string.tcc
FN:217,_ZNSt7__cxx1112basic_stringIcSt11char_traitsIcESaIcEE12_M_constructIPcEEvT_S7_St20forward_iterator_tag
FNDA:0,_ZNSt7__cxx1112basic_stringIcSt11char_traitsIcESaIcEE12_M_constructIPcEEvT_S7_St20forward_iterator_tag
FN:217,_ZNSt7__cxx1112basic_stringIcSt11char_traitsIcESaIcEE12_M_constructIPKcEEvT_S8_St20forward_iterator_tag
FNDA:2897,_ZNSt7__cxx1112basic_stringIcSt11char_traitsIcESaIcEE12_M_constructIPKcEEvT_S8_St20forward_iterator_tag
FN:606,_ZStplIcSt11char_traitsIcESaIcEENSt7__cxx1112basic_stringIT_T0_T1_EEPKS5_RKS8_
FNDA:0,_ZStplIcSt11char_traitsIcESaIcEENSt7__cxx1112basic_stringIT_T0_T1_EEPKS5_RKS8_
FNF:3
FNH:1
DA:217,0
DA:221,0
DA:223,0
DA:225,0
DA:226,0
DA:247,0
DA:248,0
DA:217,2897
DA:221,2897
DA:223,2897
DA:225,1416
DA:226,1416
DA:247,2897
DA:248,2897
DA:606,0
DA:618,0
DA:619,0
DA:621,0
LF:18
LH:7
end_of_record
SF:/usr/share/miniconda3/envs/moose/libmesh/include/metaphysicl/dynamicsparsenumberbase.h
FN:48,_ZN11MetaPhysicL23DynamicSparseNumberBaseINS_22DynamicStdArrayWrapperIdNS_8NWrapperILm64EEEEENS1_ImS3_EENS_28SemiDynamicSparseNumberArrayEJdmS3_EE6resizeEm
FNDA:0,_ZN11MetaPhysicL23DynamicSparseNumberBaseINS_22DynamicStdArrayWrapperIdNS_8NWrapperILm64EEEEENS1_ImS3_EENS_28SemiDynamicSparseNumberArrayEJdmS3_EE6resizeEm
FN:282,_ZN11MetaPhysicL23DynamicSparseNumberBaseINS_22DynamicStdArrayWrapperIdNS_8NWrapperILm64EEEEENS1_ImS3_EENS_28SemiDynamicSparseNumberArrayEJdmS3_EE14sparsity_unionIS5_EEvRKT_
FNDA:0,_ZN11MetaPhysicL23DynamicSparseNumberBaseINS_22DynamicStdArrayWrapperIdNS_8NWrapperILm64EEEEENS1_ImS3_EENS_28SemiDynamicSparseNumberArrayEJdmS3_EE14sparsity_unionIS5_EEvRKT_
FN:553,_ZN11MetaPhysicL23DynamicSparseNumberBaseINS_22DynamicStdArrayWrapperIdNS_8NWrapperILm64EEEEENS1_ImS3_EENS_28SemiDynamicSparseNumberArrayEJdmS3_EEpLIJdmS3_EEERNS6_IdmS3_EERKNS6_IDpT_EE
FNDA:9639632,_ZN11MetaPhysicL23DynamicSparseNumberBaseINS_22DynamicStdArrayWrapperIdNS_8NWrapperILm64EEEEENS1_ImS3_EENS_28SemiDynamicSparseNumberArrayEJdmS3_EEpLIJdmS3_EEERNS6_IdmS3_EERKNS6_IDpT_EE
FN:588,_ZN11MetaPhysicL23DynamicSparseNumberBaseINS_22DynamicStdArrayWrapperIdNS_8NWrapperILm64EEEEENS1_ImS3_EENS_28SemiDynamicSparseNumberArrayEJdmS3_EEmIIJdmS3_EEERNS6_IdmS3_EERKNS6_IDpT_EE
FNDA:1028288,_ZN11MetaPhysicL23DynamicSparseNumberBaseINS_22DynamicStdArrayWrapperIdNS_8NWrapperILm64EEEEENS1_ImS3_EENS_28SemiDynamicSparseNumberArrayEJdmS3_EEmIIJdmS3_EEERNS6_IdmS3_EERKNS6_IDpT_EE
FN:950,_ZN11MetaPhysicLmlINS_28SemiDynamicSparseNumberArrayENS_22DynamicStdArrayWrapperIdNS_8NWrapperILm64EEEEENS2_ImS4_EEJdmS4_EdEENS_14MultipliesTypeIT_IJDpT2_EET3_Lb1EvE9supertypeERKSC_RKNS_23DynamicSparseNumberBaseIT0_T1_T_JSA_EEE
FNDA:0,_ZN11MetaPhysicLmlINS_28SemiDynamicSparseNumberArrayENS_22DynamicStdArrayWrapperIdNS_8NWrapperILm64EEEEENS2_ImS4_EEJdmS4_EdEENS_14MultipliesTypeIT_IJDpT2_EET3_Lb1EvE9supertypeERKSC_RKNS_23DynamicSparseNumberBaseIT0_T1_T_JSA_EEE
FN:972,_ZN11MetaPhysicLmlINS_28SemiDynamicSparseNumberArrayENS_22DynamicStdArrayWrapperIdNS_8NWrapperILm64EEEEENS2_ImS4_EEJdmS4_EdEENS_14MultipliesTypeIT_IJDpT2_EET3_Lb0EvE9supertypeERKNS_23DynamicSparseNumberBaseIT0_T1_T_JSA_EEERKSC_
FNDA:0,_ZN11MetaPhysicLmlINS_28SemiDynamicSparseNumberArrayENS_22DynamicStdArrayWrapperIdNS_8NWrapperILm64EEEEENS2_ImS4_EEJdmS4_EdEENS_14MultipliesTypeIT_IJDpT2_EET3_Lb0EvE9supertypeERKNS_23DynamicSparseNumberBaseIT0_T1_T_JSA_EEERKSC_
FN:993,_ZN11MetaPhysicLdvINS_28SemiDynamicSparseNumberArrayENS_22DynamicStdArrayWrapperIdNS_8NWrapperILm64EEEEENS2_ImS4_EEJdmS4_EdEENS_11DividesTypeIT_IJDpT2_EET3_Lb0EvE9supertypeERKNS_23DynamicSparseNumberBaseIT0_T1_T_JSA_EEERKSC_
FNDA:0,_ZN11MetaPhysicLdvINS_28SemiDynamicSparseNumberArrayENS_22DynamicStdArrayWrapperIdNS_8NWrapperILm64EEEEENS2_ImS4_EEJdmS4_EdEENS_11DividesTypeIT_IJDpT2_EET3_Lb0EvE9supertypeERKNS_23DynamicSparseNumberBaseIT0_T1_T_JSA_EEERKSC_
FNF:7
FNH:2
DA:48,0
DA:50,0
DA:51,0
DA:55,42701856
DA:99,0
DA:129,10667920
DA:282,0
DA:304,0
DA:305,0
DA:306,0
DA:308,0
DA:309,0
DA:310,0
DA:313,0
DA:314,0
DA:315,0
DA:316,0
DA:317,0
DA:318,0
DA:321,0
DA:322,0
DA:323,0
DA:324,0
DA:326,0
DA:331,0
DA:336,0
DA:357,0
DA:358,0
DA:359,0
DA:360,0
DA:361,0
DA:362,0
DA:365,0
DA:366,0
DA:370,0
DA:371,0
DA:553,9639632
DA:556,9639632
DA:564,175755952
DA:566,166116320
DA:567,166116320
DA:569,323107152
DA:570,156990832
DA:571,156990832
DA:573,156990832
DA:577,166116320
DA:580,9639632
DA:588,1028288
DA:591,1028288
DA:599,1028288
DA:601,0
DA:602,0
DA:604,0
DA:605,0
DA:606,0
DA:608,0
DA:612,0
DA:615,1028288
DA:693,1028288
DA:694,0
DA:705,945080
DA:706,782944
DA:950,0
DA:952,0
DA:956,0
DA:958,0
DA:959,0
DA:960,0
DA:963,0
DA:972,0
DA:974,0
DA:978,0
DA:980,0
DA:981,0
DA:982,0
DA:984,0
DA:993,0
DA:995,0
DA:998,0
DA:1000,0
DA:1001,0
DA:1002,0
DA:1005,0
LF:83
LH:20
end_of_record
SF:/usr/share/miniconda3/envs/moose/libmesh/include/metaphysicl/dynamicsparsenumberbase_decl.h
FN:72,_ZN11MetaPhysicL23DynamicSparseNumberBaseINS_22DynamicStdArrayWrapperIdNS_8NWrapperILm64EEEEENS1_ImS3_EENS_28SemiDynamicSparseNumberArrayEJdmS3_EEC2EOS7_
FNDA:0,_ZN11MetaPhysicL23DynamicSparseNumberBaseINS_22DynamicStdArrayWrapperIdNS_8NWrapperILm64EEEEENS1_ImS3_EENS_28SemiDynamicSparseNumberArrayEJdmS3_EEC2EOS7_
FN:75,_ZN11MetaPhysicL23DynamicSparseNumberBaseINS_22DynamicStdArrayWrapperIdNS_8NWrapperILm64EEEEENS1_ImS3_EENS_28SemiDynamicSparseNumberArrayEJdmS3_EEaSEOS7_
FNDA:14073840,_ZN11MetaPhysicL23DynamicSparseNumberBaseINS_22DynamicStdArrayWrapperIdNS_8NWrapperILm64EEEEENS1_ImS3_EENS_28SemiDynamicSparseNumberArrayEJdmS3_EEaSEOS7_
FN:81,_ZN11MetaPhysicL23DynamicSparseNumberBaseINS_22DynamicStdArrayWrapperIdNS_8NWrapperILm64EEEEENS1_ImS3_EENS_28SemiDynamicSparseNumberArrayEJdmS3_EEaSERKS7_
FNDA:14073840,_ZN11MetaPhysicL23DynamicSparseNumberBaseINS_22DynamicStdArrayWrapperIdNS_8NWrapperILm64EEEEENS1_ImS3_EENS_28SemiDynamicSparseNumberArrayEJdmS3_EEaSERKS7_
FNF:3
FNH:2
DA:72,0
DA:75,14073840
DA:81,14073840
LF:3
LH:2
end_of_record
SF:/home/runner/work/beaver/beaver/moose/framework/build/header_symlinks/Coupleable.h
FN:135,_ZNK10Coupleable15coupledCallbackERKNSt7__cxx1112basic_stringIcSt11char_traitsIcESaIcEEEb
FNDA:0,_ZNK10Coupleable15coupledCallbackERKNSt7__cxx1112basic_stringIcSt11char_traitsIcESaIcEEEb
FNF:1
FNH:0
DA:135,0
LF:1
LH:0
end_of_record
SF:/usr/share/miniconda3/envs/moose/libmesh/include/libmesh/parallel_object.h
DA:91,0
LF:1
LH:0
end_of_record
SF:/usr/share/miniconda3/envs/moose/x86_64-conda-linux-gnu/include/c++/12.3.0/bits/unique_ptr.h
FN:89,_ZNKSt14default_deleteI10MooseArrayIdEEclEPS1_
FNDA:0,_ZNKSt14default_deleteI10MooseArrayIdEEclEPS1_
FN:89,_ZNKSt14default_deleteI10MooseArrayIN7libMesh11VectorValueIN11MetaPhysicL10DualNumberIdNS3_28SemiDynamicSparseNumberArrayIdmNS3_8NWrapperILm64EEEEELb1EEEEEEEclEPSB_
FNDA:0,_ZNKSt14default_deleteI10MooseArrayIN7libMesh11VectorValueIN11MetaPhysicL10DualNumberIdNS3_28SemiDynamicSparseNumberArrayIdmNS3_8NWrapperILm64EEEEELb1EEEEEEEclEPSB_
FN:89,_ZNKSt14default_deleteI10MooseArrayIN5Eigen6MatrixIdLin1ELi1ELi0ELin1ELi1EEEEEclEPS4_
FNDA:0,_ZNKSt14default_deleteI10MooseArrayIN5Eigen6MatrixIdLin1ELi1ELi0ELin1ELi1EEEEEclEPS4_
FN:89,_ZNKSt14default_deleteI10MooseArrayIN7libMesh11VectorValueIdEEEEclEPS4_
FNDA:0,_ZNKSt14default_deleteI10MooseArrayIN7libMesh11VectorValueIdEEEEclEPS4_
FN:89,_ZNKSt14default_deleteI10MooseArrayIN11MetaPhysicL10DualNumberIdNS1_28SemiDynamicSparseNumberArrayIdmNS1_8NWrapperILm64EEEEELb1EEEEEclEPS8_
FNDA:0,_ZNKSt14default_deleteI10MooseArrayIN11MetaPhysicL10DualNumberIdNS1_28SemiDynamicSparseNumberArrayIdmNS1_8NWrapperILm64EEEEELb1EEEEEclEPS8_
FN:128,_ZNKSt14default_deleteIA_18RankTwoTensorTemplIN11MetaPhysicL10DualNumberIdNS1_28SemiDynamicSparseNumberArrayIdmNS1_8NWrapperILm64EEEEELb1EEEEEclIS8_EENSt9enable_ifIXsrSt14is_convertibleIPA_T_PS9_E5valueEvE4typeEPSE_
FNDA:0,_ZNKSt14default_deleteIA_18RankTwoTensorTemplIN11MetaPhysicL10DualNumberIdNS1_28SemiDynamicSparseNumberArrayIdmNS1_8NWrapperILm64EEEEELb1EEEEEclIS8_EENSt9enable_ifIXsrSt14is_convertibleIPA_T_PS9_E5valueEvE4typeEPSE_
FN:128,_ZNKSt14default_deleteIA_N11MetaPhysicL10DualNumberIdNS0_28SemiDynamicSparseNumberArrayIdmNS0_8NWrapperILm64EEEEELb1EEEEclIS6_EENSt9enable_ifIXsrSt14is_convertibleIPA_T_PS7_E5valueEvE4typeEPSC_
FNDA:0,_ZNKSt14default_deleteIA_N11MetaPhysicL10DualNumberIdNS0_28SemiDynamicSparseNumberArrayIdmNS0_8NWrapperILm64EEEEELb1EEEEclIS6_EENSt9enable_ifIXsrSt14is_convertibleIPA_T_PS7_E5valueEvE4typeEPSC_
FN:128,_ZNKSt14default_deleteIA_N5Eigen6MatrixIdLin1ELi3ELi0ELin1ELi3EEEEclIS2_EENSt9enable_ifIXsrSt14is_convertibleIPA_T_PS3_E5valueEvE4typeEPS8_
FNDA:0,_ZNKSt14default_deleteIA_N5Eigen6MatrixIdLin1ELi3ELi0ELin1ELi3EEEEclIS2_EENSt9enable_ifIXsrSt14is_convertibleIPA_T_PS3_E5valueEvE4typeEPS8_
FN:128,_ZNKSt14default_deleteIA_N5Eigen6MatrixIdLin1ELi1ELi0ELin1ELi1EEEEclIS2_EENSt9enable_ifIXsrSt14is_convertibleIPA_T_PS3_E5valueEvE4typeEPS8_
FNDA:0,_ZNKSt14default_deleteIA_N5Eigen6MatrixIdLin1ELi1ELi0ELin1ELi1EEEEclIS2_EENSt9enable_ifIXsrSt14is_convertibleIPA_T_PS3_E5valueEvE4typeEPS8_
FN:128,_ZNKSt14default_deleteIA_18RankTwoTensorTemplIdEEclIS1_EENSt9enable_ifIXsrSt14is_convertibleIPA_T_PS2_E5valueEvE4typeEPS7_
FNDA:0,_ZNKSt14default_deleteIA_18RankTwoTensorTemplIdEEclIS1_EENSt9enable_ifIXsrSt14is_convertibleIPA_T_PS2_E5valueEvE4typeEPS7_
FN:128,_ZNKSt14default_deleteIA_N7libMesh11TensorValueIdEEEclIS2_EENSt9enable_ifIXsrSt14is_convertibleIPA_T_PS3_E5valueEvE4typeEPS8_
FNDA:0,_ZNKSt14default_deleteIA_N7libMesh11TensorValueIdEEEclIS2_EENSt9enable_ifIXsrSt14is_convertibleIPA_T_PS3_E5valueEvE4typeEPS8_
FN:128,_ZNKSt14default_deleteIA_N7libMesh11TensorValueIN11MetaPhysicL10DualNumberIdNS2_28SemiDynamicSparseNumberArrayIdmNS2_8NWrapperILm64EEEEELb1EEEEEEclIS9_EENSt9enable_ifIXsrSt14is_convertibleIPA_T_PSA_E5valueEvE4typeEPSF_
FNDA:0,_ZNKSt14default_deleteIA_N7libMesh11TensorValueIN11MetaPhysicL10DualNumberIdNS2_28SemiDynamicSparseNumberArrayIdmNS2_8NWrapperILm64EEEEELb1EEEEEEclIS9_EENSt9enable_ifIXsrSt14is_convertibleIPA_T_PSA_E5valueEvE4typeEPSF_
FN:128,_ZNKSt14default_deleteIA_N7libMesh11VectorValueIN11MetaPhysicL10DualNumberIdNS2_28SemiDynamicSparseNumberArrayIdmNS2_8NWrapperILm64EEEEELb1EEEEEEclIS9_EENSt9enable_ifIXsrSt14is_convertibleIPA_T_PSA_E5valueEvE4typeEPSF_
FNDA:0,_ZNKSt14default_deleteIA_N7libMesh11VectorValueIN11MetaPhysicL10DualNumberIdNS2_28SemiDynamicSparseNumberArrayIdmNS2_8NWrapperILm64EEEEELb1EEEEEEclIS9_EENSt9enable_ifIXsrSt14is_convertibleIPA_T_PSA_E5valueEvE4typeEPSF_
FN:181,_ZNSt15__uniq_ptr_implI13PropertyValueSt14default_deleteIS0_EEaSEOS3_
FNDA:0,_ZNSt15__uniq_ptr_implI13PropertyValueSt14default_deleteIS0_EEaSEOS3_
FN:181,_ZNSt15__uniq_ptr_implIN7libMesh10Parameters5ValueESt14default_deleteIS2_EEaSEOS5_
FNDA:0,_ZNSt15__uniq_ptr_implIN7libMesh10Parameters5ValueESt14default_deleteIS2_EEaSEOS5_
FN:390,_ZNSt10unique_ptrIN7libMesh10Parameters9ParameterIP13FEProblemBaseEESt14default_deleteIS5_EED2Ev
FNDA:0,_ZNSt10unique_ptrIN7libMesh10Parameters9ParameterIP13FEProblemBaseEESt14default_deleteIS5_EED2Ev
FN:390,_ZNSt10unique_ptrI10MooseArrayIN11MetaPhysicL10DualNumberIdNS1_28SemiDynamicSparseNumberArrayIdmNS1_8NWrapperILm64EEEEELb1EEEESt14default_deleteIS8_EED2Ev
FNDA:0,_ZNSt10unique_ptrI10MooseArrayIN11MetaPhysicL10DualNumberIdNS1_28SemiDynamicSparseNumberArrayIdmNS1_8NWrapperILm64EEEEELb1EEEESt14default_deleteIS8_EED2Ev
FN:390,_ZNSt10unique_ptrI10MooseArrayIN7libMesh11VectorValueIdEEESt14default_deleteIS4_EED2Ev
FNDA:0,_ZNSt10unique_ptrI10MooseArrayIN7libMesh11VectorValueIdEEESt14default_deleteIS4_EED2Ev
FN:390,_ZNSt10unique_ptrI10MooseArrayIN5Eigen6MatrixIdLin1ELi1ELi0ELin1ELi1EEEESt14default_deleteIS4_EED2Ev
FNDA:0,_ZNSt10unique_ptrI10MooseArrayIN5Eigen6MatrixIdLin1ELi1ELi0ELin1ELi1EEEESt14default_deleteIS4_EED2Ev
FN:390,_ZNSt10unique_ptrIdSt14default_deleteIdEED2Ev
FNDA:0,_ZNSt10unique_ptrIdSt14default_deleteIdEED2Ev
FN:390,_ZNSt10unique_ptrI33OptionalMaterialPropertyProxyBaseI25MaterialPropertyInterfaceESt14default_deleteIS2_EED2Ev
FNDA:0,_ZNSt10unique_ptrI33OptionalMaterialPropertyProxyBaseI25MaterialPropertyInterfaceESt14default_deleteIS2_EED2Ev
FN:390,_ZNSt10unique_ptrI13PropertyValueSt14default_deleteIS0_EED2Ev
FNDA:0,_ZNSt10unique_ptrI13PropertyValueSt14default_deleteIS0_EED2Ev
FN:390,_ZNSt10unique_ptrI18ADMaterialPropertyIdESt14default_deleteIS1_EED2Ev
FNDA:0,_ZNSt10unique_ptrI18ADMaterialPropertyIdESt14default_deleteIS1_EED2Ev
FN:390,_ZNSt10unique_ptrIN7libMesh10Parameters9ParameterIbEESt14default_deleteIS3_EED2Ev
FNDA:0,_ZNSt10unique_ptrIN7libMesh10Parameters9ParameterIbEESt14default_deleteIS3_EED2Ev
FN:390,_ZNSt10unique_ptrI10MooseArrayIN7libMesh11VectorValueIN11MetaPhysicL10DualNumberIdNS3_28SemiDynamicSparseNumberArrayIdmNS3_8NWrapperILm64EEEEELb1EEEEEESt14default_deleteISB_EED2Ev
FNDA:0,_ZNSt10unique_ptrI10MooseArrayIN7libMesh11VectorValueIN11MetaPhysicL10DualNumberIdNS3_28SemiDynamicSparseNumberArrayIdmNS3_8NWrapperILm64EEEEELb1EEEEEESt14default_deleteISB_EED2Ev
FN:390,_ZNSt10unique_ptrINSt13__future_base12_Result_baseENS1_8_DeleterEED2Ev
FNDA:0,_ZNSt10unique_ptrINSt13__future_base12_Result_baseENS1_8_DeleterEED2Ev
FN:390,_ZNSt10unique_ptrIN7libMesh10Parameters5ValueESt14default_deleteIS2_EED2Ev
FNDA:0,_ZNSt10unique_ptrIN7libMesh10Parameters5ValueESt14default_deleteIS2_EED2Ev
FN:390,_ZNSt10unique_ptrI18BVSinglePhaseDarcySt14default_deleteIS0_EED2Ev
FNDA:5,_ZNSt10unique_ptrI18BVSinglePhaseDarcySt14default_deleteIS0_EED2Ev
FN:390,_ZNSt10unique_ptrI18BVStressDivergenceSt14default_deleteIS0_EED2Ev
FNDA:43,_ZNSt10unique_ptrI18BVStressDivergenceSt14default_deleteIS0_EED2Ev
FN:390,_ZNSt10unique_ptrI10MooseArrayIdESt14default_deleteIS1_EED2Ev
FNDA:0,_ZNSt10unique_ptrI10MooseArrayIdESt14default_deleteIS1_EED2Ev
FN:390,_ZNSt10unique_ptrI16MaterialPropertyI18RankTwoTensorTemplIdEESt14default_deleteIS3_EED2Ev
FNDA:0,_ZNSt10unique_ptrI16MaterialPropertyI18RankTwoTensorTemplIdEESt14default_deleteIS3_EED2Ev
FN:390,_ZNSt10unique_ptrI18ADMaterialPropertyI18RankTwoTensorTemplIdEESt14default_deleteIS3_EED2Ev
FNDA:0,_ZNSt10unique_ptrI18ADMaterialPropertyI18RankTwoTensorTemplIdEESt14default_deleteIS3_EED2Ev
FN:390,_ZNSt10unique_ptrI27BVSinglePhaseTimeDerivativeSt14default_deleteIS0_EED2Ev
FNDA:3,_ZNSt10unique_ptrI27BVSinglePhaseTimeDerivativeSt14default_deleteIS0_EED2Ev
FN:390,_ZNSt10unique_ptrIN5Moose11FunctorBaseIN11MetaPhysicL10DualNumberIdNS2_28SemiDynamicSparseNumberArrayIdmNS2_8NWrapperILm64EEEEELb1EEEEESt14default_deleteIS9_EED2Ev
FNDA:0,_ZNSt10unique_ptrIN5Moose11FunctorBaseIN11MetaPhysicL10DualNumberIdNS2_28SemiDynamicSparseNumberArrayIdmNS2_8NWrapperILm64EEEEELb1EEEEESt14default_deleteIS9_EED2Ev
FN:390,_ZNSt10unique_ptrIN5Moose11FunctorBaseIdEESt14default_deleteIS2_EED2Ev
FNDA:0,_ZNSt10unique_ptrIN5Moose11FunctorBaseIdEESt14default_deleteIS2_EED2Ev
FN:390,_ZNSt10unique_ptrI16MaterialPropertyIdESt14default_deleteIS1_EED2Ev
FNDA:0,_ZNSt10unique_ptrI16MaterialPropertyIdESt14default_deleteIS1_EED2Ev
FN:422,_ZNSt10unique_ptrIN7libMesh10Parameters5ValueESt14default_deleteIS2_EEaSINS1_9ParameterIbEES3_IS8_EEENSt9enable_ifIXsrSt6__and_IJSB_IJSt14is_convertibleINS_IT_T0_E7pointerEPS2_ESt6__not_ISt8is_arrayISD_EEEESt13is_assignableIRS4_OSE_EEE5valueERS5_E4typeEOSF_
FNDA:0,_ZNSt10unique_ptrIN7libMesh10Parameters5ValueESt14default_deleteIS2_EEaSINS1_9ParameterIbEES3_IS8_EEENSt9enable_ifIXsrSt6__and_IJSB_IJSt14is_convertibleINS_IT_T0_E7pointerEPS2_ESt6__not_ISt8is_arrayISD_EEEESt13is_assignableIRS4_OSE_EEE5valueERS5_E4typeEOSF_
FN:665,_ZNSt10unique_ptrIA_N11MetaPhysicL10DualNumberIdNS0_28SemiDynamicSparseNumberArrayIdmNS0_8NWrapperILm64EEEEELb1EEESt14default_deleteIS7_EED2Ev
FNDA:0,_ZNSt10unique_ptrIA_N11MetaPhysicL10DualNumberIdNS0_28SemiDynamicSparseNumberArrayIdmNS0_8NWrapperILm64EEEEELb1EEESt14default_deleteIS7_EED2Ev
FN:665,_ZNSt10unique_ptrIA_N7libMesh11VectorValueIN11MetaPhysicL10DualNumberIdNS2_28SemiDynamicSparseNumberArrayIdmNS2_8NWrapperILm64EEEEELb1EEEEESt14default_deleteISA_EED2Ev
FNDA:0,_ZNSt10unique_ptrIA_N7libMesh11VectorValueIN11MetaPhysicL10DualNumberIdNS2_28SemiDynamicSparseNumberArrayIdmNS2_8NWrapperILm64EEEEELb1EEEEESt14default_deleteISA_EED2Ev
FN:665,_ZNSt10unique_ptrIA_N7libMesh11TensorValueIN11MetaPhysicL10DualNumberIdNS2_28SemiDynamicSparseNumberArrayIdmNS2_8NWrapperILm64EEEEELb1EEEEESt14default_deleteISA_EED2Ev
FNDA:0,_ZNSt10unique_ptrIA_N7libMesh11TensorValueIN11MetaPhysicL10DualNumberIdNS2_28SemiDynamicSparseNumberArrayIdmNS2_8NWrapperILm64EEEEELb1EEEEESt14default_deleteISA_EED2Ev
FN:665,_ZNSt10unique_ptrIA_N7libMesh11TensorValueIdEESt14default_deleteIS3_EED2Ev
FNDA:0,_ZNSt10unique_ptrIA_N7libMesh11TensorValueIdEESt14default_deleteIS3_EED2Ev
FN:665,_ZNSt10unique_ptrIA_18RankTwoTensorTemplIN11MetaPhysicL10DualNumberIdNS1_28SemiDynamicSparseNumberArrayIdmNS1_8NWrapperILm64EEEEELb1EEEESt14default_deleteIS9_EED2Ev
FNDA:0,_ZNSt10unique_ptrIA_18RankTwoTensorTemplIN11MetaPhysicL10DualNumberIdNS1_28SemiDynamicSparseNumberArrayIdmNS1_8NWrapperILm64EEEEELb1EEEESt14default_deleteIS9_EED2Ev
FN:665,_ZNSt10unique_ptrIA_18RankTwoTensorTemplIdESt14default_deleteIS2_EED2Ev
FNDA:0,_ZNSt10unique_ptrIA_18RankTwoTensorTemplIdESt14default_deleteIS2_EED2Ev
FN:665,_ZNSt10unique_ptrIA_N5Eigen6MatrixIdLin1ELi1ELi0ELin1ELi1EEESt14default_deleteIS3_EED2Ev
FNDA:0,_ZNSt10unique_ptrIA_N5Eigen6MatrixIdLin1ELi1ELi0ELin1ELi1EEESt14default_deleteIS3_EED2Ev
FN:665,_ZNSt10unique_ptrIA_N5Eigen6MatrixIdLin1ELi3ELi0ELin1ELi3EEESt14default_deleteIS3_EED2Ev
FNDA:0,_ZNSt10unique_ptrIA_N5Eigen6MatrixIdLin1ELi3ELi0ELin1ELi3EEESt14default_deleteIS3_EED2Ev
FN:1064,_ZSt11make_uniqueI18BVSinglePhaseDarcyJRK15InputParametersEENSt8__detail9_MakeUniqIT_E15__single_objectEDpOT0_
FNDA:5,_ZSt11make_uniqueI18BVSinglePhaseDarcyJRK15InputParametersEENSt8__detail9_MakeUniqIT_E15__single_objectEDpOT0_
FN:1064,_ZSt11make_uniqueIN7libMesh10Parameters9ParameterIP13FEProblemBaseEEJEENSt8__detail9_MakeUniqIT_E15__single_objectEDpOT0_
FNDA:0,_ZSt11make_uniqueIN7libMesh10Parameters9ParameterIP13FEProblemBaseEEJEENSt8__detail9_MakeUniqIT_E15__single_objectEDpOT0_
FN:1064,_ZSt11make_uniqueI27BVSinglePhaseTimeDerivativeJRK15InputParametersEENSt8__detail9_MakeUniqIT_E15__single_objectEDpOT0_
FNDA:3,_ZSt11make_uniqueI27BVSinglePhaseTimeDerivativeJRK15InputParametersEENSt8__detail9_MakeUniqIT_E15__single_objectEDpOT0_
FN:1064,_ZSt11make_uniqueI18BVStressDivergenceJRK15InputParametersEENSt8__detail9_MakeUniqIT_E15__single_objectEDpOT0_
FNDA:43,_ZSt11make_uniqueI18BVStressDivergenceJRK15InputParametersEENSt8__detail9_MakeUniqIT_E15__single_objectEDpOT0_
FN:1064,_ZSt11make_uniqueI16MaterialPropertyI18RankTwoTensorTemplIdEEJjEENSt8__detail9_MakeUniqIT_E15__single_objectEDpOT0_
FNDA:0,_ZSt11make_uniqueI16MaterialPropertyI18RankTwoTensorTemplIdEEJjEENSt8__detail9_MakeUniqIT_E15__single_objectEDpOT0_
FN:1064,_ZSt11make_uniqueIN7libMesh10Parameters9ParameterIbEEJEENSt8__detail9_MakeUniqIT_E15__single_objectEDpOT0_
FNDA:0,_ZSt11make_uniqueIN7libMesh10Parameters9ParameterIbEEJEENSt8__detail9_MakeUniqIT_E15__single_objectEDpOT0_
FN:1064,_ZSt11make_uniqueI16MaterialPropertyI18RankTwoTensorTemplIdEEJRKjEENSt8__detail9_MakeUniqIT_E15__single_objectEDpOT0_
FNDA:0,_ZSt11make_uniqueI16MaterialPropertyI18RankTwoTensorTemplIdEEJRKjEENSt8__detail9_MakeUniqIT_E15__single_objectEDpOT0_
FN:1064,_ZSt11make_uniqueI18ADMaterialPropertyIdEJRKjEENSt8__detail9_MakeUniqIT_E15__single_objectEDpOT0_
FNDA:0,_ZSt11make_uniqueI18ADMaterialPropertyIdEJRKjEENSt8__detail9_MakeUniqIT_E15__single_objectEDpOT0_
FN:1064,_ZSt11make_uniqueI18ADMaterialPropertyI18RankTwoTensorTemplIdEEJRKjEENSt8__detail9_MakeUniqIT_E15__single_objectEDpOT0_
FNDA:0,_ZSt11make_uniqueI18ADMaterialPropertyI18RankTwoTensorTemplIdEEJRKjEENSt8__detail9_MakeUniqIT_E15__single_objectEDpOT0_
FN:1064,_ZSt11make_uniqueI16MaterialPropertyIdEJRKjEENSt8__detail9_MakeUniqIT_E15__single_objectEDpOT0_
FNDA:0,_ZSt11make_uniqueI16MaterialPropertyIdEJRKjEENSt8__detail9_MakeUniqIT_E15__single_objectEDpOT0_
FN:1064,_ZSt11make_uniqueI16MaterialPropertyIdEJjEENSt8__detail9_MakeUniqIT_E15__single_objectEDpOT0_
FNDA:0,_ZSt11make_uniqueI16MaterialPropertyIdEJjEENSt8__detail9_MakeUniqIT_E15__single_objectEDpOT0_
FNF:56
FNH:6
DA:89,0
DA:95,0
DA:96,0
DA:89,0
DA:95,0
DA:96,0
DA:89,0
DA:95,0
DA:96,0
DA:89,0
DA:95,0
DA:96,0
DA:89,0
DA:95,0
DA:96,0
DA:95,0
DA:96,0
DA:128,0
DA:132,0
DA:133,0
DA:128,0
DA:132,0
DA:133,0
DA:128,0
DA:132,0
DA:133,0
DA:128,0
DA:132,0
DA:133,0
DA:128,0
DA:132,0
DA:133,0
DA:128,0
DA:132,0
DA:133,0
DA:128,0
DA:132,0
DA:133,0
DA:128,0
DA:132,0
DA:133,0
DA:132,0
DA:133,0
DA:168,51
DA:178,0
DA:181,0
DA:185,0
DA:181,0
DA:185,0
DA:191,0
DA:200,0
DA:201,0
DA:202,0
DA:203,0
DA:209,51
DA:210,51
DA:235,0
DA:390,0
DA:395,0
DA:396,0
DA:398,0
DA:390,0
DA:395,0
DA:398,0
DA:390,0
DA:395,0
DA:398,0
DA:390,0
DA:395,0
DA:398,0
DA:390,0
DA:395,0
DA:398,0
DA:390,0
DA:395,0
DA:398,0
DA:390,0
DA:395,0
DA:398,0
DA:390,0
DA:395,0
DA:398,0
DA:390,0
DA:395,0
DA:398,0
DA:390,0
DA:395,0
DA:396,0
DA:398,0
DA:390,0
DA:395,0
DA:396,0
DA:398,0
DA:390,5
DA:395,5
DA:398,5
DA:390,0
DA:395,0
DA:396,0
DA:398,0
DA:390,0
DA:395,0
DA:396,0
DA:398,0
DA:390,0
DA:395,0
DA:398,0
DA:390,0
DA:395,0
DA:398,0
DA:390,0
DA:395,0
DA:398,0
DA:390,0
DA:395,0
DA:398,0
DA:390,0
DA:395,0
DA:398,0
DA:390,43
DA:395,43
DA:398,43
DA:390,3
DA:395,3
DA:398,3
DA:395,0
DA:398,0
DA:422,0
DA:426,0
DA:665,0
DA:668,0
DA:669,0
DA:671,0
DA:665,0
DA:668,0
DA:669,0
DA:671,0
DA:665,0
DA:668,0
DA:669,0
DA:671,0
DA:665,0
DA:668,0
DA:669,0
DA:671,0
DA:665,0
DA:668,0
DA:669,0
DA:671,0
DA:665,0
DA:668,0
DA:669,0
DA:671,0
DA:665,0
DA:668,0
DA:669,0
DA:671,0
DA:665,0
DA:668,0
DA:669,0
DA:671,0
DA:668,0
DA:1064,0
DA:1065,0
DA:1064,5
DA:1065,5
DA:1064,3
DA:1065,3
DA:1064,43
DA:1065,43
DA:1064,0
DA:1065,0
DA:1064,0
DA:1065,0
DA:1064,0
DA:1065,0
DA:1064,0
DA:1065,0
DA:1064,0
DA:1065,0
DA:1064,0
DA:1065,0
DA:1064,0
DA:1065,0
LF:184
LH:18
end_of_record
SF:/usr/share/miniconda3/envs/moose/libmesh/include/metaphysicl/raw_type.h
DA:73,0
DA:88,0
LF:2
LH:0
end_of_record
SF:/usr/share/miniconda3/envs/moose/x86_64-conda-linux-gnu/include/c++/12.3.0/bits/stl_map.h
FN:502,_ZNSt3mapINSt7__cxx1112basic_stringIcSt11char_traitsIcESaIcEEESt6vectorISt10shared_ptrI17RegistryEntryBaseESaIS9_EESt4lessIS5_ESaISt4pairIKS5_SB_EEEixERSF_
FNDA:0,_ZNSt3mapINSt7__cxx1112basic_stringIcSt11char_traitsIcESaIcEEESt6vectorISt10shared_ptrI17RegistryEntryBaseESaIS9_EESt4lessIS5_ESaISt4pairIKS5_SB_EEEixERSF_
FN:502,_ZNSt3mapINSt7__cxx1112basic_stringIcSt11char_traitsIcESaIcEEEN15InputParameters8MetadataESt4lessIS5_ESaISt4pairIKS5_S7_EEEixERSB_
FNDA:0,_ZNSt3mapINSt7__cxx1112basic_stringIcSt11char_traitsIcESaIcEEEN15InputParameters8MetadataESt4lessIS5_ESaISt4pairIKS5_S7_EEEixERSB_
FN:502,_ZNSt3mapINSt7__cxx1112basic_stringIcSt11char_traitsIcESaIcEEESt10unique_ptrIN7libMesh10Parameters5ValueESt14default_deleteIS9_EESt4lessIvESaISt4pairIKS5_SC_EEEixERSG_
FNDA:0,_ZNSt3mapINSt7__cxx1112basic_stringIcSt11char_traitsIcESaIcEEESt10unique_ptrIN7libMesh10Parameters5ValueESt14default_deleteIS9_EESt4lessIvESaISt4pairIKS5_SC_EEEixERSG_
FN:522,_ZNSt3mapINSt7__cxx1112basic_stringIcSt11char_traitsIcESaIcEEES5_St4lessIS5_ESaISt4pairIKS5_S5_EEEixEOS5_
FNDA:0,_ZNSt3mapINSt7__cxx1112basic_stringIcSt11char_traitsIcESaIcEEES5_St4lessIS5_ESaISt4pairIKS5_S5_EEEixEOS5_
FN:721,_ZNSt3mapIN5Moose7FaceArgEdSt4lessIS1_ESaISt4pairIKS1_dEEE11try_emplaceIJdEEES4_ISt17_Rb_tree_iteratorIS6_EbERS5_DpOT_
FNDA:0,_ZNSt3mapIN5Moose7FaceArgEdSt4lessIS1_ESaISt4pairIKS1_dEEE11try_emplaceIJdEEES4_ISt17_Rb_tree_iteratorIS6_EbERS5_DpOT_
FN:721,_ZNSt3mapIN5Moose7ElemArgEdSt4lessIS1_ESaISt4pairIKS1_dEEE11try_emplaceIJdEEES4_ISt17_Rb_tree_iteratorIS6_EbERS5_DpOT_
FNDA:0,_ZNSt3mapIN5Moose7ElemArgEdSt4lessIS1_ESaISt4pairIKS1_dEEE11try_emplaceIJdEEES4_ISt17_Rb_tree_iteratorIS6_EbERS5_DpOT_
FN:721,_ZNSt3mapIN5Moose7FaceArgEN11MetaPhysicL10DualNumberIdNS2_28SemiDynamicSparseNumberArrayIdmNS2_8NWrapperILm64EEEEELb1EEESt4lessIS1_ESaISt4pairIKS1_S8_EEE11try_emplaceIJS8_EEESB_ISt17_Rb_tree_iteratorISD_EbERSC_DpOT_
FNDA:0,_ZNSt3mapIN5Moose7FaceArgEN11MetaPhysicL10DualNumberIdNS2_28SemiDynamicSparseNumberArrayIdmNS2_8NWrapperILm64EEEEELb1EEESt4lessIS1_ESaISt4pairIKS1_S8_EEE11try_emplaceIJS8_EEESB_ISt17_Rb_tree_iteratorISD_EbERSC_DpOT_
FN:721,_ZNSt3mapIN5Moose7ElemArgEN11MetaPhysicL10DualNumberIdNS2_28SemiDynamicSparseNumberArrayIdmNS2_8NWrapperILm64EEEEELb1EEESt4lessIS1_ESaISt4pairIKS1_S8_EEE11try_emplaceIJS8_EEESB_ISt17_Rb_tree_iteratorISD_EbERSC_DpOT_
FNDA:0,_ZNSt3mapIN5Moose7ElemArgEN11MetaPhysicL10DualNumberIdNS2_28SemiDynamicSparseNumberArrayIdmNS2_8NWrapperILm64EEEEELb1EEESt4lessIS1_ESaISt4pairIKS1_S8_EEE11try_emplaceIJS8_EEESB_ISt17_Rb_tree_iteratorISD_EbERSC_DpOT_
FN:1306,_ZNSt3mapIN5Moose7FaceArgEdSt4lessIS1_ESaISt4pairIKS1_dEEE11lower_boundERS5_
FNDA:0,_ZNSt3mapIN5Moose7FaceArgEdSt4lessIS1_ESaISt4pairIKS1_dEEE11lower_boundERS5_
FN:1306,_ZNSt3mapIN5Moose7ElemArgEdSt4lessIS1_ESaISt4pairIKS1_dEEE11lower_boundERS5_
FNDA:0,_ZNSt3mapIN5Moose7ElemArgEdSt4lessIS1_ESaISt4pairIKS1_dEEE11lower_boundERS5_
FN:1306,_ZNSt3mapIN5Moose7FaceArgEN11MetaPhysicL10DualNumberIdNS2_28SemiDynamicSparseNumberArrayIdmNS2_8NWrapperILm64EEEEELb1EEESt4lessIS1_ESaISt4pairIKS1_S8_EEE11lower_boundERSC_
FNDA:0,_ZNSt3mapIN5Moose7FaceArgEN11MetaPhysicL10DualNumberIdNS2_28SemiDynamicSparseNumberArrayIdmNS2_8NWrapperILm64EEEEELb1EEESt4lessIS1_ESaISt4pairIKS1_S8_EEE11lower_boundERSC_
FN:1306,_ZNSt3mapIN5Moose7ElemArgEN11MetaPhysicL10DualNumberIdNS2_28SemiDynamicSparseNumberArrayIdmNS2_8NWrapperILm64EEEEELb1EEESt4lessIS1_ESaISt4pairIKS1_S8_EEE11lower_boundERSC_
FNDA:0,_ZNSt3mapIN5Moose7ElemArgEN11MetaPhysicL10DualNumberIdNS2_28SemiDynamicSparseNumberArrayIdmNS2_8NWrapperILm64EEEEELb1EEESt4lessIS1_ESaISt4pairIKS1_S8_EEE11lower_boundERSC_
FN:1306,_ZNSt3mapINSt7__cxx1112basic_stringIcSt11char_traitsIcESaIcEEES5_St4lessIS5_ESaISt4pairIKS5_S5_EEE11lower_boundERS9_
FNDA:0,_ZNSt3mapINSt7__cxx1112basic_stringIcSt11char_traitsIcESaIcEEES5_St4lessIS5_ESaISt4pairIKS5_S5_EEE11lower_boundERS9_
FN:1306,_ZNSt3mapINSt7__cxx1112basic_stringIcSt11char_traitsIcESaIcEEESt6vectorISt10shared_ptrI17RegistryEntryBaseESaIS9_EESt4lessIS5_ESaISt4pairIKS5_SB_EEE11lower_boundERSF_
FNDA:0,_ZNSt3mapINSt7__cxx1112basic_stringIcSt11char_traitsIcESaIcEEESt6vectorISt10shared_ptrI17RegistryEntryBaseESaIS9_EESt4lessIS5_ESaISt4pairIKS5_SB_EEE11lower_boundERSF_
FN:1306,_ZNSt3mapINSt7__cxx1112basic_stringIcSt11char_traitsIcESaIcEEEN15InputParameters8MetadataESt4lessIS5_ESaISt4pairIKS5_S7_EEE11lower_boundERSB_
FNDA:0,_ZNSt3mapINSt7__cxx1112basic_stringIcSt11char_traitsIcESaIcEEEN15InputParameters8MetadataESt4lessIS5_ESaISt4pairIKS5_S7_EEE11lower_boundERSB_
FN:1306,_ZNSt3mapINSt7__cxx1112basic_stringIcSt11char_traitsIcESaIcEEESt10unique_ptrIN7libMesh10Parameters5ValueESt14default_deleteIS9_EESt4lessIvESaISt4pairIKS5_SC_EEE11lower_boundERSG_
FNDA:0,_ZNSt3mapINSt7__cxx1112basic_stringIcSt11char_traitsIcESaIcEEESt10unique_ptrIN7libMesh10Parameters5ValueESt14default_deleteIS9_EESt4lessIvESaISt4pairIKS5_SC_EEE11lower_boundERSG_
FNF:16
FNH:0
DA:312,218
DA:502,0
DA:507,0
DA:509,0
DA:511,0
DA:512,0
DA:513,0
DA:517,0
DA:502,0
DA:507,0
DA:509,0
DA:511,0
DA:512,0
DA:513,0
DA:517,0
DA:502,0
DA:507,0
DA:509,0
DA:511,0
DA:512,0
DA:513,0
DA:517,0
DA:522,0
DA:527,0
DA:529,0
DA:530,0
DA:532,0
DA:533,0
DA:638,0
DA:721,0
DA:723,0
DA:724,0
DA:726,0
DA:730,0
DA:732,0
DA:721,0
DA:723,0
DA:724,0
DA:726,0
DA:730,0
DA:732,0
DA:721,0
DA:723,0
DA:724,0
DA:726,0
DA:730,0
DA:732,0
DA:721,0
DA:723,0
DA:724,0
DA:726,0
DA:730,0
DA:732,0
DA:1182,0
DA:1243,0
DA:1249,0
DA:1306,0
DA:1307,0
DA:1306,0
DA:1307,0
DA:1306,0
DA:1307,0
DA:1306,0
DA:1307,0
DA:1306,0
DA:1307,0
DA:1306,0
DA:1307,0
DA:1306,0
DA:1307,0
DA:1306,0
DA:1307,0
LF:72
LH:1
end_of_record
SF:/home/runner/work/beaver/beaver/moose/framework/build/header_symlinks/ResidualObject.h
FN:76,_ZN14ResidualObject22computeOffDiagJacobianEj
FNDA:0,_ZN14ResidualObject22computeOffDiagJacobianEj
FN:82,_ZN14ResidualObject28computeOffDiagJacobianScalarEj
FNDA:0,_ZN14ResidualObject28computeOffDiagJacobianScalarEj
FN:88,_ZN14ResidualObject23computeNonlocalJacobianEv
FNDA:0,_ZN14ResidualObject23computeNonlocalJacobianEv
FN:93,_ZN14ResidualObject30computeNonlocalOffDiagJacobianEj
FNDA:0,_ZN14ResidualObject30computeNonlocalOffDiagJacobianEj
FN:112,_ZN14ResidualObject20precalculateResidualEv
FNDA:0,_ZN14ResidualObject20precalculateResidualEv
FN:113,_ZN14ResidualObject20precalculateJacobianEv
FNDA:0,_ZN14ResidualObject20precalculateJacobianEv
FN:114,_ZN14ResidualObject27precalculateOffDiagJacobianEj
FNDA:0,_ZN14ResidualObject27precalculateOffDiagJacobianEj
FNF:7
FNH:0
DA:76,0
DA:82,0
DA:88,0
DA:93,0
DA:112,0
DA:113,0
DA:114,0
LF:7
LH:0
end_of_record
SF:/home/runner/work/beaver/beaver/moose/framework/build/header_symlinks/MooseBase.h
FN:40,_ZN9MooseBaseD0Ev
FNDA:0,_ZN9MooseBaseD0Ev
FN:40,_ZN9MooseBaseD2Ev
FNDA:0,_ZN9MooseBaseD2Ev
FN:57,_ZNK9MooseBase4nameB5cxx11Ev
FNDA:0,_ZNK9MooseBase4nameB5cxx11Ev
FNF:3
FNH:0
DA:40,0
DA:40,0
DA:57,0
LF:3
LH:0
end_of_record
SF:/home/runner/work/beaver/beaver/moose/framework/build/header_symlinks/MooseBaseParameterInterface.h
DA:47,0
DA:206,43
LF:2
LH:1
end_of_record
SF:/usr/share/miniconda3/envs/moose/libmesh/include/libmesh/dof_object.h
DA:828,0
LF:1
LH:0
end_of_record
SF:/home/runner/work/beaver/beaver/moose/framework/build/header_symlinks/MooseTypes.h
DA:1066,0
DA:1075,0
DA:1078,0
DA:1111,46
DA:1114,0
LF:5
LH:1
end_of_record
SF:/usr/share/miniconda3/envs/moose/x86_64-conda-linux-gnu/include/c++/12.3.0/bits/hashtable.h
FN:312,_ZNSt10_HashtableImSt4pairIKmSt6vectorIS2_IS0_IbdESaIS3_EESaIS5_EEESaIS8_ENSt8__detail10_Select1stESt8equal_toImESt4hashImENSA_18_Mod_range_hashingENSA_20_Default_ranged_hashENSA_20_Prime_rehash_policyENSA_17_Hashtable_traitsILb0ELb0ELb1EEEE12_Scoped_nodeD2Ev
FNDA:0,_ZNSt10_HashtableImSt4pairIKmSt6vectorIS2_IS0_IbdESaIS3_EESaIS5_EEESaIS8_ENSt8__detail10_Select1stESt8equal_toImESt4hashImENSA_18_Mod_range_hashingENSA_20_Default_ranged_hashENSA_20_Prime_rehash_policyENSA_17_Hashtable_traitsILb0ELb0ELb1EEEE12_Scoped_nodeD2Ev
FN:312,_ZNSt10_HashtableImSt4pairIKmSt6vectorIS0_IbdESaIS3_EEESaIS6_ENSt8__detail10_Select1stESt8equal_toImESt4hashImENS8_18_Mod_range_hashingENS8_20_Default_ranged_hashENS8_20_Prime_rehash_policyENS8_17_Hashtable_traitsILb0ELb0ELb1EEEE12_Scoped_nodeD2Ev
FNDA:0,_ZNSt10_HashtableImSt4pairIKmSt6vectorIS0_IbdESaIS3_EEESaIS6_ENSt8__detail10_Select1stESt8equal_toImESt4hashImENS8_18_Mod_range_hashingENS8_20_Default_ranged_hashENS8_20_Prime_rehash_policyENS8_17_Hashtable_traitsILb0ELb0ELb1EEEE12_Scoped_nodeD2Ev
FN:312,_ZNSt10_HashtableImSt4pairIKmSt6vectorIS2_IS0_IbN11MetaPhysicL10DualNumberIdNS3_28SemiDynamicSparseNumberArrayIdmNS3_8NWrapperILm64EEEEELb1EEEESaISA_EESaISC_EEESaISF_ENSt8__detail10_Select1stESt8equal_toImESt4hashImENSH_18_Mod_range_hashingENSH_20_Default_ranged_hashENSH_20_Prime_rehash_policyENSH_17_Hashtable_traitsILb0ELb0ELb1EEEE12_Scoped_nodeD2Ev
FNDA:0,_ZNSt10_HashtableImSt4pairIKmSt6vectorIS2_IS0_IbN11MetaPhysicL10DualNumberIdNS3_28SemiDynamicSparseNumberArrayIdmNS3_8NWrapperILm64EEEEELb1EEEESaISA_EESaISC_EEESaISF_ENSt8__detail10_Select1stESt8equal_toImESt4hashImENSH_18_Mod_range_hashingENSH_20_Default_ranged_hashENSH_20_Prime_rehash_policyENSH_17_Hashtable_traitsILb0ELb0ELb1EEEE12_Scoped_nodeD2Ev
FN:312,_ZNSt10_HashtableIjjSaIjENSt8__detail9_IdentityESt8equal_toIjESt4hashIjENS1_18_Mod_range_hashingENS1_20_Default_ranged_hashENS1_20_Prime_rehash_policyENS1_17_Hashtable_traitsILb0ELb1ELb1EEEE12_Scoped_nodeD2Ev
FNDA:0,_ZNSt10_HashtableIjjSaIjENSt8__detail9_IdentityESt8equal_toIjESt4hashIjENS1_18_Mod_range_hashingENS1_20_Default_ranged_hashENS1_20_Prime_rehash_policyENS1_17_Hashtable_traitsILb0ELb1ELb1EEEE12_Scoped_nodeD2Ev
FN:312,_ZNSt10_HashtableImSt4pairIKmSt6vectorIS0_IbN11MetaPhysicL10DualNumberIdNS3_28SemiDynamicSparseNumberArrayIdmNS3_8NWrapperILm64EEEEELb1EEEESaISA_EEESaISD_ENSt8__detail10_Select1stESt8equal_toImESt4hashImENSF_18_Mod_range_hashingENSF_20_Default_ranged_hashENSF_20_Prime_rehash_policyENSF_17_Hashtable_traitsILb0ELb0ELb1EEEE12_Scoped_nodeD2Ev
FNDA:0,_ZNSt10_HashtableImSt4pairIKmSt6vectorIS0_IbN11MetaPhysicL10DualNumberIdNS3_28SemiDynamicSparseNumberArrayIdmNS3_8NWrapperILm64EEEEELb1EEEESaISA_EEESaISD_ENSt8__detail10_Select1stESt8equal_toImESt4hashImENSF_18_Mod_range_hashingENSF_20_Default_ranged_hashENSF_20_Prime_rehash_policyENSF_17_Hashtable_traitsILb0ELb0ELb1EEEE12_Scoped_nodeD2Ev
FN:456,_ZNSt10_HashtableImSt4pairIKmSt6vectorIS2_IS0_IbdESaIS3_EESaIS5_EEESaIS8_ENSt8__detail10_Select1stESt8equal_toImESt4hashImENSA_18_Mod_range_hashingENSA_20_Default_ranged_hashENSA_20_Prime_rehash_policyENSA_17_Hashtable_traitsILb0ELb0ELb1EEEE21_M_deallocate_bucketsEv
FNDA:0,_ZNSt10_HashtableImSt4pairIKmSt6vectorIS2_IS0_IbdESaIS3_EESaIS5_EEESaIS8_ENSt8__detail10_Select1stESt8equal_toImESt4hashImENSA_18_Mod_range_hashingENSA_20_Default_ranged_hashENSA_20_Prime_rehash_policyENSA_17_Hashtable_traitsILb0ELb0ELb1EEEE21_M_deallocate_bucketsEv
FN:456,_ZNSt10_HashtableINSt7__cxx1112basic_stringIcSt11char_traitsIcESaIcEEESt4pairIKS5_S5_ESaIS8_ENSt8__detail10_Select1stESt8equal_toIS5_ESt4hashIS5_ENSA_18_Mod_range_hashingENSA_20_Default_ranged_hashENSA_20_Prime_rehash_policyENSA_17_Hashtable_traitsILb1ELb0ELb1EEEE21_M_deallocate_bucketsEv
FNDA:0,_ZNSt10_HashtableINSt7__cxx1112basic_stringIcSt11char_traitsIcESaIcEEESt4pairIKS5_S5_ESaIS8_ENSt8__detail10_Select1stESt8equal_toIS5_ESt4hashIS5_ENSA_18_Mod_range_hashingENSA_20_Default_ranged_hashENSA_20_Prime_rehash_policyENSA_17_Hashtable_traitsILb1ELb0ELb1EEEE21_M_deallocate_bucketsEv
FN:456,_ZNSt10_HashtableImSt4pairIKmSt6vectorIS2_IS0_IbN11MetaPhysicL10DualNumberIdNS3_28SemiDynamicSparseNumberArrayIdmNS3_8NWrapperILm64EEEEELb1EEEESaISA_EESaISC_EEESaISF_ENSt8__detail10_Select1stESt8equal_toImESt4hashImENSH_18_Mod_range_hashingENSH_20_Default_ranged_hashENSH_20_Prime_rehash_policyENSH_17_Hashtable_traitsILb0ELb0ELb1EEEE21_M_deallocate_bucketsEv
FNDA:0,_ZNSt10_HashtableImSt4pairIKmSt6vectorIS2_IS0_IbN11MetaPhysicL10DualNumberIdNS3_28SemiDynamicSparseNumberArrayIdmNS3_8NWrapperILm64EEEEELb1EEEESaISA_EESaISC_EEESaISF_ENSt8__detail10_Select1stESt8equal_toImESt4hashImENSH_18_Mod_range_hashingENSH_20_Default_ranged_hashENSH_20_Prime_rehash_policyENSH_17_Hashtable_traitsILb0ELb0ELb1EEEE21_M_deallocate_bucketsEv
FN:456,_ZNSt10_HashtableINSt7__cxx1112basic_stringIcSt11char_traitsIcESaIcEEESt4pairIKS5_St10unique_ptrI10MooseArrayIN5Eigen6MatrixIdLin1ELi1ELi0ELin1ELi1EEEESt14default_deleteISD_EEESaISH_ENSt8__detail10_Select1stESt8equal_toIS5_ESt4hashIS5_ENSJ_18_Mod_range_hashingENSJ_20_Default_ranged_hashENSJ_20_Prime_rehash_policyENSJ_17_Hashtable_traitsILb1ELb0ELb1EEEE21_M_deallocate_bucketsEv
FNDA:0,_ZNSt10_HashtableINSt7__cxx1112basic_stringIcSt11char_traitsIcESaIcEEESt4pairIKS5_St10unique_ptrI10MooseArrayIN5Eigen6MatrixIdLin1ELi1ELi0ELin1ELi1EEEESt14default_deleteISD_EEESaISH_ENSt8__detail10_Select1stESt8equal_toIS5_ESt4hashIS5_ENSJ_18_Mod_range_hashingENSJ_20_Default_ranged_hashENSJ_20_Prime_rehash_policyENSJ_17_Hashtable_traitsILb1ELb0ELb1EEEE21_M_deallocate_bucketsEv
FN:456,_ZNSt10_HashtableImSt4pairIKmSt6vectorIS0_IbN11MetaPhysicL10DualNumberIdNS3_28SemiDynamicSparseNumberArrayIdmNS3_8NWrapperILm64EEEEELb1EEEESaISA_EEESaISD_ENSt8__detail10_Select1stESt8equal_toImESt4hashImENSF_18_Mod_range_hashingENSF_20_Default_ranged_hashENSF_20_Prime_rehash_policyENSF_17_Hashtable_traitsILb0ELb0ELb1EEEE21_M_deallocate_bucketsEv
FNDA:0,_ZNSt10_HashtableImSt4pairIKmSt6vectorIS0_IbN11MetaPhysicL10DualNumberIdNS3_28SemiDynamicSparseNumberArrayIdmNS3_8NWrapperILm64EEEEELb1EEEESaISA_EEESaISD_ENSt8__detail10_Select1stESt8equal_toImESt4hashImENSF_18_Mod_range_hashingENSF_20_Default_ranged_hashENSF_20_Prime_rehash_policyENSF_17_Hashtable_traitsILb0ELb0ELb1EEEE21_M_deallocate_bucketsEv
FN:456,_ZNSt10_HashtableINSt7__cxx1112basic_stringIcSt11char_traitsIcESaIcEEESt4pairIKS5_St6vectorIP22MooseVariableFieldBaseSaISA_EEESaISD_ENSt8__detail10_Select1stESt8equal_toIS5_ESt4hashIS5_ENSF_18_Mod_range_hashingENSF_20_Default_ranged_hashENSF_20_Prime_rehash_policyENSF_17_Hashtable_traitsILb1ELb0ELb1EEEE21_M_deallocate_bucketsEv
FNDA:0,_ZNSt10_HashtableINSt7__cxx1112basic_stringIcSt11char_traitsIcESaIcEEESt4pairIKS5_St6vectorIP22MooseVariableFieldBaseSaISA_EEESaISD_ENSt8__detail10_Select1stESt8equal_toIS5_ESt4hashIS5_ENSF_18_Mod_range_hashingENSF_20_Default_ranged_hashENSF_20_Prime_rehash_policyENSF_17_Hashtable_traitsILb1ELb0ELb1EEEE21_M_deallocate_bucketsEv
FN:456,_ZNSt10_HashtableINSt7__cxx1112basic_stringIcSt11char_traitsIcESaIcEEESt4pairIKS5_St10unique_ptrI10MooseArrayIN7libMesh11VectorValueIN11MetaPhysicL10DualNumberIdNSC_28SemiDynamicSparseNumberArrayIdmNSC_8NWrapperILm64EEEEELb1EEEEEESt14default_deleteISK_EEESaISO_ENSt8__detail10_Select1stESt8equal_toIS5_ESt4hashIS5_ENSQ_18_Mod_range_hashingENSQ_20_Default_ranged_hashENSQ_20_Prime_rehash_policyENSQ_17_Hashtable_traitsILb1ELb0ELb1EEEE21_M_deallocate_bucketsEv
FNDA:0,_ZNSt10_HashtableINSt7__cxx1112basic_stringIcSt11char_traitsIcESaIcEEESt4pairIKS5_St10unique_ptrI10MooseArrayIN7libMesh11VectorValueIN11MetaPhysicL10DualNumberIdNSC_28SemiDynamicSparseNumberArrayIdmNSC_8NWrapperILm64EEEEELb1EEEEEESt14default_deleteISK_EEESaISO_ENSt8__detail10_Select1stESt8equal_toIS5_ESt4hashIS5_ENSQ_18_Mod_range_hashingENSQ_20_Default_ranged_hashENSQ_20_Prime_rehash_policyENSQ_17_Hashtable_traitsILb1ELb0ELb1EEEE21_M_deallocate_bucketsEv
FN:456,_ZNSt10_HashtableImSt4pairIKmSt6vectorIS0_IbdESaIS3_EEESaIS6_ENSt8__detail10_Select1stESt8equal_toImESt4hashImENS8_18_Mod_range_hashingENS8_20_Default_ranged_hashENS8_20_Prime_rehash_policyENS8_17_Hashtable_traitsILb0ELb0ELb1EEEE21_M_deallocate_bucketsEv
FNDA:0,_ZNSt10_HashtableImSt4pairIKmSt6vectorIS0_IbdESaIS3_EEESaIS6_ENSt8__detail10_Select1stESt8equal_toImESt4hashImENS8_18_Mod_range_hashingENS8_20_Default_ranged_hashENS8_20_Prime_rehash_policyENS8_17_Hashtable_traitsILb0ELb0ELb1EEEE21_M_deallocate_bucketsEv
FN:456,_ZNSt10_HashtableINSt7__cxx1112basic_stringIcSt11char_traitsIcESaIcEEESt4pairIKS5_St6vectorIjSaIjEEESaISB_ENSt8__detail10_Select1stESt8equal_toIS5_ESt4hashIS5_ENSD_18_Mod_range_hashingENSD_20_Default_ranged_hashENSD_20_Prime_rehash_policyENSD_17_Hashtable_traitsILb1ELb0ELb1EEEE21_M_deallocate_bucketsEv
FNDA:0,_ZNSt10_HashtableINSt7__cxx1112basic_stringIcSt11char_traitsIcESaIcEEESt4pairIKS5_St6vectorIjSaIjEEESaISB_ENSt8__detail10_Select1stESt8equal_toIS5_ESt4hashIS5_ENSD_18_Mod_range_hashingENSD_20_Default_ranged_hashENSD_20_Prime_rehash_policyENSD_17_Hashtable_traitsILb1ELb0ELb1EEEE21_M_deallocate_bucketsEv
FN:456,_ZNSt10_HashtableIjjSaIjENSt8__detail9_IdentityESt8equal_toIjESt4hashIjENS1_18_Mod_range_hashingENS1_20_Default_ranged_hashENS1_20_Prime_rehash_policyENS1_17_Hashtable_traitsILb0ELb1ELb1EEEE21_M_deallocate_bucketsEv
FNDA:0,_ZNSt10_HashtableIjjSaIjENSt8__detail9_IdentityESt8equal_toIjESt4hashIjENS1_18_Mod_range_hashingENS1_20_Default_ranged_hashENS1_20_Prime_rehash_policyENS1_17_Hashtable_traitsILb0ELb1ELb1EEEE21_M_deallocate_bucketsEv
FN:456,_ZNSt10_HashtableINSt7__cxx1112basic_stringIcSt11char_traitsIcESaIcEEESt4pairIKS5_St6vectorIP19MooseVariableScalarSaISA_EEESaISD_ENSt8__detail10_Select1stESt8equal_toIS5_ESt4hashIS5_ENSF_18_Mod_range_hashingENSF_20_Default_ranged_hashENSF_20_Prime_rehash_policyENSF_17_Hashtable_traitsILb1ELb0ELb1EEEE21_M_deallocate_bucketsEv
FNDA:0,_ZNSt10_HashtableINSt7__cxx1112basic_stringIcSt11char_traitsIcESaIcEEESt4pairIKS5_St6vectorIP19MooseVariableScalarSaISA_EEESaISD_ENSt8__detail10_Select1stESt8equal_toIS5_ESt4hashIS5_ENSF_18_Mod_range_hashingENSF_20_Default_ranged_hashENSF_20_Prime_rehash_policyENSF_17_Hashtable_traitsILb1ELb0ELb1EEEE21_M_deallocate_bucketsEv
FN:456,_ZNSt10_HashtableINSt7__cxx1112basic_stringIcSt11char_traitsIcESaIcEEESt4pairIKS5_St10unique_ptrI10MooseArrayIdESt14default_deleteISA_EEESaISE_ENSt8__detail10_Select1stESt8equal_toIS5_ESt4hashIS5_ENSG_18_Mod_range_hashingENSG_20_Default_ranged_hashENSG_20_Prime_rehash_policyENSG_17_Hashtable_traitsILb1ELb0ELb1EEEE21_M_deallocate_bucketsEv
FNDA:0,_ZNSt10_HashtableINSt7__cxx1112basic_stringIcSt11char_traitsIcESaIcEEESt4pairIKS5_St10unique_ptrI10MooseArrayIdESt14default_deleteISA_EEESaISE_ENSt8__detail10_Select1stESt8equal_toIS5_ESt4hashIS5_ENSG_18_Mod_range_hashingENSG_20_Default_ranged_hashENSG_20_Prime_rehash_policyENSG_17_Hashtable_traitsILb1ELb0ELb1EEEE21_M_deallocate_bucketsEv
FN:456,_ZNSt10_HashtableINSt7__cxx1112basic_stringIcSt11char_traitsIcESaIcEEESt4pairIKS5_St6vectorISt10unique_ptrI10MooseArrayIdESt14default_deleteISB_EESaISE_EEESaISH_ENSt8__detail10_Select1stESt8equal_toIS5_ESt4hashIS5_ENSJ_18_Mod_range_hashingENSJ_20_Default_ranged_hashENSJ_20_Prime_rehash_policyENSJ_17_Hashtable_traitsILb1ELb0ELb1EEEE21_M_deallocate_bucketsEv
FNDA:0,_ZNSt10_HashtableINSt7__cxx1112basic_stringIcSt11char_traitsIcESaIcEEESt4pairIKS5_St6vectorISt10unique_ptrI10MooseArrayIdESt14default_deleteISB_EESaISE_EEESaISH_ENSt8__detail10_Select1stESt8equal_toIS5_ESt4hashIS5_ENSJ_18_Mod_range_hashingENSJ_20_Default_ranged_hashENSJ_20_Prime_rehash_policyENSJ_17_Hashtable_traitsILb1ELb0ELb1EEEE21_M_deallocate_bucketsEv
FN:456,_ZNSt10_HashtableINSt7__cxx1112basic_stringIcSt11char_traitsIcESaIcEEESt4pairIKS5_St10unique_ptrI10MooseArrayIN7libMesh11VectorValueIdEEESt14default_deleteISD_EEESaISH_ENSt8__detail10_Select1stESt8equal_toIS5_ESt4hashIS5_ENSJ_18_Mod_range_hashingENSJ_20_Default_ranged_hashENSJ_20_Prime_rehash_policyENSJ_17_Hashtable_traitsILb1ELb0ELb1EEEE21_M_deallocate_bucketsEv
FNDA:0,_ZNSt10_HashtableINSt7__cxx1112basic_stringIcSt11char_traitsIcESaIcEEESt4pairIKS5_St10unique_ptrI10MooseArrayIN7libMesh11VectorValueIdEEESt14default_deleteISD_EEESaISH_ENSt8__detail10_Select1stESt8equal_toIS5_ESt4hashIS5_ENSJ_18_Mod_range_hashingENSJ_20_Default_ranged_hashENSJ_20_Prime_rehash_policyENSJ_17_Hashtable_traitsILb1ELb0ELb1EEEE21_M_deallocate_bucketsEv
FN:456,_ZNSt10_HashtableINSt7__cxx1112basic_stringIcSt11char_traitsIcESaIcEEESt4pairIKS5_St10unique_ptrI10MooseArrayIN11MetaPhysicL10DualNumberIdNSA_28SemiDynamicSparseNumberArrayIdmNSA_8NWrapperILm64EEEEELb1EEEESt14default_deleteISH_EEESaISL_ENSt8__detail10_Select1stESt8equal_toIS5_ESt4hashIS5_ENSN_18_Mod_range_hashingENSN_20_Default_ranged_hashENSN_20_Prime_rehash_policyENSN_17_Hashtable_traitsILb1ELb0ELb1EEEE21_M_deallocate_bucketsEv
FNDA:0,_ZNSt10_HashtableINSt7__cxx1112basic_stringIcSt11char_traitsIcESaIcEEESt4pairIKS5_St10unique_ptrI10MooseArrayIN11MetaPhysicL10DualNumberIdNSA_28SemiDynamicSparseNumberArrayIdmNSA_8NWrapperILm64EEEEELb1EEEESt14default_deleteISH_EEESaISL_ENSt8__detail10_Select1stESt8equal_toIS5_ESt4hashIS5_ENSN_18_Mod_range_hashingENSN_20_Default_ranged_hashENSN_20_Prime_rehash_policyENSN_17_Hashtable_traitsILb1ELb0ELb1EEEE21_M_deallocate_bucketsEv
FN:1924,_ZNKSt10_HashtableImSt4pairIKmSt6vectorIS0_IbN11MetaPhysicL10DualNumberIdNS3_28SemiDynamicSparseNumberArrayIdmNS3_8NWrapperILm64EEEEELb1EEEESaISA_EEESaISD_ENSt8__detail10_Select1stESt8equal_toImESt4hashImENSF_18_Mod_range_hashingENSF_20_Default_ranged_hashENSF_20_Prime_rehash_policyENSF_17_Hashtable_traitsILb0ELb0ELb1EEEE19_M_find_before_nodeEmRS1_m
FNDA:0,_ZNKSt10_HashtableImSt4pairIKmSt6vectorIS0_IbN11MetaPhysicL10DualNumberIdNS3_28SemiDynamicSparseNumberArrayIdmNS3_8NWrapperILm64EEEEELb1EEEESaISA_EEESaISD_ENSt8__detail10_Select1stESt8equal_toImESt4hashImENSF_18_Mod_range_hashingENSF_20_Default_ranged_hashENSF_20_Prime_rehash_policyENSF_17_Hashtable_traitsILb0ELb0ELb1EEEE19_M_find_before_nodeEmRS1_m
FN:1924,_ZNKSt10_HashtableImSt4pairIKmSt6vectorIS2_IS0_IbN11MetaPhysicL10DualNumberIdNS3_28SemiDynamicSparseNumberArrayIdmNS3_8NWrapperILm64EEEEELb1EEEESaISA_EESaISC_EEESaISF_ENSt8__detail10_Select1stESt8equal_toImESt4hashImENSH_18_Mod_range_hashingENSH_20_Default_ranged_hashENSH_20_Prime_rehash_policyENSH_17_Hashtable_traitsILb0ELb0ELb1EEEE19_M_find_before_nodeEmRS1_m
FNDA:0,_ZNKSt10_HashtableImSt4pairIKmSt6vectorIS2_IS0_IbN11MetaPhysicL10DualNumberIdNS3_28SemiDynamicSparseNumberArrayIdmNS3_8NWrapperILm64EEEEELb1EEEESaISA_EESaISC_EEESaISF_ENSt8__detail10_Select1stESt8equal_toImESt4hashImENSH_18_Mod_range_hashingENSH_20_Default_ranged_hashENSH_20_Prime_rehash_policyENSH_17_Hashtable_traitsILb0ELb0ELb1EEEE19_M_find_before_nodeEmRS1_m
FN:1924,_ZNKSt10_HashtableImSt4pairIKmSt6vectorIS0_IbdESaIS3_EEESaIS6_ENSt8__detail10_Select1stESt8equal_toImESt4hashImENS8_18_Mod_range_hashingENS8_20_Default_ranged_hashENS8_20_Prime_rehash_policyENS8_17_Hashtable_traitsILb0ELb0ELb1EEEE19_M_find_before_nodeEmRS1_m
FNDA:0,_ZNKSt10_HashtableImSt4pairIKmSt6vectorIS0_IbdESaIS3_EEESaIS6_ENSt8__detail10_Select1stESt8equal_toImESt4hashImENS8_18_Mod_range_hashingENS8_20_Default_ranged_hashENS8_20_Prime_rehash_policyENS8_17_Hashtable_traitsILb0ELb0ELb1EEEE19_M_find_before_nodeEmRS1_m
FN:1924,_ZNKSt10_HashtableImSt4pairIKmSt6vectorIS2_IS0_IbdESaIS3_EESaIS5_EEESaIS8_ENSt8__detail10_Select1stESt8equal_toImESt4hashImENSA_18_Mod_range_hashingENSA_20_Default_ranged_hashENSA_20_Prime_rehash_policyENSA_17_Hashtable_traitsILb0ELb0ELb1EEEE19_M_find_before_nodeEmRS1_m
FNDA:0,_ZNKSt10_HashtableImSt4pairIKmSt6vectorIS2_IS0_IbdESaIS3_EESaIS5_EEESaIS8_ENSt8__detail10_Select1stESt8equal_toImESt4hashImENSA_18_Mod_range_hashingENSA_20_Default_ranged_hashENSA_20_Prime_rehash_policyENSA_17_Hashtable_traitsILb0ELb0ELb1EEEE19_M_find_before_nodeEmRS1_m
FN:1954,_ZNKSt10_HashtableIjjSaIjENSt8__detail9_IdentityESt8equal_toIjESt4hashIjENS1_18_Mod_range_hashingENS1_20_Default_ranged_hashENS1_20_Prime_rehash_policyENS1_17_Hashtable_traitsILb0ELb1ELb1EEEE22_M_find_before_node_trIjEEPNS1_15_Hash_node_baseEmRKT_m
FNDA:0,_ZNKSt10_HashtableIjjSaIjENSt8__detail9_IdentityESt8equal_toIjESt4hashIjENS1_18_Mod_range_hashingENS1_20_Default_ranged_hashENS1_20_Prime_rehash_policyENS1_17_Hashtable_traitsILb0ELb1ELb1EEEE22_M_find_before_node_trIjEEPNS1_15_Hash_node_baseEmRKT_m
FN:1983,_ZNSt10_HashtableImSt4pairIKmSt6vectorIS2_IS0_IbdESaIS3_EESaIS5_EEESaIS8_ENSt8__detail10_Select1stESt8equal_toImESt4hashImENSA_18_Mod_range_hashingENSA_20_Default_ranged_hashENSA_20_Prime_rehash_policyENSA_17_Hashtable_traitsILb0ELb0ELb1EEEE22_M_insert_bucket_beginEmPNSA_10_Hash_nodeIS8_Lb0EEE
FNDA:0,_ZNSt10_HashtableImSt4pairIKmSt6vectorIS2_IS0_IbdESaIS3_EESaIS5_EEESaIS8_ENSt8__detail10_Select1stESt8equal_toImESt4hashImENSA_18_Mod_range_hashingENSA_20_Default_ranged_hashENSA_20_Prime_rehash_policyENSA_17_Hashtable_traitsILb0ELb0ELb1EEEE22_M_insert_bucket_beginEmPNSA_10_Hash_nodeIS8_Lb0EEE
FN:1983,_ZNSt10_HashtableImSt4pairIKmSt6vectorIS0_IbN11MetaPhysicL10DualNumberIdNS3_28SemiDynamicSparseNumberArrayIdmNS3_8NWrapperILm64EEEEELb1EEEESaISA_EEESaISD_ENSt8__detail10_Select1stESt8equal_toImESt4hashImENSF_18_Mod_range_hashingENSF_20_Default_ranged_hashENSF_20_Prime_rehash_policyENSF_17_Hashtable_traitsILb0ELb0ELb1EEEE22_M_insert_bucket_beginEmPNSF_10_Hash_nodeISD_Lb0EEE
FNDA:0,_ZNSt10_HashtableImSt4pairIKmSt6vectorIS0_IbN11MetaPhysicL10DualNumberIdNS3_28SemiDynamicSparseNumberArrayIdmNS3_8NWrapperILm64EEEEELb1EEEESaISA_EEESaISD_ENSt8__detail10_Select1stESt8equal_toImESt4hashImENSF_18_Mod_range_hashingENSF_20_Default_ranged_hashENSF_20_Prime_rehash_policyENSF_17_Hashtable_traitsILb0ELb0ELb1EEEE22_M_insert_bucket_beginEmPNSF_10_Hash_nodeISD_Lb0EEE
FN:1983,_ZNSt10_HashtableIjjSaIjENSt8__detail9_IdentityESt8equal_toIjESt4hashIjENS1_18_Mod_range_hashingENS1_20_Default_ranged_hashENS1_20_Prime_rehash_policyENS1_17_Hashtable_traitsILb0ELb1ELb1EEEE22_M_insert_bucket_beginEmPNS1_10_Hash_nodeIjLb0EEE
FNDA:0,_ZNSt10_HashtableIjjSaIjENSt8__detail9_IdentityESt8equal_toIjESt4hashIjENS1_18_Mod_range_hashingENS1_20_Default_ranged_hashENS1_20_Prime_rehash_policyENS1_17_Hashtable_traitsILb0ELb1ELb1EEEE22_M_insert_bucket_beginEmPNS1_10_Hash_nodeIjLb0EEE
FN:1983,_ZNSt10_HashtableImSt4pairIKmSt6vectorIS2_IS0_IbN11MetaPhysicL10DualNumberIdNS3_28SemiDynamicSparseNumberArrayIdmNS3_8NWrapperILm64EEEEELb1EEEESaISA_EESaISC_EEESaISF_ENSt8__detail10_Select1stESt8equal_toImESt4hashImENSH_18_Mod_range_hashingENSH_20_Default_ranged_hashENSH_20_Prime_rehash_policyENSH_17_Hashtable_traitsILb0ELb0ELb1EEEE22_M_insert_bucket_beginEmPNSH_10_Hash_nodeISF_Lb0EEE
FNDA:0,_ZNSt10_HashtableImSt4pairIKmSt6vectorIS2_IS0_IbN11MetaPhysicL10DualNumberIdNS3_28SemiDynamicSparseNumberArrayIdmNS3_8NWrapperILm64EEEEELb1EEEESaISA_EESaISC_EEESaISF_ENSt8__detail10_Select1stESt8equal_toImESt4hashImENSH_18_Mod_range_hashingENSH_20_Default_ranged_hashENSH_20_Prime_rehash_policyENSH_17_Hashtable_traitsILb0ELb0ELb1EEEE22_M_insert_bucket_beginEmPNSH_10_Hash_nodeISF_Lb0EEE
FN:1983,_ZNSt10_HashtableImSt4pairIKmSt6vectorIS0_IbdESaIS3_EEESaIS6_ENSt8__detail10_Select1stESt8equal_toImESt4hashImENS8_18_Mod_range_hashingENS8_20_Default_ranged_hashENS8_20_Prime_rehash_policyENS8_17_Hashtable_traitsILb0ELb0ELb1EEEE22_M_insert_bucket_beginEmPNS8_10_Hash_nodeIS6_Lb0EEE
FNDA:0,_ZNSt10_HashtableImSt4pairIKmSt6vectorIS0_IbdESaIS3_EEESaIS6_ENSt8__detail10_Select1stESt8equal_toImESt4hashImENS8_18_Mod_range_hashingENS8_20_Default_ranged_hashENS8_20_Prime_rehash_policyENS8_17_Hashtable_traitsILb0ELb0ELb1EEEE22_M_insert_bucket_beginEmPNS8_10_Hash_nodeIS6_Lb0EEE
FN:2142,_ZNSt10_HashtableImSt4pairIKmSt6vectorIS0_IbdESaIS3_EEESaIS6_ENSt8__detail10_Select1stESt8equal_toImESt4hashImENS8_18_Mod_range_hashingENS8_20_Default_ranged_hashENS8_20_Prime_rehash_policyENS8_17_Hashtable_traitsILb0ELb0ELb1EEEE21_M_insert_unique_nodeEmmPNS8_10_Hash_nodeIS6_Lb0EEEm
FNDA:0,_ZNSt10_HashtableImSt4pairIKmSt6vectorIS0_IbdESaIS3_EEESaIS6_ENSt8__detail10_Select1stESt8equal_toImESt4hashImENS8_18_Mod_range_hashingENS8_20_Default_ranged_hashENS8_20_Prime_rehash_policyENS8_17_Hashtable_traitsILb0ELb0ELb1EEEE21_M_insert_unique_nodeEmmPNS8_10_Hash_nodeIS6_Lb0EEEm
FN:2142,_ZNSt10_HashtableIjjSaIjENSt8__detail9_IdentityESt8equal_toIjESt4hashIjENS1_18_Mod_range_hashingENS1_20_Default_ranged_hashENS1_20_Prime_rehash_policyENS1_17_Hashtable_traitsILb0ELb1ELb1EEEE21_M_insert_unique_nodeEmmPNS1_10_Hash_nodeIjLb0EEEm
FNDA:0,_ZNSt10_HashtableIjjSaIjENSt8__detail9_IdentityESt8equal_toIjESt4hashIjENS1_18_Mod_range_hashingENS1_20_Default_ranged_hashENS1_20_Prime_rehash_policyENS1_17_Hashtable_traitsILb0ELb1ELb1EEEE21_M_insert_unique_nodeEmmPNS1_10_Hash_nodeIjLb0EEEm
FN:2142,_ZNSt10_HashtableImSt4pairIKmSt6vectorIS0_IbN11MetaPhysicL10DualNumberIdNS3_28SemiDynamicSparseNumberArrayIdmNS3_8NWrapperILm64EEEEELb1EEEESaISA_EEESaISD_ENSt8__detail10_Select1stESt8equal_toImESt4hashImENSF_18_Mod_range_hashingENSF_20_Default_ranged_hashENSF_20_Prime_rehash_policyENSF_17_Hashtable_traitsILb0ELb0ELb1EEEE21_M_insert_unique_nodeEmmPNSF_10_Hash_nodeISD_Lb0EEEm
FNDA:0,_ZNSt10_HashtableImSt4pairIKmSt6vectorIS0_IbN11MetaPhysicL10DualNumberIdNS3_28SemiDynamicSparseNumberArrayIdmNS3_8NWrapperILm64EEEEELb1EEEESaISA_EEESaISD_ENSt8__detail10_Select1stESt8equal_toImESt4hashImENSF_18_Mod_range_hashingENSF_20_Default_ranged_hashENSF_20_Prime_rehash_policyENSF_17_Hashtable_traitsILb0ELb0ELb1EEEE21_M_insert_unique_nodeEmmPNSF_10_Hash_nodeISD_Lb0EEEm
FN:2142,_ZNSt10_HashtableImSt4pairIKmSt6vectorIS2_IS0_IbN11MetaPhysicL10DualNumberIdNS3_28SemiDynamicSparseNumberArrayIdmNS3_8NWrapperILm64EEEEELb1EEEESaISA_EESaISC_EEESaISF_ENSt8__detail10_Select1stESt8equal_toImESt4hashImENSH_18_Mod_range_hashingENSH_20_Default_ranged_hashENSH_20_Prime_rehash_policyENSH_17_Hashtable_traitsILb0ELb0ELb1EEEE21_M_insert_unique_nodeEmmPNSH_10_Hash_nodeISF_Lb0EEEm
FNDA:0,_ZNSt10_HashtableImSt4pairIKmSt6vectorIS2_IS0_IbN11MetaPhysicL10DualNumberIdNS3_28SemiDynamicSparseNumberArrayIdmNS3_8NWrapperILm64EEEEELb1EEEESaISA_EESaISC_EEESaISF_ENSt8__detail10_Select1stESt8equal_toImESt4hashImENSH_18_Mod_range_hashingENSH_20_Default_ranged_hashENSH_20_Prime_rehash_policyENSH_17_Hashtable_traitsILb0ELb0ELb1EEEE21_M_insert_unique_nodeEmmPNSH_10_Hash_nodeISF_Lb0EEEm
FN:2142,_ZNSt10_HashtableImSt4pairIKmSt6vectorIS2_IS0_IbdESaIS3_EESaIS5_EEESaIS8_ENSt8__detail10_Select1stESt8equal_toImESt4hashImENSA_18_Mod_range_hashingENSA_20_Default_ranged_hashENSA_20_Prime_rehash_policyENSA_17_Hashtable_traitsILb0ELb0ELb1EEEE21_M_insert_unique_nodeEmmPNSA_10_Hash_nodeIS8_Lb0EEEm
FNDA:0,_ZNSt10_HashtableImSt4pairIKmSt6vectorIS2_IS0_IbdESaIS3_EESaIS5_EEESaIS8_ENSt8__detail10_Select1stESt8equal_toImESt4hashImENSA_18_Mod_range_hashingENSA_20_Default_ranged_hashENSA_20_Prime_rehash_policyENSA_17_Hashtable_traitsILb0ELb0ELb1EEEE21_M_insert_unique_nodeEmmPNSA_10_Hash_nodeIS8_Lb0EEEm
FN:2229,_ZNSt10_HashtableIjjSaIjENSt8__detail9_IdentityESt8equal_toIjESt4hashIjENS1_18_Mod_range_hashingENS1_20_Default_ranged_hashENS1_20_Prime_rehash_policyENS1_17_Hashtable_traitsILb0ELb1ELb1EEEE16_M_insert_uniqueIjjNS1_10_AllocNodeISaINS1_10_Hash_nodeIjLb0EEEEEEEESt4pairINS1_14_Node_iteratorIjLb1ELb0EEEbEOT_OT0_RKT1_
FNDA:0,_ZNSt10_HashtableIjjSaIjENSt8__detail9_IdentityESt8equal_toIjESt4hashIjENS1_18_Mod_range_hashingENS1_20_Default_ranged_hashENS1_20_Prime_rehash_policyENS1_17_Hashtable_traitsILb0ELb1ELb1EEEE16_M_insert_uniqueIjjNS1_10_AllocNodeISaINS1_10_Hash_nodeIjLb0EEEEEEEESt4pairINS1_14_Node_iteratorIjLb1ELb0EEEbEOT_OT0_RKT1_
FN:2496,_ZNSt10_HashtableINSt7__cxx1112basic_stringIcSt11char_traitsIcESaIcEEESt4pairIKS5_St10unique_ptrI10MooseArrayIN7libMesh11VectorValueIN11MetaPhysicL10DualNumberIdNSC_28SemiDynamicSparseNumberArrayIdmNSC_8NWrapperILm64EEEEELb1EEEEEESt14default_deleteISK_EEESaISO_ENSt8__detail10_Select1stESt8equal_toIS5_ESt4hashIS5_ENSQ_18_Mod_range_hashingENSQ_20_Default_ranged_hashENSQ_20_Prime_rehash_policyENSQ_17_Hashtable_traitsILb1ELb0ELb1EEEE5clearEv
FNDA:0,_ZNSt10_HashtableINSt7__cxx1112basic_stringIcSt11char_traitsIcESaIcEEESt4pairIKS5_St10unique_ptrI10MooseArrayIN7libMesh11VectorValueIN11MetaPhysicL10DualNumberIdNSC_28SemiDynamicSparseNumberArrayIdmNSC_8NWrapperILm64EEEEELb1EEEEEESt14default_deleteISK_EEESaISO_ENSt8__detail10_Select1stESt8equal_toIS5_ESt4hashIS5_ENSQ_18_Mod_range_hashingENSQ_20_Default_ranged_hashENSQ_20_Prime_rehash_policyENSQ_17_Hashtable_traitsILb1ELb0ELb1EEEE5clearEv
FN:2496,_ZNSt10_HashtableINSt7__cxx1112basic_stringIcSt11char_traitsIcESaIcEEESt4pairIKS5_St6vectorIjSaIjEEESaISB_ENSt8__detail10_Select1stESt8equal_toIS5_ESt4hashIS5_ENSD_18_Mod_range_hashingENSD_20_Default_ranged_hashENSD_20_Prime_rehash_policyENSD_17_Hashtable_traitsILb1ELb0ELb1EEEE5clearEv
FNDA:0,_ZNSt10_HashtableINSt7__cxx1112basic_stringIcSt11char_traitsIcESaIcEEESt4pairIKS5_St6vectorIjSaIjEEESaISB_ENSt8__detail10_Select1stESt8equal_toIS5_ESt4hashIS5_ENSD_18_Mod_range_hashingENSD_20_Default_ranged_hashENSD_20_Prime_rehash_policyENSD_17_Hashtable_traitsILb1ELb0ELb1EEEE5clearEv
FN:2496,_ZNSt10_HashtableINSt7__cxx1112basic_stringIcSt11char_traitsIcESaIcEEESt4pairIKS5_St10unique_ptrI10MooseArrayIN11MetaPhysicL10DualNumberIdNSA_28SemiDynamicSparseNumberArrayIdmNSA_8NWrapperILm64EEEEELb1EEEESt14default_deleteISH_EEESaISL_ENSt8__detail10_Select1stESt8equal_toIS5_ESt4hashIS5_ENSN_18_Mod_range_hashingENSN_20_Default_ranged_hashENSN_20_Prime_rehash_policyENSN_17_Hashtable_traitsILb1ELb0ELb1EEEE5clearEv
FNDA:0,_ZNSt10_HashtableINSt7__cxx1112basic_stringIcSt11char_traitsIcESaIcEEESt4pairIKS5_St10unique_ptrI10MooseArrayIN11MetaPhysicL10DualNumberIdNSA_28SemiDynamicSparseNumberArrayIdmNSA_8NWrapperILm64EEEEELb1EEEESt14default_deleteISH_EEESaISL_ENSt8__detail10_Select1stESt8equal_toIS5_ESt4hashIS5_ENSN_18_Mod_range_hashingENSN_20_Default_ranged_hashENSN_20_Prime_rehash_policyENSN_17_Hashtable_traitsILb1ELb0ELb1EEEE5clearEv
FN:2496,_ZNSt10_HashtableINSt7__cxx1112basic_stringIcSt11char_traitsIcESaIcEEESt4pairIKS5_St10unique_ptrI10MooseArrayIN7libMesh11VectorValueIdEEESt14default_deleteISD_EEESaISH_ENSt8__detail10_Select1stESt8equal_toIS5_ESt4hashIS5_ENSJ_18_Mod_range_hashingENSJ_20_Default_ranged_hashENSJ_20_Prime_rehash_policyENSJ_17_Hashtable_traitsILb1ELb0ELb1EEEE5clearEv
FNDA:0,_ZNSt10_HashtableINSt7__cxx1112basic_stringIcSt11char_traitsIcESaIcEEESt4pairIKS5_St10unique_ptrI10MooseArrayIN7libMesh11VectorValueIdEEESt14default_deleteISD_EEESaISH_ENSt8__detail10_Select1stESt8equal_toIS5_ESt4hashIS5_ENSJ_18_Mod_range_hashingENSJ_20_Default_ranged_hashENSJ_20_Prime_rehash_policyENSJ_17_Hashtable_traitsILb1ELb0ELb1EEEE5clearEv
FN:2496,_ZNSt10_HashtableINSt7__cxx1112basic_stringIcSt11char_traitsIcESaIcEEESt4pairIKS5_St6vectorIP19MooseVariableScalarSaISA_EEESaISD_ENSt8__detail10_Select1stESt8equal_toIS5_ESt4hashIS5_ENSF_18_Mod_range_hashingENSF_20_Default_ranged_hashENSF_20_Prime_rehash_policyENSF_17_Hashtable_traitsILb1ELb0ELb1EEEE5clearEv
FNDA:0,_ZNSt10_HashtableINSt7__cxx1112basic_stringIcSt11char_traitsIcESaIcEEESt4pairIKS5_St6vectorIP19MooseVariableScalarSaISA_EEESaISD_ENSt8__detail10_Select1stESt8equal_toIS5_ESt4hashIS5_ENSF_18_Mod_range_hashingENSF_20_Default_ranged_hashENSF_20_Prime_rehash_policyENSF_17_Hashtable_traitsILb1ELb0ELb1EEEE5clearEv
FN:2496,_ZNSt10_HashtableINSt7__cxx1112basic_stringIcSt11char_traitsIcESaIcEEESt4pairIKS5_St10unique_ptrI10MooseArrayIN5Eigen6MatrixIdLin1ELi1ELi0ELin1ELi1EEEESt14default_deleteISD_EEESaISH_ENSt8__detail10_Select1stESt8equal_toIS5_ESt4hashIS5_ENSJ_18_Mod_range_hashingENSJ_20_Default_ranged_hashENSJ_20_Prime_rehash_policyENSJ_17_Hashtable_traitsILb1ELb0ELb1EEEE5clearEv
FNDA:0,_ZNSt10_HashtableINSt7__cxx1112basic_stringIcSt11char_traitsIcESaIcEEESt4pairIKS5_St10unique_ptrI10MooseArrayIN5Eigen6MatrixIdLin1ELi1ELi0ELin1ELi1EEEESt14default_deleteISD_EEESaISH_ENSt8__detail10_Select1stESt8equal_toIS5_ESt4hashIS5_ENSJ_18_Mod_range_hashingENSJ_20_Default_ranged_hashENSJ_20_Prime_rehash_policyENSJ_17_Hashtable_traitsILb1ELb0ELb1EEEE5clearEv
FN:2496,_ZNSt10_HashtableINSt7__cxx1112basic_stringIcSt11char_traitsIcESaIcEEESt4pairIKS5_St6vectorISt10unique_ptrI10MooseArrayIdESt14default_deleteISB_EESaISE_EEESaISH_ENSt8__detail10_Select1stESt8equal_toIS5_ESt4hashIS5_ENSJ_18_Mod_range_hashingENSJ_20_Default_ranged_hashENSJ_20_Prime_rehash_policyENSJ_17_Hashtable_traitsILb1ELb0ELb1EEEE5clearEv
FNDA:0,_ZNSt10_HashtableINSt7__cxx1112basic_stringIcSt11char_traitsIcESaIcEEESt4pairIKS5_St6vectorISt10unique_ptrI10MooseArrayIdESt14default_deleteISB_EESaISE_EEESaISH_ENSt8__detail10_Select1stESt8equal_toIS5_ESt4hashIS5_ENSJ_18_Mod_range_hashingENSJ_20_Default_ranged_hashENSJ_20_Prime_rehash_policyENSJ_17_Hashtable_traitsILb1ELb0ELb1EEEE5clearEv
FN:2496,_ZNSt10_HashtableINSt7__cxx1112basic_stringIcSt11char_traitsIcESaIcEEESt4pairIKS5_St6vectorIP22MooseVariableFieldBaseSaISA_EEESaISD_ENSt8__detail10_Select1stESt8equal_toIS5_ESt4hashIS5_ENSF_18_Mod_range_hashingENSF_20_Default_ranged_hashENSF_20_Prime_rehash_policyENSF_17_Hashtable_traitsILb1ELb0ELb1EEEE5clearEv
FNDA:0,_ZNSt10_HashtableINSt7__cxx1112basic_stringIcSt11char_traitsIcESaIcEEESt4pairIKS5_St6vectorIP22MooseVariableFieldBaseSaISA_EEESaISD_ENSt8__detail10_Select1stESt8equal_toIS5_ESt4hashIS5_ENSF_18_Mod_range_hashingENSF_20_Default_ranged_hashENSF_20_Prime_rehash_policyENSF_17_Hashtable_traitsILb1ELb0ELb1EEEE5clearEv
FN:2496,_ZNSt10_HashtableIjjSaIjENSt8__detail9_IdentityESt8equal_toIjESt4hashIjENS1_18_Mod_range_hashingENS1_20_Default_ranged_hashENS1_20_Prime_rehash_policyENS1_17_Hashtable_traitsILb0ELb1ELb1EEEE5clearEv
FNDA:0,_ZNSt10_HashtableIjjSaIjENSt8__detail9_IdentityESt8equal_toIjESt4hashIjENS1_18_Mod_range_hashingENS1_20_Default_ranged_hashENS1_20_Prime_rehash_policyENS1_17_Hashtable_traitsILb0ELb1ELb1EEEE5clearEv
FN:2496,_ZNSt10_HashtableINSt7__cxx1112basic_stringIcSt11char_traitsIcESaIcEEESt4pairIKS5_S5_ESaIS8_ENSt8__detail10_Select1stESt8equal_toIS5_ESt4hashIS5_ENSA_18_Mod_range_hashingENSA_20_Default_ranged_hashENSA_20_Prime_rehash_policyENSA_17_Hashtable_traitsILb1ELb0ELb1EEEE5clearEv
FNDA:0,_ZNSt10_HashtableINSt7__cxx1112basic_stringIcSt11char_traitsIcESaIcEEESt4pairIKS5_S5_ESaIS8_ENSt8__detail10_Select1stESt8equal_toIS5_ESt4hashIS5_ENSA_18_Mod_range_hashingENSA_20_Default_ranged_hashENSA_20_Prime_rehash_policyENSA_17_Hashtable_traitsILb1ELb0ELb1EEEE5clearEv
FN:2496,_ZNSt10_HashtableImSt4pairIKmSt6vectorIS2_IS0_IbN11MetaPhysicL10DualNumberIdNS3_28SemiDynamicSparseNumberArrayIdmNS3_8NWrapperILm64EEEEELb1EEEESaISA_EESaISC_EEESaISF_ENSt8__detail10_Select1stESt8equal_toImESt4hashImENSH_18_Mod_range_hashingENSH_20_Default_ranged_hashENSH_20_Prime_rehash_policyENSH_17_Hashtable_traitsILb0ELb0ELb1EEEE5clearEv
FNDA:0,_ZNSt10_HashtableImSt4pairIKmSt6vectorIS2_IS0_IbN11MetaPhysicL10DualNumberIdNS3_28SemiDynamicSparseNumberArrayIdmNS3_8NWrapperILm64EEEEELb1EEEESaISA_EESaISC_EEESaISF_ENSt8__detail10_Select1stESt8equal_toImESt4hashImENSH_18_Mod_range_hashingENSH_20_Default_ranged_hashENSH_20_Prime_rehash_policyENSH_17_Hashtable_traitsILb0ELb0ELb1EEEE5clearEv
FN:2496,_ZNSt10_HashtableImSt4pairIKmSt6vectorIS0_IbN11MetaPhysicL10DualNumberIdNS3_28SemiDynamicSparseNumberArrayIdmNS3_8NWrapperILm64EEEEELb1EEEESaISA_EEESaISD_ENSt8__detail10_Select1stESt8equal_toImESt4hashImENSF_18_Mod_range_hashingENSF_20_Default_ranged_hashENSF_20_Prime_rehash_policyENSF_17_Hashtable_traitsILb0ELb0ELb1EEEE5clearEv
FNDA:0,_ZNSt10_HashtableImSt4pairIKmSt6vectorIS0_IbN11MetaPhysicL10DualNumberIdNS3_28SemiDynamicSparseNumberArrayIdmNS3_8NWrapperILm64EEEEELb1EEEESaISA_EEESaISD_ENSt8__detail10_Select1stESt8equal_toImESt4hashImENSF_18_Mod_range_hashingENSF_20_Default_ranged_hashENSF_20_Prime_rehash_policyENSF_17_Hashtable_traitsILb0ELb0ELb1EEEE5clearEv
FN:2496,_ZNSt10_HashtableImSt4pairIKmSt6vectorIS2_IS0_IbdESaIS3_EESaIS5_EEESaIS8_ENSt8__detail10_Select1stESt8equal_toImESt4hashImENSA_18_Mod_range_hashingENSA_20_Default_ranged_hashENSA_20_Prime_rehash_policyENSA_17_Hashtable_traitsILb0ELb0ELb1EEEE5clearEv
FNDA:0,_ZNSt10_HashtableImSt4pairIKmSt6vectorIS2_IS0_IbdESaIS3_EESaIS5_EEESaIS8_ENSt8__detail10_Select1stESt8equal_toImESt4hashImENSA_18_Mod_range_hashingENSA_20_Default_ranged_hashENSA_20_Prime_rehash_policyENSA_17_Hashtable_traitsILb0ELb0ELb1EEEE5clearEv
FN:2496,_ZNSt10_HashtableImSt4pairIKmSt6vectorIS0_IbdESaIS3_EEESaIS6_ENSt8__detail10_Select1stESt8equal_toImESt4hashImENS8_18_Mod_range_hashingENS8_20_Default_ranged_hashENS8_20_Prime_rehash_policyENS8_17_Hashtable_traitsILb0ELb0ELb1EEEE5clearEv
FNDA:0,_ZNSt10_HashtableImSt4pairIKmSt6vectorIS0_IbdESaIS3_EEESaIS6_ENSt8__detail10_Select1stESt8equal_toImESt4hashImENS8_18_Mod_range_hashingENS8_20_Default_ranged_hashENS8_20_Prime_rehash_policyENS8_17_Hashtable_traitsILb0ELb0ELb1EEEE5clearEv
FN:2496,_ZNSt10_HashtableINSt7__cxx1112basic_stringIcSt11char_traitsIcESaIcEEESt4pairIKS5_St10unique_ptrI10MooseArrayIdESt14default_deleteISA_EEESaISE_ENSt8__detail10_Select1stESt8equal_toIS5_ESt4hashIS5_ENSG_18_Mod_range_hashingENSG_20_Default_ranged_hashENSG_20_Prime_rehash_policyENSG_17_Hashtable_traitsILb1ELb0ELb1EEEE5clearEv
FNDA:0,_ZNSt10_HashtableINSt7__cxx1112basic_stringIcSt11char_traitsIcESaIcEEESt4pairIKS5_St10unique_ptrI10MooseArrayIdESt14default_deleteISA_EEESaISE_ENSt8__detail10_Select1stESt8equal_toIS5_ESt4hashIS5_ENSG_18_Mod_range_hashingENSG_20_Default_ranged_hashENSG_20_Prime_rehash_policyENSG_17_Hashtable_traitsILb1ELb0ELb1EEEE5clearEv
FN:2535,_ZNSt10_HashtableIjjSaIjENSt8__detail9_IdentityESt8equal_toIjESt4hashIjENS1_18_Mod_range_hashingENS1_20_Default_ranged_hashENS1_20_Prime_rehash_policyENS1_17_Hashtable_traitsILb0ELb1ELb1EEEE9_M_rehashEmRKm
FNDA:0,_ZNSt10_HashtableIjjSaIjENSt8__detail9_IdentityESt8equal_toIjESt4hashIjENS1_18_Mod_range_hashingENS1_20_Default_ranged_hashENS1_20_Prime_rehash_policyENS1_17_Hashtable_traitsILb0ELb1ELb1EEEE9_M_rehashEmRKm
FN:2535,_ZNSt10_HashtableImSt4pairIKmSt6vectorIS0_IbN11MetaPhysicL10DualNumberIdNS3_28SemiDynamicSparseNumberArrayIdmNS3_8NWrapperILm64EEEEELb1EEEESaISA_EEESaISD_ENSt8__detail10_Select1stESt8equal_toImESt4hashImENSF_18_Mod_range_hashingENSF_20_Default_ranged_hashENSF_20_Prime_rehash_policyENSF_17_Hashtable_traitsILb0ELb0ELb1EEEE9_M_rehashEmRS1_
FNDA:0,_ZNSt10_HashtableImSt4pairIKmSt6vectorIS0_IbN11MetaPhysicL10DualNumberIdNS3_28SemiDynamicSparseNumberArrayIdmNS3_8NWrapperILm64EEEEELb1EEEESaISA_EEESaISD_ENSt8__detail10_Select1stESt8equal_toImESt4hashImENSF_18_Mod_range_hashingENSF_20_Default_ranged_hashENSF_20_Prime_rehash_policyENSF_17_Hashtable_traitsILb0ELb0ELb1EEEE9_M_rehashEmRS1_
FN:2535,_ZNSt10_HashtableImSt4pairIKmSt6vectorIS2_IS0_IbN11MetaPhysicL10DualNumberIdNS3_28SemiDynamicSparseNumberArrayIdmNS3_8NWrapperILm64EEEEELb1EEEESaISA_EESaISC_EEESaISF_ENSt8__detail10_Select1stESt8equal_toImESt4hashImENSH_18_Mod_range_hashingENSH_20_Default_ranged_hashENSH_20_Prime_rehash_policyENSH_17_Hashtable_traitsILb0ELb0ELb1EEEE9_M_rehashEmRS1_
FNDA:0,_ZNSt10_HashtableImSt4pairIKmSt6vectorIS2_IS0_IbN11MetaPhysicL10DualNumberIdNS3_28SemiDynamicSparseNumberArrayIdmNS3_8NWrapperILm64EEEEELb1EEEESaISA_EESaISC_EEESaISF_ENSt8__detail10_Select1stESt8equal_toImESt4hashImENSH_18_Mod_range_hashingENSH_20_Default_ranged_hashENSH_20_Prime_rehash_policyENSH_17_Hashtable_traitsILb0ELb0ELb1EEEE9_M_rehashEmRS1_
FN:2535,_ZNSt10_HashtableImSt4pairIKmSt6vectorIS0_IbdESaIS3_EEESaIS6_ENSt8__detail10_Select1stESt8equal_toImESt4hashImENS8_18_Mod_range_hashingENS8_20_Default_ranged_hashENS8_20_Prime_rehash_policyENS8_17_Hashtable_traitsILb0ELb0ELb1EEEE9_M_rehashEmRS1_
FNDA:0,_ZNSt10_HashtableImSt4pairIKmSt6vectorIS0_IbdESaIS3_EEESaIS6_ENSt8__detail10_Select1stESt8equal_toImESt4hashImENS8_18_Mod_range_hashingENS8_20_Default_ranged_hashENS8_20_Prime_rehash_policyENS8_17_Hashtable_traitsILb0ELb0ELb1EEEE9_M_rehashEmRS1_
FN:2535,_ZNSt10_HashtableImSt4pairIKmSt6vectorIS2_IS0_IbdESaIS3_EESaIS5_EEESaIS8_ENSt8__detail10_Select1stESt8equal_toImESt4hashImENSA_18_Mod_range_hashingENSA_20_Default_ranged_hashENSA_20_Prime_rehash_policyENSA_17_Hashtable_traitsILb0ELb0ELb1EEEE9_M_rehashEmRS1_
FNDA:0,_ZNSt10_HashtableImSt4pairIKmSt6vectorIS2_IS0_IbdESaIS3_EESaIS5_EEESaIS8_ENSt8__detail10_Select1stESt8equal_toImESt4hashImENSA_18_Mod_range_hashingENSA_20_Default_ranged_hashENSA_20_Prime_rehash_policyENSA_17_Hashtable_traitsILb0ELb0ELb1EEEE9_M_rehashEmRS1_
FN:2558,_ZNSt10_HashtableIjjSaIjENSt8__detail9_IdentityESt8equal_toIjESt4hashIjENS1_18_Mod_range_hashingENS1_20_Default_ranged_hashENS1_20_Prime_rehash_policyENS1_17_Hashtable_traitsILb0ELb1ELb1EEEE13_M_rehash_auxEmSt17integral_constantIbLb1EE
FNDA:0,_ZNSt10_HashtableIjjSaIjENSt8__detail9_IdentityESt8equal_toIjESt4hashIjENS1_18_Mod_range_hashingENS1_20_Default_ranged_hashENS1_20_Prime_rehash_policyENS1_17_Hashtable_traitsILb0ELb1ELb1EEEE13_M_rehash_auxEmSt17integral_constantIbLb1EE
FN:2558,_ZNSt10_HashtableImSt4pairIKmSt6vectorIS0_IbN11MetaPhysicL10DualNumberIdNS3_28SemiDynamicSparseNumberArrayIdmNS3_8NWrapperILm64EEEEELb1EEEESaISA_EEESaISD_ENSt8__detail10_Select1stESt8equal_toImESt4hashImENSF_18_Mod_range_hashingENSF_20_Default_ranged_hashENSF_20_Prime_rehash_policyENSF_17_Hashtable_traitsILb0ELb0ELb1EEEE13_M_rehash_auxEmSt17integral_constantIbLb1EE
FNDA:0,_ZNSt10_HashtableImSt4pairIKmSt6vectorIS0_IbN11MetaPhysicL10DualNumberIdNS3_28SemiDynamicSparseNumberArrayIdmNS3_8NWrapperILm64EEEEELb1EEEESaISA_EEESaISD_ENSt8__detail10_Select1stESt8equal_toImESt4hashImENSF_18_Mod_range_hashingENSF_20_Default_ranged_hashENSF_20_Prime_rehash_policyENSF_17_Hashtable_traitsILb0ELb0ELb1EEEE13_M_rehash_auxEmSt17integral_constantIbLb1EE
FN:2558,_ZNSt10_HashtableImSt4pairIKmSt6vectorIS2_IS0_IbN11MetaPhysicL10DualNumberIdNS3_28SemiDynamicSparseNumberArrayIdmNS3_8NWrapperILm64EEEEELb1EEEESaISA_EESaISC_EEESaISF_ENSt8__detail10_Select1stESt8equal_toImESt4hashImENSH_18_Mod_range_hashingENSH_20_Default_ranged_hashENSH_20_Prime_rehash_policyENSH_17_Hashtable_traitsILb0ELb0ELb1EEEE13_M_rehash_auxEmSt17integral_constantIbLb1EE
FNDA:0,_ZNSt10_HashtableImSt4pairIKmSt6vectorIS2_IS0_IbN11MetaPhysicL10DualNumberIdNS3_28SemiDynamicSparseNumberArrayIdmNS3_8NWrapperILm64EEEEELb1EEEESaISA_EESaISC_EEESaISF_ENSt8__detail10_Select1stESt8equal_toImESt4hashImENSH_18_Mod_range_hashingENSH_20_Default_ranged_hashENSH_20_Prime_rehash_policyENSH_17_Hashtable_traitsILb0ELb0ELb1EEEE13_M_rehash_auxEmSt17integral_constantIbLb1EE
FN:2558,_ZNSt10_HashtableImSt4pairIKmSt6vectorIS0_IbdESaIS3_EEESaIS6_ENSt8__detail10_Select1stESt8equal_toImESt4hashImENS8_18_Mod_range_hashingENS8_20_Default_ranged_hashENS8_20_Prime_rehash_policyENS8_17_Hashtable_traitsILb0ELb0ELb1EEEE13_M_rehash_auxEmSt17integral_constantIbLb1EE
FNDA:0,_ZNSt10_HashtableImSt4pairIKmSt6vectorIS0_IbdESaIS3_EEESaIS6_ENSt8__detail10_Select1stESt8equal_toImESt4hashImENS8_18_Mod_range_hashingENS8_20_Default_ranged_hashENS8_20_Prime_rehash_policyENS8_17_Hashtable_traitsILb0ELb0ELb1EEEE13_M_rehash_auxEmSt17integral_constantIbLb1EE
FN:2558,_ZNSt10_HashtableImSt4pairIKmSt6vectorIS2_IS0_IbdESaIS3_EESaIS5_EEESaIS8_ENSt8__detail10_Select1stESt8equal_toImESt4hashImENSA_18_Mod_range_hashingENSA_20_Default_ranged_hashENSA_20_Prime_rehash_policyENSA_17_Hashtable_traitsILb0ELb0ELb1EEEE13_M_rehash_auxEmSt17integral_constantIbLb1EE
FNDA:0,_ZNSt10_HashtableImSt4pairIKmSt6vectorIS2_IS0_IbdESaIS3_EESaIS5_EEESaIS8_ENSt8__detail10_Select1stESt8equal_toImESt4hashImENSA_18_Mod_range_hashingENSA_20_Default_ranged_hashENSA_20_Prime_rehash_policyENSA_17_Hashtable_traitsILb0ELb0ELb1EEEE13_M_rehash_auxEmSt17integral_constantIbLb1EE
FNF:61
FNH:0
DA:301,0
DA:302,0
DA:306,0
DA:307,0
DA:308,0
DA:312,0
DA:312,0
DA:312,0
DA:312,0
DA:312,0
DA:418,0
DA:437,0
DA:439,0
DA:440,0
DA:443,0
DA:449,0
DA:456,0
DA:457,0
DA:456,0
DA:457,0
DA:456,0
DA:457,0
DA:456,0
DA:457,0
DA:456,0
DA:457,0
DA:456,0
DA:457,0
DA:456,0
DA:457,0
DA:456,0
DA:457,0
DA:456,0
DA:457,0
DA:456,0
DA:457,0
DA:456,0
DA:457,0
DA:456,0
DA:457,0
DA:456,0
DA:457,0
DA:456,0
DA:457,0
DA:456,0
DA:457,0
DA:466,0
DA:649,0
DA:794,0
DA:798,0
DA:816,0
DA:817,0
DA:818,0
DA:827,0
DA:828,0
DA:829,0
DA:906,0
DA:1584,0
DA:1585,0
DA:1924,0
DA:1930,0
DA:1931,0
DA:1934,0
DA:1938,0
DA:1940,0
DA:1924,0
DA:1930,0
DA:1931,0
DA:1934,0
DA:1938,0
DA:1940,0
DA:1924,0
DA:1930,0
DA:1931,0
DA:1934,0
DA:1938,0
DA:1940,0
DA:1924,0
DA:1930,0
DA:1931,0
DA:1934,0
DA:1938,0
DA:1940,0
DA:1954,0
DA:1960,0
DA:1961,0
DA:1964,0
DA:1968,0
DA:1970,0
DA:1983,0
DA:1987,0
DA:1991,0
DA:1992,0
DA:1999,0
DA:2000,0
DA:2002,0
DA:2005,0
DA:2007,0
DA:2009,0
DA:1983,0
DA:1987,0
DA:1991,0
DA:1992,0
DA:1999,0
DA:2000,0
DA:2002,0
DA:2005,0
DA:2007,0
DA:2009,0
DA:1983,0
DA:1987,0
DA:1991,0
DA:1992,0
DA:1999,0
DA:2000,0
DA:2002,0
DA:2005,0
DA:2007,0
DA:2009,0
DA:1983,0
DA:1987,0
DA:1991,0
DA:1992,0
DA:1999,0
DA:2000,0
DA:2002,0
DA:2005,0
DA:2007,0
DA:2009,0
DA:1983,0
DA:1987,0
DA:1991,0
DA:1992,0
DA:1999,0
DA:2000,0
DA:2002,0
DA:2005,0
DA:2007,0
DA:2009,0
DA:2142,0
DA:2148,0
DA:2150,0
DA:2153,0
DA:2155,0
DA:2162,0
DA:2163,0
DA:2164,0
DA:2142,0
DA:2148,0
DA:2150,0
DA:2153,0
DA:2155,0
DA:2162,0
DA:2163,0
DA:2164,0
DA:2142,0
DA:2148,0
DA:2150,0
DA:2153,0
DA:2155,0
DA:2162,0
DA:2163,0
DA:2164,0
DA:2142,0
DA:2148,0
DA:2150,0
DA:2153,0
DA:2155,0
DA:2162,0
DA:2163,0
DA:2164,0
DA:2142,0
DA:2148,0
DA:2150,0
DA:2153,0
DA:2155,0
DA:2162,0
DA:2163,0
DA:2164,0
DA:2229,0
DA:2235,0
DA:2236,0
DA:2237,0
DA:2238,0
DA:2243,0
DA:2244,0
DA:2245,0
DA:2254,0
DA:2255,0
DA:2256,0
DA:2257,0
DA:2496,0
DA:2501,0
DA:2502,0
DA:2503,0
DA:2504,0
DA:2505,0
DA:2496,0
DA:2500,0
DA:2501,0
DA:2502,0
DA:2503,0
DA:2504,0
DA:2505,0
DA:2496,0
DA:2500,0
DA:2501,0
DA:2502,0
DA:2503,0
DA:2504,0
DA:2505,0
DA:2496,0
DA:2500,0
DA:2501,0
DA:2502,0
DA:2503,0
DA:2504,0
DA:2505,0
DA:2496,0
DA:2500,0
DA:2501,0
DA:2502,0
DA:2503,0
DA:2504,0
DA:2505,0
DA:2496,0
DA:2501,0
DA:2502,0
DA:2503,0
DA:2504,0
DA:2505,0
DA:2496,0
DA:2501,0
DA:2502,0
DA:2503,0
DA:2504,0
DA:2505,0
DA:2496,0
DA:2501,0
DA:2502,0
DA:2503,0
DA:2504,0
DA:2505,0
DA:2496,0
DA:2501,0
DA:2502,0
DA:2503,0
DA:2504,0
DA:2505,0
DA:2496,0
DA:2501,0
DA:2502,0
DA:2503,0
DA:2504,0
DA:2505,0
DA:2496,0
DA:2501,0
DA:2502,0
DA:2503,0
DA:2504,0
DA:2505,0
DA:2496,0
DA:2501,0
DA:2502,0
DA:2503,0
DA:2504,0
DA:2505,0
DA:2496,0
DA:2501,0
DA:2502,0
DA:2503,0
DA:2504,0
DA:2505,0
DA:2496,0
DA:2501,0
DA:2502,0
DA:2503,0
DA:2504,0
DA:2505,0
DA:2496,0
DA:2501,0
DA:2502,0
DA:2503,0
DA:2504,0
DA:2505,0
DA:2535,0
DA:2541,0
DA:2543,0
DA:2547,0
DA:2548,0
DA:2550,0
DA:2535,0
DA:2541,0
DA:2543,0
DA:2547,0
DA:2548,0
DA:2550,0
DA:2535,0
DA:2541,0
DA:2543,0
DA:2547,0
DA:2548,0
DA:2550,0
DA:2535,0
DA:2541,0
DA:2543,0
DA:2547,0
DA:2548,0
DA:2550,0
DA:2535,0
DA:2541,0
DA:2543,0
DA:2547,0
DA:2548,0
DA:2550,0
DA:2558,0
DA:2564,0
DA:2566,0
DA:2571,0
DA:2573,0
DA:2574,0
DA:2575,0
DA:2576,0
DA:2577,0
DA:2582,0
DA:2583,0
DA:2589,0
DA:2590,0
DA:2591,0
DA:2592,0
DA:2558,0
DA:2564,0
DA:2566,0
DA:2571,0
DA:2573,0
DA:2574,0
DA:2575,0
DA:2576,0
DA:2577,0
DA:2582,0
DA:2583,0
DA:2589,0
DA:2590,0
DA:2591,0
DA:2592,0
DA:2558,0
DA:2564,0
DA:2566,0
DA:2571,0
DA:2573,0
DA:2574,0
DA:2575,0
DA:2576,0
DA:2577,0
DA:2582,0
DA:2583,0
DA:2589,0
DA:2590,0
DA:2591,0
DA:2592,0
DA:2558,0
DA:2564,0
DA:2566,0
DA:2571,0
DA:2573,0
DA:2574,0
DA:2575,0
DA:2576,0
DA:2577,0
DA:2582,0
DA:2583,0
DA:2589,0
DA:2590,0
DA:2591,0
DA:2592,0
DA:2558,0
DA:2564,0
DA:2566,0
DA:2571,0
DA:2573,0
DA:2574,0
DA:2575,0
DA:2576,0
DA:2577,0
DA:2582,0
DA:2583,0
DA:2589,0
DA:2590,0
DA:2591,0
DA:2592,0
LF:390
LH:0
end_of_record
SF:/usr/share/miniconda3/envs/moose/x86_64-conda-linux-gnu/include/c++/12.3.0/bits/stl_iterator.h
DA:294,0
DA:295,0
DA:344,0
DA:367,0
DA:1073,0
DA:1079,0
DA:1090,0
DA:1107,0
DA:1108,0
DA:1154,78
DA:1333,0
DA:1542,0
DA:1572,0
LF:13
LH:1
end_of_record
SF:/home/runner/work/beaver/beaver/moose/framework/build/header_symlinks/SetupInterface.h
FN:61,_ZN14SetupInterface11customSetupERK13MooseEnumItem
FNDA:0,_ZN14SetupInterface11customSetupERK13MooseEnumItem
FNF:1
FNH:0
DA:61,0
LF:1
LH:0
end_of_record
SF:/home/runner/work/beaver/beaver/moose/framework/build/header_symlinks/MooseEnum.h
FN:66,_ZN9MooseEnumD0Ev
FNDA:0,_ZN9MooseEnumD0Ev
FN:66,_ZN9MooseEnumD2Ev
FNDA:218,_ZN9MooseEnumD2Ev
FNF:2
FNH:1
DA:66,0
DA:66,436
DA:72,43
LF:3
LH:2
end_of_record
SF:/home/runner/work/beaver/beaver/moose/framework/build/header_symlinks/BlockRestrictable.h
FN:86,_ZN17BlockRestrictableD0Ev
FNDA:0,_ZN17BlockRestrictableD0Ev
FN:86,_ZN17BlockRestrictableD2Ev
FNDA:0,_ZN17BlockRestrictableD2Ev
FNF:2
FNH:0
DA:86,0
DA:86,0
LF:2
LH:0
end_of_record
SF:/home/runner/work/beaver/beaver/moose/framework/build/header_symlinks/MaterialData.h
FN:253,_ZNK12MaterialData19haveGenericPropertyIdLb1EEEbRKNSt7__cxx1112basic_stringIcSt11char_traitsIcESaIcEEE
FNDA:0,_ZNK12MaterialData19haveGenericPropertyIdLb1EEEbRKNSt7__cxx1112basic_stringIcSt11char_traitsIcESaIcEEE
FN:269,_ZN12MaterialData17getPropertyHelperIdLb0ELb0EEERN29GenericMaterialPropertyStructIT_XT0_EE4typeERKNSt7__cxx1112basic_stringIcSt11char_traitsIcESaIcEEEjRK11MooseObject
FNDA:0,_ZN12MaterialData17getPropertyHelperIdLb0ELb0EEERN29GenericMaterialPropertyStructIT_XT0_EE4typeERKNSt7__cxx1112basic_stringIcSt11char_traitsIcESaIcEEEjRK11MooseObject
FN:269,_ZN12MaterialData17getPropertyHelperI18RankTwoTensorTemplIdELb1ELb0EEERN29GenericMaterialPropertyStructIT_XT0_EE4typeERKNSt7__cxx1112basic_stringIcSt11char_traitsIcESaIcEEEjRK11MooseObject
FNDA:0,_ZN12MaterialData17getPropertyHelperI18RankTwoTensorTemplIdELb1ELb0EEERN29GenericMaterialPropertyStructIT_XT0_EE4typeERKNSt7__cxx1112basic_stringIcSt11char_traitsIcESaIcEEEjRK11MooseObject
FN:269,_ZN12MaterialData17getPropertyHelperIdLb1ELb0EEERN29GenericMaterialPropertyStructIT_XT0_EE4typeERKNSt7__cxx1112basic_stringIcSt11char_traitsIcESaIcEEEjRK11MooseObject
FNDA:0,_ZN12MaterialData17getPropertyHelperIdLb1ELb0EEERN29GenericMaterialPropertyStructIT_XT0_EE4typeERKNSt7__cxx1112basic_stringIcSt11char_traitsIcESaIcEEEjRK11MooseObject
FNF:4
FNH:0
DA:98,0
DA:115,0
DA:248,0
DA:253,0
DA:255,0
DA:258,0
DA:260,0
DA:264,0
DA:269,0
DA:279,0
DA:281,0
DA:284,0
DA:287,0
DA:290,0
DA:292,0
DA:293,0
DA:296,0
DA:301,0
DA:305,0
DA:306,0
DA:310,0
DA:313,0
DA:316,0
DA:317,0
DA:318,0
DA:319,0
DA:321,0
DA:269,0
DA:279,0
DA:281,0
DA:284,0
DA:287,0
DA:290,0
DA:292,0
DA:293,0
DA:296,0
DA:301,0
DA:305,0
DA:306,0
DA:310,0
DA:313,0
DA:316,0
DA:317,0
DA:318,0
DA:319,0
DA:321,0
DA:269,0
DA:279,0
DA:281,0
DA:284,0
DA:287,0
DA:290,0
DA:292,0
DA:293,0
DA:296,0
DA:301,0
DA:305,0
DA:306,0
DA:310,0
DA:313,0
DA:316,0
DA:317,0
DA:318,0
DA:319,0
DA:321,0
LF:65
LH:0
end_of_record
SF:/home/runner/work/beaver/beaver/moose/framework/build/header_symlinks/RankTwoTensor.h
FN:1383,_ZN11MetaPhysicL7RawTypeI18RankTwoTensorTemplIdEvE5valueERKS2_
FNDA:0,_ZN11MetaPhysicL7RawTypeI18RankTwoTensorTemplIdEvE5valueERKS2_
FN:1383,_ZN11MetaPhysicL7RawTypeI18RankTwoTensorTemplINS_10DualNumberIdNS_28SemiDynamicSparseNumberArrayIdmNS_8NWrapperILm64EEEEELb1EEEEvE5valueERKS8_
FNDA:0,_ZN11MetaPhysicL7RawTypeI18RankTwoTensorTemplINS_10DualNumberIdNS_28SemiDynamicSparseNumberArrayIdmNS_8NWrapperILm64EEEEELb1EEEEvE5valueERKS8_
FNF:2
FNH:0
DA:79,0
DA:1383,0
DA:1385,0
DA:1386,0
DA:1387,0
DA:1388,0
DA:1390,0
DA:1383,0
DA:1385,0
DA:1386,0
DA:1387,0
DA:1388,0
DA:1390,0
LF:13
LH:0
end_of_record
SF:/usr/share/miniconda3/envs/moose/libmesh/include/metaphysicl/semidynamicsparsenumberarray_decl.h
DA:34,0
DA:56,0
DA:58,14073840
DA:62,14073840
LF:4
LH:2
end_of_record
SF:/usr/share/miniconda3/envs/moose/libmesh/include/libmesh/elem.h
FN:576,_ZNK7libMesh4Elem9is_remoteEv
FNDA:0,_ZNK7libMesh4Elem9is_remoteEv
FN:634,_ZNK7libMesh4Elem16n_nodes_in_childEj
FNDA:0,_ZNK7libMesh4Elem16n_nodes_in_childEj
FN:720,_ZNK7libMesh4Elem18is_vertex_on_childEjj
FNDA:0,_ZNK7libMesh4Elem18is_vertex_on_childEjj
FN:931,_ZNK7libMesh4Elem18default_side_orderEv
FNDA:0,_ZNK7libMesh4Elem18default_side_orderEv
FN:975,_ZNK7libMesh4Elem17quasicircumcenterEv
FNDA:0,_ZNK7libMesh4Elem17quasicircumcenterEv
FN:1035,_ZNK7libMesh4Elem11qual_boundsENS_11ElemQualityE
FNDA:0,_ZNK7libMesh4Elem11qual_boundsENS_11ElemQualityE
FN:1075,_ZNK7libMesh4Elem14has_affine_mapEv
FNDA:0,_ZNK7libMesh4Elem14has_affine_mapEv
FN:1091,_ZNK7libMesh4Elem9is_linearEv
FNDA:0,_ZNK7libMesh4Elem9is_linearEv
FN:1709,_ZNK7libMesh4Elem19local_singular_nodeERKNS_5PointEd
FNDA:0,_ZNK7libMesh4Elem19local_singular_nodeERKNS_5PointEd
FN:1716,_ZNK7libMesh4Elem16is_singular_nodeEj
FNDA:0,_ZNK7libMesh4Elem16is_singular_nodeEj
FN:1917,_ZNK7libMesh4Elem24embedding_matrix_versionEv
FNDA:0,_ZNK7libMesh4Elem24embedding_matrix_versionEv
FN:2076,_ZNK7libMesh4Elem26_get_bracketing_node_cacheEv
FNDA:0,_ZNK7libMesh4Elem26_get_bracketing_node_cacheEv
FN:2090,_ZNK7libMesh4Elem25_get_parent_indices_cacheEv
FNDA:0,_ZNK7libMesh4Elem25_get_parent_indices_cacheEv
FN:2406,_ZN7libMesh4Elem8set_nodeEj
FNDA:0,_ZN7libMesh4Elem8set_nodeEj
FNF:14
FNH:0
DA:576,0
DA:577,0
DA:634,0
DA:635,0
DA:720,0
DA:722,0
DA:931,0
DA:975,0
DA:976,0
DA:1035,0
DA:1036,0
DA:1075,0
DA:1091,0
DA:1709,0
DA:1710,0
DA:1716,0
DA:1917,0
DA:2076,0
DA:2078,0
DA:2079,0
DA:2090,0
DA:2092,0
DA:2093,0
DA:2406,0
DA:2410,0
DA:2418,0
LF:26
LH:0
end_of_record
SF:/home/runner/work/beaver/beaver/moose/framework/build/header_symlinks/MaterialProperty.h
FN:116,_ZNK20MaterialPropertyBaseIdLb0EE4isADEv
FNDA:0,_ZNK20MaterialPropertyBaseIdLb0EE4isADEv
FN:116,_ZNK20MaterialPropertyBaseI18RankTwoTensorTemplIdELb1EE4isADEv
FNDA:0,_ZNK20MaterialPropertyBaseI18RankTwoTensorTemplIdELb1EE4isADEv
FN:116,_ZNK20MaterialPropertyBaseI18RankTwoTensorTemplIdELb0EE4isADEv
FNDA:0,_ZNK20MaterialPropertyBaseI18RankTwoTensorTemplIdELb0EE4isADEv
FN:116,_ZNK20MaterialPropertyBaseIdLb1EE4isADEv
FNDA:0,_ZNK20MaterialPropertyBaseIdLb1EE4isADEv
FN:138,_ZNK20MaterialPropertyBaseIdLb0EE4sizeEv
FNDA:0,_ZNK20MaterialPropertyBaseIdLb0EE4sizeEv
FN:138,_ZNK20MaterialPropertyBaseI18RankTwoTensorTemplIdELb1EE4sizeEv
FNDA:0,_ZNK20MaterialPropertyBaseI18RankTwoTensorTemplIdELb1EE4sizeEv
FN:138,_ZNK20MaterialPropertyBaseIdLb1EE4sizeEv
FNDA:0,_ZNK20MaterialPropertyBaseIdLb1EE4sizeEv
FN:138,_ZNK20MaterialPropertyBaseI18RankTwoTensorTemplIdELb0EE4sizeEv
FNDA:0,_ZNK20MaterialPropertyBaseI18RankTwoTensorTemplIdELb0EE4sizeEv
FN:216,_ZN5moose8internal22rawValueEqualityHelperI18RankTwoTensorTemplIN11MetaPhysicL10DualNumberIdNS3_28SemiDynamicSparseNumberArrayIdmNS3_8NWrapperILm64EEEEELb1EEEES2_IdEEEvRT_RKT0_
FNDA:0,_ZN5moose8internal22rawValueEqualityHelperI18RankTwoTensorTemplIN11MetaPhysicL10DualNumberIdNS3_28SemiDynamicSparseNumberArrayIdmNS3_8NWrapperILm64EEEEELb1EEEES2_IdEEEvRT_RKT0_
FN:216,_ZN5moose8internal22rawValueEqualityHelperI18RankTwoTensorTemplIdES2_IN11MetaPhysicL10DualNumberIdNS4_28SemiDynamicSparseNumberArrayIdmNS4_8NWrapperILm64EEEEELb1EEEEEEvRT_RKT0_
FNDA:0,_ZN5moose8internal22rawValueEqualityHelperI18RankTwoTensorTemplIdES2_IN11MetaPhysicL10DualNumberIdNS4_28SemiDynamicSparseNumberArrayIdmNS4_8NWrapperILm64EEEEELb1EEEEEEvRT_RKT0_
FN:242,_ZNK20MaterialPropertyBaseI18RankTwoTensorTemplIdELb0EE4typeB5cxx11Ev
FNDA:0,_ZNK20MaterialPropertyBaseI18RankTwoTensorTemplIdELb0EE4typeB5cxx11Ev
FN:242,_ZNK20MaterialPropertyBaseIdLb1EE4typeB5cxx11Ev
FNDA:0,_ZNK20MaterialPropertyBaseIdLb1EE4typeB5cxx11Ev
FN:242,_ZNK20MaterialPropertyBaseI18RankTwoTensorTemplIdELb1EE4typeB5cxx11Ev
FNDA:0,_ZNK20MaterialPropertyBaseI18RankTwoTensorTemplIdELb1EE4typeB5cxx11Ev
FN:242,_ZNK20MaterialPropertyBaseIdLb0EE4typeB5cxx11Ev
FNDA:0,_ZNK20MaterialPropertyBaseIdLb0EE4typeB5cxx11Ev
FN:250,_ZN20MaterialPropertyBaseI18RankTwoTensorTemplIdELb0EE6resizeEm
FNDA:0,_ZN20MaterialPropertyBaseI18RankTwoTensorTemplIdELb0EE6resizeEm
FN:250,_ZN20MaterialPropertyBaseIdLb0EE6resizeEm
FNDA:0,_ZN20MaterialPropertyBaseIdLb0EE6resizeEm
FN:250,_ZN20MaterialPropertyBaseI18RankTwoTensorTemplIdELb1EE6resizeEm
FNDA:0,_ZN20MaterialPropertyBaseI18RankTwoTensorTemplIdELb1EE6resizeEm
FN:250,_ZN20MaterialPropertyBaseIdLb1EE6resizeEm
FNDA:0,_ZN20MaterialPropertyBaseIdLb1EE6resizeEm
FN:257,_ZN20MaterialPropertyBaseI18RankTwoTensorTemplIdELb0EE6qpCopyEjRK13PropertyValuej
FNDA:0,_ZN20MaterialPropertyBaseI18RankTwoTensorTemplIdELb0EE6qpCopyEjRK13PropertyValuej
FN:257,_ZN20MaterialPropertyBaseI18RankTwoTensorTemplIdELb1EE6qpCopyEjRK13PropertyValuej
FNDA:0,_ZN20MaterialPropertyBaseI18RankTwoTensorTemplIdELb1EE6qpCopyEjRK13PropertyValuej
FN:257,_ZN20MaterialPropertyBaseIdLb0EE6qpCopyEjRK13PropertyValuej
FNDA:0,_ZN20MaterialPropertyBaseIdLb0EE6qpCopyEjRK13PropertyValuej
FN:257,_ZN20MaterialPropertyBaseIdLb1EE6qpCopyEjRK13PropertyValuej
FNDA:0,_ZN20MaterialPropertyBaseIdLb1EE6qpCopyEjRK13PropertyValuej
FN:271,_ZN20MaterialPropertyBaseI18RankTwoTensorTemplIdELb1EE5storeERSo
FNDA:0,_ZN20MaterialPropertyBaseI18RankTwoTensorTemplIdELb1EE5storeERSo
FN:271,_ZN20MaterialPropertyBaseI18RankTwoTensorTemplIdELb0EE5storeERSo
FNDA:0,_ZN20MaterialPropertyBaseI18RankTwoTensorTemplIdELb0EE5storeERSo
FN:271,_ZN20MaterialPropertyBaseIdLb0EE5storeERSo
FNDA:0,_ZN20MaterialPropertyBaseIdLb0EE5storeERSo
FN:271,_ZN20MaterialPropertyBaseIdLb1EE5storeERSo
FNDA:0,_ZN20MaterialPropertyBaseIdLb1EE5storeERSo
FN:279,_ZN20MaterialPropertyBaseIdLb1EE4loadERSi
FNDA:0,_ZN20MaterialPropertyBaseIdLb1EE4loadERSi
FN:279,_ZN20MaterialPropertyBaseI18RankTwoTensorTemplIdELb1EE4loadERSi
FNDA:0,_ZN20MaterialPropertyBaseI18RankTwoTensorTemplIdELb1EE4loadERSi
FN:279,_ZN20MaterialPropertyBaseIdLb0EE4loadERSi
FNDA:0,_ZN20MaterialPropertyBaseIdLb0EE4loadERSi
FN:279,_ZN20MaterialPropertyBaseI18RankTwoTensorTemplIdELb0EE4loadERSi
FNDA:0,_ZN20MaterialPropertyBaseI18RankTwoTensorTemplIdELb0EE4loadERSi
FN:287,_ZN20MaterialPropertyBaseI18RankTwoTensorTemplIdELb0EE4swapER13PropertyValue
FNDA:0,_ZN20MaterialPropertyBaseI18RankTwoTensorTemplIdELb0EE4swapER13PropertyValue
FN:287,_ZN20MaterialPropertyBaseIdLb1EE4swapER13PropertyValue
FNDA:0,_ZN20MaterialPropertyBaseIdLb1EE4swapER13PropertyValue
FN:287,_ZN20MaterialPropertyBaseI18RankTwoTensorTemplIdELb1EE4swapER13PropertyValue
FNDA:0,_ZN20MaterialPropertyBaseI18RankTwoTensorTemplIdELb1EE4swapER13PropertyValue
FN:287,_ZN20MaterialPropertyBaseIdLb0EE4swapER13PropertyValue
FNDA:0,_ZN20MaterialPropertyBaseIdLb0EE4swapER13PropertyValue
FN:323,_ZNK20MaterialPropertyBaseIdLb1EE6typeIDEv
FNDA:0,_ZNK20MaterialPropertyBaseIdLb1EE6typeIDEv
FN:323,_ZNK20MaterialPropertyBaseI18RankTwoTensorTemplIdELb0EE6typeIDEv
FNDA:0,_ZNK20MaterialPropertyBaseI18RankTwoTensorTemplIdELb0EE6typeIDEv
FN:323,_ZNK20MaterialPropertyBaseIdLb0EE6typeIDEv
FNDA:0,_ZNK20MaterialPropertyBaseIdLb0EE6typeIDEv
FN:323,_ZNK20MaterialPropertyBaseI18RankTwoTensorTemplIdELb1EE6typeIDEv
FNDA:0,_ZNK20MaterialPropertyBaseI18RankTwoTensorTemplIdELb1EE6typeIDEv
FN:331,_ZNK20MaterialPropertyBaseIdLb1EE5cloneEm
FNDA:0,_ZNK20MaterialPropertyBaseIdLb1EE5cloneEm
FN:331,_ZNK20MaterialPropertyBaseI18RankTwoTensorTemplIdELb0EE5cloneEm
FNDA:0,_ZNK20MaterialPropertyBaseI18RankTwoTensorTemplIdELb0EE5cloneEm
FN:331,_ZNK20MaterialPropertyBaseI18RankTwoTensorTemplIdELb1EE5cloneEm
FNDA:0,_ZNK20MaterialPropertyBaseI18RankTwoTensorTemplIdELb1EE5cloneEm
FN:331,_ZNK20MaterialPropertyBaseIdLb0EE5cloneEm
FNDA:0,_ZNK20MaterialPropertyBaseIdLb0EE5cloneEm
FNF:42
FNH:0
DA:43,0
DA:55,0
DA:114,0
DA:116,0
DA:116,0
DA:116,0
DA:116,0
DA:138,0
DA:138,0
DA:138,0
DA:138,0
DA:216,0
DA:218,0
DA:219,0
DA:216,0
DA:218,0
DA:219,0
DA:218,0
DA:219,0
DA:242,0
DA:244,0
DA:245,0
DA:242,0
DA:244,0
DA:245,0
DA:242,0
DA:244,0
DA:245,0
DA:242,0
DA:244,0
DA:245,0
DA:250,0
DA:252,0
DA:253,0
DA:250,0
DA:252,0
DA:253,0
DA:250,0
DA:252,0
DA:253,0
DA:250,0
DA:252,0
DA:253,0
DA:252,0
DA:253,0
DA:257,0
DA:262,0
DA:263,0
DA:267,0
DA:257,0
DA:262,0
DA:263,0
DA:267,0
DA:257,0
DA:262,0
DA:263,0
DA:265,0
DA:267,0
DA:257,0
DA:262,0
DA:263,0
DA:265,0
DA:267,0
DA:271,0
DA:273,0
DA:275,0
DA:271,0
DA:273,0
DA:275,0
DA:271,0
DA:273,0
DA:275,0
DA:271,0
DA:273,0
DA:275,0
DA:279,0
DA:281,0
DA:283,0
DA:279,0
DA:281,0
DA:283,0
DA:279,0
DA:281,0
DA:283,0
DA:279,0
DA:281,0
DA:283,0
DA:287,0
DA:293,0
DA:297,0
DA:312,0
DA:317,0
DA:287,0
DA:293,0
DA:297,0
DA:312,0
DA:317,0
DA:287,0
DA:293,0
DA:297,0
DA:312,0
DA:317,0
DA:318,0
DA:287,0
DA:293,0
DA:297,0
DA:312,0
DA:317,0
DA:318,0
DA:323,0
DA:326,0
DA:323,0
DA:326,0
DA:323,0
DA:326,0
DA:323,0
DA:326,0
DA:331,0
DA:333,0
DA:334,0
DA:336,0
DA:337,0
DA:331,0
DA:333,0
DA:334,0
DA:336,0
DA:337,0
DA:331,0
DA:333,0
DA:334,0
DA:336,0
DA:337,0
DA:331,0
DA:333,0
DA:334,0
DA:336,0
DA:337,0
DA:344,0
DA:367,0
DA:418,0
LF:140
LH:0
end_of_record
SF:/home/runner/work/beaver/beaver/moose/framework/build/header_symlinks/MooseUtils.h
FN:138,_ZN10MooseUtils4joinISt6vectorINSt7__cxx1112basic_stringIcSt11char_traitsIcESaIcEEESaIS7_EEEES7_RKT_RKS7_
FNDA:0,_ZN10MooseUtils4joinISt6vectorINSt7__cxx1112basic_stringIcSt11char_traitsIcESaIcEEESaIS7_EEEES7_RKT_RKS7_
FN:330,_ZN10MooseUtils13prettyCppTypeI18RankTwoTensorTemplIdEEENSt7__cxx1112basic_stringIcSt11char_traitsIcESaIcEEEPKT_
FNDA:0,_ZN10MooseUtils13prettyCppTypeI18RankTwoTensorTemplIdEEENSt7__cxx1112basic_stringIcSt11char_traitsIcESaIcEEEPKT_
FN:330,_ZN10MooseUtils13prettyCppTypeIdEENSt7__cxx1112basic_stringIcSt11char_traitsIcESaIcEEEPKT_
FNDA:0,_ZN10MooseUtils13prettyCppTypeIdEENSt7__cxx1112basic_stringIcSt11char_traitsIcESaIcEEEPKT_
FNF:3
FNH:0
DA:138,0
DA:140,0
DA:141,0
DA:143,0
DA:144,0
DA:330,0
DA:332,0
DA:330,0
DA:332,0
LF:9
LH:0
end_of_record
SF:/usr/share/miniconda3/envs/moose/x86_64-conda-linux-gnu/include/c++/12.3.0/bits/shared_ptr.h
FN:463,_ZNSt10shared_ptrI13RegistryEntryI18BVStressDivergenceEEC2ISaIvEJRK17RegistryEntryDataEEESt20_Sp_alloc_shared_tagIT_EDpOT0_
FNDA:26,_ZNSt10shared_ptrI13RegistryEntryI18BVStressDivergenceEEC2ISaIvEJRK17RegistryEntryDataEEESt20_Sp_alloc_shared_tagIT_EDpOT0_
FN:463,_ZNSt10shared_ptrI13RegistryEntryI27BVSinglePhaseTimeDerivativeEEC2ISaIvEJRK17RegistryEntryDataEEESt20_Sp_alloc_shared_tagIT_EDpOT0_
FNDA:26,_ZNSt10shared_ptrI13RegistryEntryI27BVSinglePhaseTimeDerivativeEEC2ISaIvEJRK17RegistryEntryDataEEESt20_Sp_alloc_shared_tagIT_EDpOT0_
FN:463,_ZNSt10shared_ptrI13RegistryEntryI18BVSinglePhaseDarcyEEC2ISaIvEJRK17RegistryEntryDataEEESt20_Sp_alloc_shared_tagIT_EDpOT0_
FNDA:26,_ZNSt10shared_ptrI13RegistryEntryI18BVSinglePhaseDarcyEEC2ISaIvEJRK17RegistryEntryDataEEESt20_Sp_alloc_shared_tagIT_EDpOT0_
FNF:3
FNH:3
DA:175,156
DA:463,26
DA:464,26
DA:465,26
DA:463,26
DA:464,26
DA:465,26
DA:463,26
DA:464,26
DA:465,26
DA:930,0
DA:1010,78
LF:12
LH:11
end_of_record
SF:/usr/share/miniconda3/envs/moose/x86_64-conda-linux-gnu/include/c++/12.3.0/bits/functional_hash.h
DA:166,0
LF:1
LH:0
end_of_record
SF:/usr/share/miniconda3/envs/moose/x86_64-conda-linux-gnu/include/c++/12.3.0/bits/stl_multimap.h
DA:301,0
LF:1
LH:0
end_of_record
SF:/home/runner/work/beaver/beaver/moose/framework/build/header_symlinks/FunctorInterface.h
LF:0
LH:0
end_of_record
SF:/usr/share/miniconda3/envs/moose/x86_64-conda-linux-gnu/include/c++/12.3.0/bits/stl_algobase.h
FN:380,_ZNSt11__copy_moveILb0ELb0ESt26random_access_iterator_tagE8__copy_mIPKNSt7__cxx1112basic_stringIcSt11char_traitsIcESaIcEEE22infix_ostream_iteratorIS8_cS6_EEET0_T_SE_SD_
FNDA:0,_ZNSt11__copy_moveILb0ELb0ESt26random_access_iterator_tagE8__copy_mIPKNSt7__cxx1112basic_stringIcSt11char_traitsIcESaIcEEE22infix_ostream_iteratorIS8_cS6_EEET0_T_SE_SD_
FN:521,_ZSt14__copy_move_a1ILb0EPKNSt7__cxx1112basic_stringIcSt11char_traitsIcESaIcEEE22infix_ostream_iteratorIS5_cS3_EET1_T0_SB_SA_
FNDA:0,_ZSt14__copy_move_a1ILb0EPKNSt7__cxx1112basic_stringIcSt11char_traitsIcESaIcEEE22infix_ostream_iteratorIS5_cS3_EET1_T0_SB_SA_
FN:527,_ZSt13__copy_move_aILb0EN9__gnu_cxx17__normal_iteratorIPKNSt7__cxx1112basic_stringIcSt11char_traitsIcESaIcEEESt6vectorIS7_SaIS7_EEEE22infix_ostream_iteratorIS7_cS5_EET1_T0_SH_SG_
FNDA:0,_ZSt13__copy_move_aILb0EN9__gnu_cxx17__normal_iteratorIPKNSt7__cxx1112basic_stringIcSt11char_traitsIcESaIcEEESt6vectorIS7_SaIS7_EEEE22infix_ostream_iteratorIS7_cS5_EET1_T0_SH_SG_
FN:611,_ZSt4copyIPKmPmET0_T_S4_S3_
FNDA:14073840,_ZSt4copyIPKmPmET0_T_S4_S3_
FN:611,_ZSt4copyIPKdPdET0_T_S4_S3_
FNDA:14073840,_ZSt4copyIPKdPdET0_T_S4_S3_
FN:714,_ZNSt20__copy_move_backwardILb1ELb0ESt26random_access_iterator_tagE13__copy_move_bIPSt4pairIbN11MetaPhysicL10DualNumberIdNS4_28SemiDynamicSparseNumberArrayIdmNS4_8NWrapperILm64EEEEELb1EEEESC_EET0_T_SE_SD_
FNDA:0,_ZNSt20__copy_move_backwardILb1ELb0ESt26random_access_iterator_tagE13__copy_move_bIPSt4pairIbN11MetaPhysicL10DualNumberIdNS4_28SemiDynamicSparseNumberArrayIdmNS4_8NWrapperILm64EEEEELb1EEEESC_EET0_T_SE_SD_
FN:883,_ZSt13move_backwardIPSt4pairIbdES2_ET0_T_S4_S3_
FNDA:0,_ZSt13move_backwardIPSt4pairIbdES2_ET0_T_S4_S3_
FN:906,_ZSt9__fill_a1IPSt4pairIbN11MetaPhysicL10DualNumberIdNS1_28SemiDynamicSparseNumberArrayIdmNS1_8NWrapperILm64EEEEELb1EEEES8_EN9__gnu_cxx11__enable_ifIXntsrSt11__is_scalarIT0_E7__valueEvE6__typeET_SH_RKSD_
FNDA:0,_ZSt9__fill_a1IPSt4pairIbN11MetaPhysicL10DualNumberIdNS1_28SemiDynamicSparseNumberArrayIdmNS1_8NWrapperILm64EEEEELb1EEEES8_EN9__gnu_cxx11__enable_ifIXntsrSt11__is_scalarIT0_E7__valueEvE6__typeET_SH_RKSD_
FNF:8
FNH:2
DA:235,0
DA:236,0
DA:259,0
DA:260,0
DA:315,0
DA:336,0
DA:380,0
DA:383,0
DA:385,0
DA:386,0
DA:389,0
DA:429,28147680
DA:430,0
DA:431,28147680
DA:432,28147680
DA:495,0
DA:521,0
DA:522,0
DA:527,0
DA:529,0
DA:532,0
DA:611,14073840
DA:620,14073840
DA:611,14073840
DA:620,14073840
DA:620,0
DA:714,0
DA:717,0
DA:718,0
DA:719,0
DA:720,0
DA:760,0
DA:883,0
DA:894,0
DA:906,0
DA:909,0
DA:911,0
DA:968,0
DA:999,0
LF:39
LH:7
end_of_record
SF:/usr/share/miniconda3/envs/moose/x86_64-conda-linux-gnu/include/c++/12.3.0/iostream
LF:0
LH:0
end_of_record
SF:/home/runner/work/beaver/beaver/moose/framework/build/header_symlinks/MooseEnumBase.h
FN:51,_ZN13MooseEnumBaseD0Ev
FNDA:0,_ZN13MooseEnumBaseD0Ev
FN:51,_ZN13MooseEnumBaseD2Ev
FNDA:218,_ZN13MooseEnumBaseD2Ev
FNF:2
FNH:1
DA:51,0
DA:51,218
LF:2
LH:1
end_of_record
SF:/usr/share/miniconda3/envs/moose/libmesh/include/libmesh/parameters.h
FN:85,_ZN7libMesh10ParametersD0Ev
FNDA:0,_ZN7libMesh10ParametersD0Ev
FN:85,_ZN7libMesh10ParametersD2Ev
FNDA:0,_ZN7libMesh10ParametersD2Ev
FN:138,_ZN7libMesh10Parameters14set_attributesERKNSt7__cxx1112basic_stringIcSt11char_traitsIcESaIcEEEb
FNDA:0,_ZN7libMesh10Parameters14set_attributesERKNSt7__cxx1112basic_stringIcSt11char_traitsIcESaIcEEEb
FN:295,_ZNK7libMesh10Parameters9ParameterIP13FEProblemBaseE4typeB5cxx11Ev
FNDA:0,_ZNK7libMesh10Parameters9ParameterIP13FEProblemBaseE4typeB5cxx11Ev
FN:295,_ZNK7libMesh10Parameters9ParameterIbE4typeB5cxx11Ev
FNDA:0,_ZNK7libMesh10Parameters9ParameterIbE4typeB5cxx11Ev
FN:303,_ZNK7libMesh10Parameters9ParameterIP13FEProblemBaseE5printERSo
FNDA:0,_ZNK7libMesh10Parameters9ParameterIP13FEProblemBaseE5printERSo
FN:303,_ZNK7libMesh10Parameters9ParameterIbE5printERSo
FNDA:0,_ZNK7libMesh10Parameters9ParameterIbE5printERSo
FN:311,_ZNK7libMesh10Parameters9ParameterIP13FEProblemBaseE5cloneEv
FNDA:0,_ZNK7libMesh10Parameters9ParameterIP13FEProblemBaseE5cloneEv
FN:311,_ZNK7libMesh10Parameters9ParameterIbE5cloneEv
FNDA:0,_ZNK7libMesh10Parameters9ParameterIbE5cloneEv
FN:324,_ZN7libMesh10Parameters5clearEv
FNDA:0,_ZN7libMesh10Parameters5clearEv
FN:332,_ZN7libMesh10ParametersaSERKS0_
FNDA:0,_ZN7libMesh10ParametersaSERKS0_
FN:341,_ZN7libMesh10ParameterspLERKS0_
FNDA:0,_ZN7libMesh10ParameterspLERKS0_
FN:395,_ZNK7libMesh10Parameters14have_parameterIbEEbSt17basic_string_viewIcSt11char_traitsIcEE
FNDA:0,_ZNK7libMesh10Parameters14have_parameterIbEEbSt17basic_string_viewIcSt11char_traitsIcEE
FN:469,_ZN7libMesh10Parameters3setIbEERT_RKNSt7__cxx1112basic_stringIcSt11char_traitsIcESaIcEEE
FNDA:0,_ZN7libMesh10Parameters3setIbEERT_RKNSt7__cxx1112basic_stringIcSt11char_traitsIcESaIcEEE
FNF:14
FNH:0
DA:85,0
DA:85,0
DA:85,0
DA:138,0
DA:206,0
DA:218,0
DA:295,0
DA:297,0
DA:295,0
DA:297,0
DA:303,0
DA:307,0
DA:303,0
DA:307,0
DA:311,0
DA:313,0
DA:315,0
DA:317,0
DA:318,0
DA:311,0
DA:313,0
DA:315,0
DA:317,0
DA:318,0
DA:324,0
DA:327,0
DA:332,0
DA:335,0
DA:337,0
DA:341,0
DA:344,0
DA:345,0
DA:347,0
DA:395,0
DA:399,0
DA:403,0
DA:404,0
DA:469,0
DA:471,0
DA:472,0
DA:474,0
DA:477,0
DA:480,0
DA:537,0
LF:44
LH:0
end_of_record
SF:/usr/share/miniconda3/envs/moose/x86_64-conda-linux-gnu/include/c++/12.3.0/bits/new_allocator.h
FN:112,_ZNSt15__new_allocatorIPNSt8__detail15_Hash_node_baseEE8allocateEmPKv
FNDA:0,_ZNSt15__new_allocatorIPNSt8__detail15_Hash_node_baseEE8allocateEmPKv
FN:112,_ZNSt15__new_allocatorIdE8allocateEmPKv
FNDA:0,_ZNSt15__new_allocatorIdE8allocateEmPKv
FN:112,_ZNSt15__new_allocatorINSt7__cxx1112basic_stringIcSt11char_traitsIcESaIcEEEE8allocateEmPKv
FNDA:0,_ZNSt15__new_allocatorINSt7__cxx1112basic_stringIcSt11char_traitsIcESaIcEEEE8allocateEmPKv
FN:112,_ZNSt15__new_allocatorISt10unique_ptrI13PropertyValueSt14default_deleteIS1_EEE8allocateEmPKv
FNDA:0,_ZNSt15__new_allocatorISt10unique_ptrI13PropertyValueSt14default_deleteIS1_EEE8allocateEmPKv
FN:112,_ZNSt15__new_allocatorISt13_Rb_tree_nodeISt4pairIKNSt7__cxx1112basic_stringIcSt11char_traitsIcESaIcEEESt10unique_ptrIN7libMesh10Parameters5ValueESt14default_deleteISC_EEEEE8allocateEmPKv
FNDA:0,_ZNSt15__new_allocatorISt13_Rb_tree_nodeISt4pairIKNSt7__cxx1112basic_stringIcSt11char_traitsIcESaIcEEESt10unique_ptrIN7libMesh10Parameters5ValueESt14default_deleteISC_EEEEE8allocateEmPKv
FN:112,_ZNSt15__new_allocatorISt13_Rb_tree_nodeISt4pairIKNSt7__cxx1112basic_stringIcSt11char_traitsIcESaIcEEEN15InputParameters8MetadataEEEE8allocateEmPKv
FNDA:0,_ZNSt15__new_allocatorISt13_Rb_tree_nodeISt4pairIKNSt7__cxx1112basic_stringIcSt11char_traitsIcESaIcEEEN15InputParameters8MetadataEEEE8allocateEmPKv
FN:112,_ZNSt15__new_allocatorISt10shared_ptrI17RegistryEntryBaseEE8allocateEmPKv
FNDA:0,_ZNSt15__new_allocatorISt10shared_ptrI17RegistryEntryBaseEE8allocateEmPKv
FN:112,_ZNSt15__new_allocatorISt23_Sp_counted_ptr_inplaceI13RegistryEntryI18BVSinglePhaseDarcyESaIvELN9__gnu_cxx12_Lock_policyE2EEE8allocateEmPKv
FNDA:26,_ZNSt15__new_allocatorISt23_Sp_counted_ptr_inplaceI13RegistryEntryI18BVSinglePhaseDarcyESaIvELN9__gnu_cxx12_Lock_policyE2EEE8allocateEmPKv
FN:112,_ZNSt15__new_allocatorISt13_Rb_tree_nodeISt4pairIKNSt7__cxx1112basic_stringIcSt11char_traitsIcESaIcEEESt6vectorISt10shared_ptrI17RegistryEntryBaseESaISC_EEEEE8allocateEmPKv
FNDA:0,_ZNSt15__new_allocatorISt13_Rb_tree_nodeISt4pairIKNSt7__cxx1112basic_stringIcSt11char_traitsIcESaIcEEESt6vectorISt10shared_ptrI17RegistryEntryBaseESaISC_EEEEE8allocateEmPKv
FN:112,_ZNSt15__new_allocatorISt13_Rb_tree_nodeISt4pairIKNSt7__cxx1112basic_stringIcSt11char_traitsIcESaIcEEES7_EEE8allocateEmPKv
FNDA:0,_ZNSt15__new_allocatorISt13_Rb_tree_nodeISt4pairIKNSt7__cxx1112basic_stringIcSt11char_traitsIcESaIcEEES7_EEE8allocateEmPKv
FN:112,_ZNSt15__new_allocatorISt23_Sp_counted_ptr_inplaceI13RegistryEntryI27BVSinglePhaseTimeDerivativeESaIvELN9__gnu_cxx12_Lock_policyE2EEE8allocateEmPKv
FNDA:26,_ZNSt15__new_allocatorISt23_Sp_counted_ptr_inplaceI13RegistryEntryI27BVSinglePhaseTimeDerivativeESaIvELN9__gnu_cxx12_Lock_policyE2EEE8allocateEmPKv
FN:112,_ZNSt15__new_allocatorISt23_Sp_counted_ptr_inplaceI13RegistryEntryI18BVStressDivergenceESaIvELN9__gnu_cxx12_Lock_policyE2EEE8allocateEmPKv
FNDA:26,_ZNSt15__new_allocatorISt23_Sp_counted_ptr_inplaceI13RegistryEntryI18BVStressDivergenceESaIvELN9__gnu_cxx12_Lock_policyE2EEE8allocateEmPKv
FN:112,_ZNSt15__new_allocatorINSt8__detail10_Hash_nodeIjLb0EEEE8allocateEmPKv
FNDA:0,_ZNSt15__new_allocatorINSt8__detail10_Hash_nodeIjLb0EEEE8allocateEmPKv
FN:112,_ZNSt15__new_allocatorISt13_Rb_tree_nodeISt4pairIKN5Moose7FaceArgEdEEE8allocateEmPKv
FNDA:0,_ZNSt15__new_allocatorISt13_Rb_tree_nodeISt4pairIKN5Moose7FaceArgEdEEE8allocateEmPKv
FN:112,_ZNSt15__new_allocatorISt6vectorISt4pairIbN11MetaPhysicL10DualNumberIdNS2_28SemiDynamicSparseNumberArrayIdmNS2_8NWrapperILm64EEEEELb1EEEESaIS9_EEE8allocateEmPKv
FNDA:0,_ZNSt15__new_allocatorISt6vectorISt4pairIbN11MetaPhysicL10DualNumberIdNS2_28SemiDynamicSparseNumberArrayIdmNS2_8NWrapperILm64EEEEELb1EEEESaIS9_EEE8allocateEmPKv
FN:112,_ZNSt15__new_allocatorISt6vectorISt4pairIbdESaIS2_EEE8allocateEmPKv
FNDA:0,_ZNSt15__new_allocatorISt6vectorISt4pairIbdESaIS2_EEE8allocateEmPKv
FN:112,_ZNSt15__new_allocatorINSt8__detail10_Hash_nodeISt4pairIKmSt6vectorIS2_IbN11MetaPhysicL10DualNumberIdNS5_28SemiDynamicSparseNumberArrayIdmNS5_8NWrapperILm64EEEEELb1EEEESaISC_EEELb0EEEE8allocateEmPKv
FNDA:0,_ZNSt15__new_allocatorINSt8__detail10_Hash_nodeISt4pairIKmSt6vectorIS2_IbN11MetaPhysicL10DualNumberIdNS5_28SemiDynamicSparseNumberArrayIdmNS5_8NWrapperILm64EEEEELb1EEEESaISC_EEELb0EEEE8allocateEmPKv
FN:112,_ZNSt15__new_allocatorISt4pairIbN11MetaPhysicL10DualNumberIdNS1_28SemiDynamicSparseNumberArrayIdmNS1_8NWrapperILm64EEEEELb1EEEEE8allocateEmPKv
FNDA:0,_ZNSt15__new_allocatorISt4pairIbN11MetaPhysicL10DualNumberIdNS1_28SemiDynamicSparseNumberArrayIdmNS1_8NWrapperILm64EEEEELb1EEEEE8allocateEmPKv
FN:112,_ZNSt15__new_allocatorINSt8__detail10_Hash_nodeISt4pairIKmSt6vectorIS4_IS2_IbN11MetaPhysicL10DualNumberIdNS5_28SemiDynamicSparseNumberArrayIdmNS5_8NWrapperILm64EEEEELb1EEEESaISC_EESaISE_EEELb0EEEE8allocateEmPKv
FNDA:0,_ZNSt15__new_allocatorINSt8__detail10_Hash_nodeISt4pairIKmSt6vectorIS4_IS2_IbN11MetaPhysicL10DualNumberIdNS5_28SemiDynamicSparseNumberArrayIdmNS5_8NWrapperILm64EEEEELb1EEEESaISC_EESaISE_EEELb0EEEE8allocateEmPKv
FN:112,_ZNSt15__new_allocatorINSt8__detail10_Hash_nodeISt4pairIKmSt6vectorIS2_IbdESaIS5_EEELb0EEEE8allocateEmPKv
FNDA:0,_ZNSt15__new_allocatorINSt8__detail10_Hash_nodeISt4pairIKmSt6vectorIS2_IbdESaIS5_EEELb0EEEE8allocateEmPKv
FN:112,_ZNSt15__new_allocatorISt4pairIbdEE8allocateEmPKv
FNDA:0,_ZNSt15__new_allocatorISt4pairIbdEE8allocateEmPKv
FN:112,_ZNSt15__new_allocatorINSt8__detail10_Hash_nodeISt4pairIKmSt6vectorIS4_IS2_IbdESaIS5_EESaIS7_EEELb0EEEE8allocateEmPKv
FNDA:0,_ZNSt15__new_allocatorINSt8__detail10_Hash_nodeISt4pairIKmSt6vectorIS4_IS2_IbdESaIS5_EESaIS7_EEELb0EEEE8allocateEmPKv
FN:112,_ZNSt15__new_allocatorISt13_Rb_tree_nodeISt4pairIKN5Moose7ElemArgEN11MetaPhysicL10DualNumberIdNS5_28SemiDynamicSparseNumberArrayIdmNS5_8NWrapperILm64EEEEELb1EEEEEE8allocateEmPKv
FNDA:0,_ZNSt15__new_allocatorISt13_Rb_tree_nodeISt4pairIKN5Moose7ElemArgEN11MetaPhysicL10DualNumberIdNS5_28SemiDynamicSparseNumberArrayIdmNS5_8NWrapperILm64EEEEELb1EEEEEE8allocateEmPKv
FN:112,_ZNSt15__new_allocatorISt13_Rb_tree_nodeISt4pairIKN5Moose7FaceArgEN11MetaPhysicL10DualNumberIdNS5_28SemiDynamicSparseNumberArrayIdmNS5_8NWrapperILm64EEEEELb1EEEEEE8allocateEmPKv
FNDA:0,_ZNSt15__new_allocatorISt13_Rb_tree_nodeISt4pairIKN5Moose7FaceArgEN11MetaPhysicL10DualNumberIdNS5_28SemiDynamicSparseNumberArrayIdmNS5_8NWrapperILm64EEEEELb1EEEEEE8allocateEmPKv
FN:112,_ZNSt15__new_allocatorISt13_Rb_tree_nodeISt4pairIKN5Moose7ElemArgEdEEE8allocateEmPKv
FNDA:0,_ZNSt15__new_allocatorISt13_Rb_tree_nodeISt4pairIKN5Moose7ElemArgEdEEE8allocateEmPKv
FNF:25
FNH:3
DA:112,0
DA:120,0
DA:124,0
DA:125,0
DA:126,0
DA:137,0
DA:112,0
DA:120,0
DA:124,0
DA:125,0
DA:126,0
DA:137,0
DA:112,0
DA:120,0
DA:124,0
DA:125,0
DA:126,0
DA:137,0
DA:112,0
DA:120,0
DA:124,0
DA:125,0
DA:126,0
DA:137,0
DA:112,0
DA:120,0
DA:124,0
DA:125,0
DA:126,0
DA:137,0
DA:112,0
DA:120,0
DA:124,0
DA:125,0
DA:126,0
DA:137,0
DA:112,0
DA:120,0
DA:124,0
DA:125,0
DA:126,0
DA:137,0
DA:112,26
DA:120,26
DA:124,0
DA:125,0
DA:126,0
DA:137,26
DA:112,0
DA:120,0
DA:124,0
DA:125,0
DA:126,0
DA:137,0
DA:112,0
DA:120,0
DA:124,0
DA:125,0
DA:126,0
DA:137,0
DA:112,26
DA:120,26
DA:124,0
DA:125,0
DA:126,0
DA:137,26
DA:112,26
DA:120,26
DA:124,0
DA:125,0
DA:126,0
DA:137,26
DA:112,0
DA:120,0
DA:124,0
DA:125,0
DA:126,0
DA:137,0
DA:112,0
DA:120,0
DA:124,0
DA:125,0
DA:126,0
DA:137,0
DA:112,0
DA:120,0
DA:124,0
DA:125,0
DA:126,0
DA:137,0
DA:112,0
DA:120,0
DA:124,0
DA:125,0
DA:126,0
DA:137,0
DA:112,0
DA:120,0
DA:124,0
DA:125,0
DA:126,0
DA:137,0
DA:112,0
DA:120,0
DA:124,0
DA:125,0
DA:126,0
DA:137,0
DA:112,0
DA:120,0
DA:124,0
DA:125,0
DA:126,0
DA:137,0
DA:112,0
DA:120,0
DA:124,0
DA:125,0
DA:126,0
DA:137,0
DA:112,0
DA:120,0
DA:124,0
DA:125,0
DA:126,0
DA:137,0
DA:112,0
DA:120,0
DA:124,0
DA:125,0
DA:126,0
DA:137,0
DA:112,0
DA:120,0
DA:124,0
DA:125,0
DA:126,0
DA:137,0
DA:112,0
DA:120,0
DA:124,0
DA:125,0
DA:126,0
DA:137,0
DA:112,0
DA:120,0
DA:124,0
DA:125,0
DA:126,0
DA:137,0
DA:158,754
DA:175,0
DA:181,0
LF:153
LH:10
end_of_record
SF:/home/runner/work/beaver/beaver/moose/framework/build/header_symlinks/Postprocessor.h
FN:63,_ZNK13Postprocessor9hasBlocksEt
FNDA:0,_ZNK13Postprocessor9hasBlocksEt
FNF:1
FNH:0
DA:63,0
LF:1
LH:0
end_of_record
SF:/usr/share/miniconda3/envs/moose/x86_64-conda-linux-gnu/include/c++/12.3.0/future
FN:342,_ZNSt13__future_base13_State_baseV2D0Ev
FNDA:0,_ZNSt13__future_base13_State_baseV2D0Ev
FN:342,_ZNSt13__future_base13_State_baseV2D2Ev
FNDA:0,_ZNSt13__future_base13_State_baseV2D2Ev
FN:596,_ZNSt13__future_base13_State_baseV217_M_complete_asyncEv
FNDA:0,_ZNSt13__future_base13_State_baseV217_M_complete_asyncEv
FN:599,_ZNKSt13__future_base13_State_baseV221_M_is_deferred_futureEv
FNDA:0,_ZNKSt13__future_base13_State_baseV221_M_is_deferred_futureEv
FN:670,_ZNSt13__future_base7_ResultIvE10_M_destroyEv
FNDA:0,_ZNSt13__future_base7_ResultIvE10_M_destroyEv
FNF:5
FNH:0
DA:227,0
DA:342,0
DA:342,0
DA:596,0
DA:599,0
DA:670,0
LF:6
LH:0
end_of_record
SF:/usr/share/miniconda3/envs/moose/x86_64-conda-linux-gnu/include/c++/12.3.0/bits/stl_uninitialized.h
FN:113,_ZSt16__do_uninit_copyIPKSt4pairIbN11MetaPhysicL10DualNumberIdNS1_28SemiDynamicSparseNumberArrayIdmNS1_8NWrapperILm64EEEEELb1EEEEPS8_ET0_T_SD_SC_
FNDA:0,_ZSt16__do_uninit_copyIPKSt4pairIbN11MetaPhysicL10DualNumberIdNS1_28SemiDynamicSparseNumberArrayIdmNS1_8NWrapperILm64EEEEELb1EEEEPS8_ET0_T_SD_SC_
FN:113,_ZSt16__do_uninit_copyISt13move_iteratorIPSt4pairIbN11MetaPhysicL10DualNumberIdNS2_28SemiDynamicSparseNumberArrayIdmNS2_8NWrapperILm64EEEEELb1EEEEESA_ET0_T_SD_SC_
FNDA:0,_ZSt16__do_uninit_copyISt13move_iteratorIPSt4pairIbN11MetaPhysicL10DualNumberIdNS2_28SemiDynamicSparseNumberArrayIdmNS2_8NWrapperILm64EEEEELb1EEEEESA_ET0_T_SD_SC_
FN:113,_ZSt16__do_uninit_copyIPKNSt7__cxx1112basic_stringIcSt11char_traitsIcESaIcEEEPS5_ET0_T_SA_S9_
FNDA:0,_ZSt16__do_uninit_copyIPKNSt7__cxx1112basic_stringIcSt11char_traitsIcESaIcEEEPS5_ET0_T_SA_S9_
FN:163,_ZSt18uninitialized_copyISt13move_iteratorIPSt4pairIbN11MetaPhysicL10DualNumberIdNS2_28SemiDynamicSparseNumberArrayIdmNS2_8NWrapperILm64EEEEELb1EEEEESA_ET0_T_SD_SC_
FNDA:0,_ZSt18uninitialized_copyISt13move_iteratorIPSt4pairIbN11MetaPhysicL10DualNumberIdNS2_28SemiDynamicSparseNumberArrayIdmNS2_8NWrapperILm64EEEEELb1EEEEESA_ET0_T_SD_SC_
FN:261,_ZSt18__do_uninit_fill_nIPSt4pairIbN11MetaPhysicL10DualNumberIdNS1_28SemiDynamicSparseNumberArrayIdmNS1_8NWrapperILm64EEEEELb1EEEEmS8_ET_SA_T0_RKT1_
FNDA:0,_ZSt18__do_uninit_fill_nIPSt4pairIbN11MetaPhysicL10DualNumberIdNS1_28SemiDynamicSparseNumberArrayIdmNS1_8NWrapperILm64EEEEELb1EEEEmS8_ET_SA_T0_RKT1_
FN:1078,_ZSt14__relocate_a_1IPSt6vectorISt4pairIbdESaIS2_EES5_SaIS4_EET0_T_S8_S7_RT1_
FNDA:0,_ZSt14__relocate_a_1IPSt6vectorISt4pairIbdESaIS2_EES5_SaIS4_EET0_T_S8_S7_RT1_
FN:1078,_ZSt14__relocate_a_1IPSt6vectorISt4pairIbN11MetaPhysicL10DualNumberIdNS2_28SemiDynamicSparseNumberArrayIdmNS2_8NWrapperILm64EEEEELb1EEEESaIS9_EESC_SaISB_EET0_T_SF_SE_RT1_
FNDA:0,_ZSt14__relocate_a_1IPSt6vectorISt4pairIbN11MetaPhysicL10DualNumberIdNS2_28SemiDynamicSparseNumberArrayIdmNS2_8NWrapperILm64EEEEELb1EEEESaIS9_EESC_SaISB_EET0_T_SF_SE_RT1_
FNF:7
FNH:0
DA:113,0
DA:119,0
DA:121,0
DA:113,0
DA:119,0
DA:121,0
DA:113,0
DA:119,0
DA:121,0
DA:123,0
DA:126,0
DA:119,0
DA:137,0
DA:163,0
DA:185,0
DA:261,0
DA:266,0
DA:268,0
DA:284,0
DA:372,0
DA:382,0
DA:637,0
DA:1078,0
DA:1091,0
DA:1094,0
DA:1078,0
DA:1091,0
DA:1094,0
DA:1091,0
DA:1133,0
LF:30
LH:0
end_of_record
SF:/usr/share/miniconda3/envs/moose/x86_64-conda-linux-gnu/include/c++/12.3.0/initializer_list
DA:71,0
DA:79,0
LF:2
LH:0
end_of_record
SF:/usr/share/miniconda3/envs/moose/x86_64-conda-linux-gnu/include/c++/12.3.0/bits/vector.tcc
FN:111,_ZNSt6vectorISt10unique_ptrI13PropertyValueSt14default_deleteIS1_EESaIS4_EE12emplace_backIJS0_I16MaterialPropertyIdES2_IS9_EEEEERS4_DpOT_
FNDA:0,_ZNSt6vectorISt10unique_ptrI13PropertyValueSt14default_deleteIS1_EESaIS4_EE12emplace_backIJS0_I16MaterialPropertyIdES2_IS9_EEEEERS4_DpOT_
FN:111,_ZNSt6vectorISt10unique_ptrI13PropertyValueSt14default_deleteIS1_EESaIS4_EE12emplace_backIJS0_I18ADMaterialPropertyIdES2_IS9_EEEEERS4_DpOT_
FNDA:0,_ZNSt6vectorISt10unique_ptrI13PropertyValueSt14default_deleteIS1_EESaIS4_EE12emplace_backIJS0_I18ADMaterialPropertyIdES2_IS9_EEEEERS4_DpOT_
FN:111,_ZNSt6vectorISt10shared_ptrI17RegistryEntryBaseESaIS2_EE12emplace_backIJS2_EEERS2_DpOT_
FNDA:78,_ZNSt6vectorISt10shared_ptrI17RegistryEntryBaseESaIS2_EE12emplace_backIJS2_EEERS2_DpOT_
FN:439,_ZNSt6vectorISt10unique_ptrI13PropertyValueSt14default_deleteIS1_EESaIS4_EE17_M_realloc_insertIJS0_I16MaterialPropertyIdES2_IS9_EEEEEvN9__gnu_cxx17__normal_iteratorIPS4_S6_EEDpOT_
FNDA:0,_ZNSt6vectorISt10unique_ptrI13PropertyValueSt14default_deleteIS1_EESaIS4_EE17_M_realloc_insertIJS0_I16MaterialPropertyIdES2_IS9_EEEEEvN9__gnu_cxx17__normal_iteratorIPS4_S6_EEDpOT_
FN:439,_ZNSt6vectorISt10unique_ptrI13PropertyValueSt14default_deleteIS1_EESaIS4_EE17_M_realloc_insertIJS0_I18ADMaterialPropertyIdES2_IS9_EEEEEvN9__gnu_cxx17__normal_iteratorIPS4_S6_EEDpOT_
FNDA:0,_ZNSt6vectorISt10unique_ptrI13PropertyValueSt14default_deleteIS1_EESaIS4_EE17_M_realloc_insertIJS0_I18ADMaterialPropertyIdES2_IS9_EEEEEvN9__gnu_cxx17__normal_iteratorIPS4_S6_EEDpOT_
FN:439,_ZNSt6vectorISt10shared_ptrI17RegistryEntryBaseESaIS2_EE17_M_realloc_insertIJS2_EEEvN9__gnu_cxx17__normal_iteratorIPS2_S4_EEDpOT_
FNDA:0,_ZNSt6vectorISt10shared_ptrI17RegistryEntryBaseESaIS2_EE17_M_realloc_insertIJS2_EEEvN9__gnu_cxx17__normal_iteratorIPS2_S4_EEDpOT_
FN:523,_ZNSt6vectorISt4pairIbdESaIS1_EE14_M_fill_insertEN9__gnu_cxx17__normal_iteratorIPS1_S3_EEmRKS1_
FNDA:0,_ZNSt6vectorISt4pairIbdESaIS1_EE14_M_fill_insertEN9__gnu_cxx17__normal_iteratorIPS1_S3_EEmRKS1_
FN:523,_ZNSt6vectorISt4pairIbN11MetaPhysicL10DualNumberIdNS1_28SemiDynamicSparseNumberArrayIdmNS1_8NWrapperILm64EEEEELb1EEEESaIS8_EE14_M_fill_insertEN9__gnu_cxx17__normal_iteratorIPS8_SA_EEmRKS8_
FNDA:0,_ZNSt6vectorISt4pairIbN11MetaPhysicL10DualNumberIdNS1_28SemiDynamicSparseNumberArrayIdmNS1_8NWrapperILm64EEEEELb1EEEESaIS8_EE14_M_fill_insertEN9__gnu_cxx17__normal_iteratorIPS8_SA_EEmRKS8_
FN:628,_ZNSt6vectorIS_ISt4pairIbdESaIS1_EESaIS3_EE17_M_default_appendEm
FNDA:0,_ZNSt6vectorIS_ISt4pairIbdESaIS1_EESaIS3_EE17_M_default_appendEm
FN:628,_ZNSt6vectorIS_ISt4pairIbN11MetaPhysicL10DualNumberIdNS1_28SemiDynamicSparseNumberArrayIdmNS1_8NWrapperILm64EEEEELb1EEEESaIS8_EESaISA_EE17_M_default_appendEm
FNDA:0,_ZNSt6vectorIS_ISt4pairIbN11MetaPhysicL10DualNumberIdNS1_28SemiDynamicSparseNumberArrayIdmNS1_8NWrapperILm64EEEEELb1EEEESaIS8_EESaISA_EE17_M_default_appendEm
FN:628,_ZNSt6vectorISt10unique_ptrI13PropertyValueSt14default_deleteIS1_EESaIS4_EE17_M_default_appendEm
FNDA:0,_ZNSt6vectorISt10unique_ptrI13PropertyValueSt14default_deleteIS1_EESaIS4_EE17_M_default_appendEm
FNF:11
FNH:1
DA:111,0
DA:114,0
DA:119,0
DA:123,0
DA:125,0
DA:111,0
DA:114,0
DA:119,0
DA:123,0
DA:125,0
DA:111,78
DA:114,78
DA:119,78
DA:123,0
DA:125,78
DA:439,0
DA:449,0
DA:450,0
DA:451,0
DA:462,0
DA:463,0
DA:477,0
DA:514,0
DA:515,0
DA:516,0
DA:517,0
DA:518,0
DA:439,0
DA:449,0
DA:450,0
DA:451,0
DA:462,0
DA:463,0
DA:477,0
DA:514,0
DA:515,0
DA:516,0
DA:517,0
DA:518,0
DA:439,0
DA:449,0
DA:450,0
DA:451,0
DA:462,0
DA:463,0
DA:477,0
DA:514,0
DA:515,0
DA:516,0
DA:517,0
DA:518,0
DA:523,0
DA:526,0
DA:528,0
DA:529,0
DA:537,0
DA:539,0
DA:542,0
DA:546,0
DA:548,0
DA:550,0
DA:557,0
DA:565,0
DA:574,0
DA:579,0
DA:580,0
DA:586,0
DA:595,0
DA:616,0
DA:617,0
DA:618,0
DA:619,0
DA:622,0
DA:523,0
DA:526,0
DA:528,0
DA:529,0
DA:537,0
DA:539,0
DA:542,0
DA:546,0
DA:550,0
DA:556,0
DA:557,0
DA:565,0
DA:574,0
DA:579,0
DA:580,0
DA:586,0
DA:595,0
DA:616,0
DA:617,0
DA:618,0
DA:619,0
DA:622,0
DA:628,0
DA:631,0
DA:634,0
DA:635,0
DA:637,0
DA:638,0
DA:640,0
DA:643,0
DA:656,0
DA:662,0
DA:698,0
DA:699,0
DA:700,0
DA:701,0
DA:704,0
DA:628,0
DA:631,0
DA:634,0
DA:635,0
DA:637,0
DA:638,0
DA:640,0
DA:643,0
DA:656,0
DA:662,0
DA:698,0
DA:699,0
DA:700,0
DA:701,0
DA:704,0
DA:628,0
DA:631,0
DA:634,0
DA:635,0
DA:637,0
DA:638,0
DA:640,0
DA:643,0
DA:656,0
DA:662,0
DA:670,0
DA:698,0
DA:699,0
DA:700,0
DA:701,0
DA:704,0
LF:141
LH:4
end_of_record
SF:/usr/share/miniconda3/envs/moose/x86_64-conda-linux-gnu/include/c++/12.3.0/bits/basic_string.h
FN:642,_ZNSt7__cxx1112basic_stringIcSt11char_traitsIcESaIcEEC2IS3_EEPKcRKS3_
FNDA:2897,_ZNSt7__cxx1112basic_stringIcSt11char_traitsIcESaIcEEC2IS3_EEPKcRKS3_
FN:1689,_ZNSt7__cxx1112basic_stringIcSt11char_traitsIcESaIcEE6assignIPcvEERS4_T_S8_
FNDA:0,_ZNSt7__cxx1112basic_stringIcSt11char_traitsIcESaIcEE6assignIPcvEERS4_T_S8_
FN:3440,_ZStplIcSt11char_traitsIcESaIcEENSt7__cxx1112basic_stringIT_T0_T1_EERKS8_SA_
FNDA:0,_ZStplIcSt11char_traitsIcESaIcEENSt7__cxx1112basic_stringIT_T0_T1_EERKS8_SA_
FNF:3
FNH:1
DA:199,2897
DA:200,2897
DA:203,0
DA:204,0
DA:224,1416
DA:229,2897
DA:234,0
DA:241,0
DA:261,1416
DA:268,2897
DA:479,0
DA:485,2897
DA:523,0
DA:642,2897
DA:646,2897
DA:647,0
DA:649,2897
DA:650,2897
DA:651,2897
DA:803,2563
DA:813,0
DA:974,0
DA:1072,0
DA:1396,0
DA:1579,0
DA:1689,0
DA:1690,0
DA:3440,0
DA:3443,0
DA:3445,0
DA:3563,0
DA:3702,0
DA:3896,0
LF:33
LH:13
end_of_record
SF:/home/runner/work/beaver/beaver/moose/framework/build/header_symlinks/MooseArray.h
FN:213,_ZN10MooseArrayI18RankTwoTensorTemplIN11MetaPhysicL10DualNumberIdNS1_28SemiDynamicSparseNumberArrayIdmNS1_8NWrapperILm64EEEEELb1EEEEE6resizeILb1EEEvj
FNDA:0,_ZN10MooseArrayI18RankTwoTensorTemplIN11MetaPhysicL10DualNumberIdNS1_28SemiDynamicSparseNumberArrayIdmNS1_8NWrapperILm64EEEEELb1EEEEE6resizeILb1EEEvj
FN:213,_ZN10MooseArrayI18RankTwoTensorTemplIdEE6resizeILb1EEEvj
FNDA:0,_ZN10MooseArrayI18RankTwoTensorTemplIdEE6resizeILb1EEEvj
FN:213,_ZN10MooseArrayIdE6resizeILb1EEEvj
FNDA:0,_ZN10MooseArrayIdE6resizeILb1EEEvj
FN:213,_ZN10MooseArrayIN11MetaPhysicL10DualNumberIdNS0_28SemiDynamicSparseNumberArrayIdmNS0_8NWrapperILm64EEEEELb1EEEE6resizeILb1EEEvj
FNDA:0,_ZN10MooseArrayIN11MetaPhysicL10DualNumberIdNS0_28SemiDynamicSparseNumberArrayIdmNS0_8NWrapperILm64EEEEELb1EEEE6resizeILb1EEEvj
FNF:4
FNH:0
DA:25,0
DA:55,0
DA:213,0
DA:215,0
DA:218,0
DA:223,0
DA:224,0
DA:227,0
DA:228,0
DA:213,0
DA:215,0
DA:218,0
DA:223,0
DA:224,0
DA:227,0
DA:228,0
DA:213,0
DA:215,0
DA:218,0
DA:223,0
DA:224,0
DA:227,0
DA:228,0
DA:213,0
DA:215,0
DA:218,0
DA:223,0
DA:224,0
DA:227,0
DA:228,0
DA:258,0
DA:268,0
DA:278,24438832
LF:33
LH:1
end_of_record
SF:/usr/share/miniconda3/envs/moose/libmesh/include/libmesh/type_tensor.h
FN:628,_ZN7libMesh10TypeTensorIN11MetaPhysicL10DualNumberIdNS1_28SemiDynamicSparseNumberArrayIdmNS1_8NWrapperILm64EEEEELb1EEEEC2IdEERKNS0_IT_EE
FNDA:0,_ZN7libMesh10TypeTensorIN11MetaPhysicL10DualNumberIdNS1_28SemiDynamicSparseNumberArrayIdmNS1_8NWrapperILm64EEEEELb1EEEEC2IdEERKNS0_IT_EE
FN:765,_ZNK7libMesh10TypeTensorIN11MetaPhysicL10DualNumberIdNS1_28SemiDynamicSparseNumberArrayIdmNS1_8NWrapperILm64EEEEELb1EEEE3rowEj
FNDA:10675464,_ZNK7libMesh10TypeTensorIN11MetaPhysicL10DualNumberIdNS1_28SemiDynamicSparseNumberArrayIdmNS1_8NWrapperILm64EEEEELb1EEEE3rowEj
FNF:2
FNH:1
DA:628,0
DA:631,0
DA:632,0
DA:633,0
DA:718,0
DA:765,10675464
DA:767,10675464
DA:769,42701856
DA:770,32026392
DA:772,10675464
LF:10
LH:5
end_of_record
SF:/home/runner/work/beaver/beaver/moose/framework/build/header_symlinks/MooseEnumItem.h
FN:72,_ZNK13MooseEnumItemltERKS_
FNDA:0,_ZNK13MooseEnumItemltERKS_
FNF:1
FNH:0
DA:24,872
DA:72,0
DA:74,0
LF:3
LH:1
end_of_record
SF:/home/runner/work/beaver/beaver/moose/framework/build/header_symlinks/Registry.h
FN:123,_ZNK17RegistryEntryBase4nameB5cxx11Ev
FNDA:0,_ZNK17RegistryEntryBase4nameB5cxx11Ev
FN:164,_ZN8Registry3addI18BVStressDivergenceEEcRK17RegistryEntryData
FNDA:26,_ZN8Registry3addI18BVStressDivergenceEEcRK17RegistryEntryData
FN:164,_ZN8Registry3addI27BVSinglePhaseTimeDerivativeEEcRK17RegistryEntryData
FNDA:26,_ZN8Registry3addI27BVSinglePhaseTimeDerivativeEEcRK17RegistryEntryData
FN:164,_ZN8Registry3addI18BVSinglePhaseDarcyEEcRK17RegistryEntryData
FNDA:26,_ZN8Registry3addI18BVSinglePhaseDarcyEEcRK17RegistryEntryData
FN:272,_ZN13RegistryEntryI18BVSinglePhaseDarcyE5buildERK15InputParameters
FNDA:5,_ZN13RegistryEntryI18BVSinglePhaseDarcyE5buildERK15InputParameters
FN:272,_ZN13RegistryEntryI27BVSinglePhaseTimeDerivativeE5buildERK15InputParameters
FNDA:3,_ZN13RegistryEntryI27BVSinglePhaseTimeDerivativeE5buildERK15InputParameters
FN:272,_ZN13RegistryEntryI18BVStressDivergenceE5buildERK15InputParameters
FNDA:43,_ZN13RegistryEntryI18BVStressDivergenceE5buildERK15InputParameters
FN:281,_ZN13RegistryEntryI18BVSinglePhaseDarcyE11buildActionERK15InputParameters
FNDA:0,_ZN13RegistryEntryI18BVSinglePhaseDarcyE11buildActionERK15InputParameters
FN:281,_ZN13RegistryEntryI27BVSinglePhaseTimeDerivativeE11buildActionERK15InputParameters
FNDA:0,_ZN13RegistryEntryI27BVSinglePhaseTimeDerivativeE11buildActionERK15InputParameters
FN:281,_ZN13RegistryEntryI18BVStressDivergenceE11buildActionERK15InputParameters
FNDA:0,_ZN13RegistryEntryI18BVStressDivergenceE11buildActionERK15InputParameters
FN:291,_ZN13RegistryEntryI18BVSinglePhaseDarcyE15buildParametersEv
FNDA:142,_ZN13RegistryEntryI18BVSinglePhaseDarcyE15buildParametersEv
FN:291,_ZN13RegistryEntryI27BVSinglePhaseTimeDerivativeE15buildParametersEv
FNDA:138,_ZN13RegistryEntryI27BVSinglePhaseTimeDerivativeE15buildParametersEv
FN:291,_ZN13RegistryEntryI18BVStressDivergenceE15buildParametersEv
FNDA:218,_ZN13RegistryEntryI18BVStressDivergenceE15buildParametersEv
FNF:13
FNH:9
DA:116,78
DA:123,0
DA:125,0
DA:126,0
DA:127,0
DA:128,0
DA:129,0
DA:130,0
DA:137,78
DA:164,26
DA:167,26
DA:168,52
DA:169,26
DA:164,26
DA:167,26
DA:168,52
DA:169,26
DA:164,26
DA:167,26
DA:168,52
DA:169,26
DA:272,5
DA:275,5
DA:272,3
DA:275,3
DA:272,43
DA:275,43
DA:281,0
DA:284,0
DA:281,0
DA:284,0
DA:281,0
DA:284,0
DA:291,142
DA:293,142
DA:294,142
DA:291,138
DA:293,138
DA:294,138
DA:291,218
DA:293,218
DA:294,218
LF:42
LH:29
end_of_record
SF:/usr/share/miniconda3/envs/moose/libmesh/include/libmesh/libmesh_exceptions.h
FN:51,_ZN7libMesh14NotImplementedC2ENSt7__cxx1112basic_stringIcSt11char_traitsIcESaIcEEE
FNDA:0,_ZN7libMesh14NotImplementedC2ENSt7__cxx1112basic_stringIcSt11char_traitsIcESaIcEEE
FNF:1
FNH:0
DA:39,0
DA:51,0
LF:2
LH:0
end_of_record
SF:/usr/share/miniconda3/envs/moose/x86_64-conda-linux-gnu/include/c++/12.3.0/bits/alloc_traits.h
DA:464,78
DA:496,48
LF:2
LH:2
end_of_record
SF:/home/runner/work/beaver/beaver/moose/framework/build/header_symlinks/CoupleableMooseVariableDependencyIntermediateInterface.h
LF:0
LH:0
end_of_record
TN:
SF:/usr/share/miniconda3/envs/moose/x86_64-conda-linux-gnu/include/c++/12.3.0/initializer_list
DA:71,0
DA:79,0
LF:2
LH:0
end_of_record
SF:/usr/share/miniconda3/envs/moose/x86_64-conda-linux-gnu/include/c++/12.3.0/bits/vector.tcc
FN:111,_ZNSt6vectorISt10unique_ptrI13PropertyValueSt14default_deleteIS1_EESaIS4_EE12emplace_backIJS0_I16MaterialPropertyIdES2_IS9_EEEEERS4_DpOT_
FNDA:0,_ZNSt6vectorISt10unique_ptrI13PropertyValueSt14default_deleteIS1_EESaIS4_EE12emplace_backIJS0_I16MaterialPropertyIdES2_IS9_EEEEERS4_DpOT_
FN:111,_ZNSt6vectorISt10unique_ptrI13PropertyValueSt14default_deleteIS1_EESaIS4_EE12emplace_backIJS0_I18ADMaterialPropertyIdES2_IS9_EEEEERS4_DpOT_
FNDA:0,_ZNSt6vectorISt10unique_ptrI13PropertyValueSt14default_deleteIS1_EESaIS4_EE12emplace_backIJS0_I18ADMaterialPropertyIdES2_IS9_EEEEERS4_DpOT_
FN:111,_ZNSt6vectorISt10shared_ptrI17RegistryEntryBaseESaIS2_EE12emplace_backIJS2_EEERS2_DpOT_
FNDA:208,_ZNSt6vectorISt10shared_ptrI17RegistryEntryBaseESaIS2_EE12emplace_backIJS2_EEERS2_DpOT_
FN:439,_ZNSt6vectorISt10unique_ptrI13PropertyValueSt14default_deleteIS1_EESaIS4_EE17_M_realloc_insertIJS0_I16MaterialPropertyIdES2_IS9_EEEEEvN9__gnu_cxx17__normal_iteratorIPS4_S6_EEDpOT_
FNDA:0,_ZNSt6vectorISt10unique_ptrI13PropertyValueSt14default_deleteIS1_EESaIS4_EE17_M_realloc_insertIJS0_I16MaterialPropertyIdES2_IS9_EEEEEvN9__gnu_cxx17__normal_iteratorIPS4_S6_EEDpOT_
FN:439,_ZNSt6vectorISt10unique_ptrI13PropertyValueSt14default_deleteIS1_EESaIS4_EE17_M_realloc_insertIJS0_I18ADMaterialPropertyIdES2_IS9_EEEEEvN9__gnu_cxx17__normal_iteratorIPS4_S6_EEDpOT_
FNDA:0,_ZNSt6vectorISt10unique_ptrI13PropertyValueSt14default_deleteIS1_EESaIS4_EE17_M_realloc_insertIJS0_I18ADMaterialPropertyIdES2_IS9_EEEEEvN9__gnu_cxx17__normal_iteratorIPS4_S6_EEDpOT_
FN:439,_ZNSt6vectorISt10shared_ptrI17RegistryEntryBaseESaIS2_EE17_M_realloc_insertIJS2_EEEvN9__gnu_cxx17__normal_iteratorIPS2_S4_EEDpOT_
FNDA:0,_ZNSt6vectorISt10shared_ptrI17RegistryEntryBaseESaIS2_EE17_M_realloc_insertIJS2_EEEvN9__gnu_cxx17__normal_iteratorIPS2_S4_EEDpOT_
FN:523,_ZNSt6vectorISt4pairIbdESaIS1_EE14_M_fill_insertEN9__gnu_cxx17__normal_iteratorIPS1_S3_EEmRKS1_
FNDA:0,_ZNSt6vectorISt4pairIbdESaIS1_EE14_M_fill_insertEN9__gnu_cxx17__normal_iteratorIPS1_S3_EEmRKS1_
FN:523,_ZNSt6vectorISt4pairIbN11MetaPhysicL10DualNumberIdNS1_28SemiDynamicSparseNumberArrayIdmNS1_8NWrapperILm64EEEEELb1EEEESaIS8_EE14_M_fill_insertEN9__gnu_cxx17__normal_iteratorIPS8_SA_EEmRKS8_
FNDA:0,_ZNSt6vectorISt4pairIbN11MetaPhysicL10DualNumberIdNS1_28SemiDynamicSparseNumberArrayIdmNS1_8NWrapperILm64EEEEELb1EEEESaIS8_EE14_M_fill_insertEN9__gnu_cxx17__normal_iteratorIPS8_SA_EEmRKS8_
FN:628,_ZNSt6vectorIS_ISt4pairIbdESaIS1_EESaIS3_EE17_M_default_appendEm
FNDA:0,_ZNSt6vectorIS_ISt4pairIbdESaIS1_EESaIS3_EE17_M_default_appendEm
FN:628,_ZNSt6vectorIS_ISt4pairIbN11MetaPhysicL10DualNumberIdNS1_28SemiDynamicSparseNumberArrayIdmNS1_8NWrapperILm64EEEEELb1EEEESaIS8_EESaISA_EE17_M_default_appendEm
FNDA:0,_ZNSt6vectorIS_ISt4pairIbN11MetaPhysicL10DualNumberIdNS1_28SemiDynamicSparseNumberArrayIdmNS1_8NWrapperILm64EEEEELb1EEEESaIS8_EESaISA_EE17_M_default_appendEm
FN:628,_ZNSt6vectorISt10unique_ptrI13PropertyValueSt14default_deleteIS1_EESaIS4_EE17_M_default_appendEm
FNDA:0,_ZNSt6vectorISt10unique_ptrI13PropertyValueSt14default_deleteIS1_EESaIS4_EE17_M_default_appendEm
FNF:11
FNH:1
DA:111,0
DA:114,0
DA:119,0
DA:123,0
DA:125,0
DA:111,0
DA:114,0
DA:119,0
DA:123,0
DA:125,0
DA:111,208
DA:114,208
DA:119,182
DA:123,26
DA:125,208
DA:439,0
DA:449,0
DA:450,0
DA:451,0
DA:462,0
DA:463,0
DA:477,0
DA:514,0
DA:515,0
DA:516,0
DA:517,0
DA:518,0
DA:439,0
DA:449,0
DA:450,0
DA:451,0
DA:462,0
DA:463,0
DA:477,0
DA:514,0
DA:515,0
DA:516,0
DA:517,0
DA:518,0
DA:439,0
DA:449,0
DA:450,0
DA:451,0
DA:462,0
DA:463,0
DA:477,0
DA:514,0
DA:515,0
DA:516,0
DA:517,0
DA:518,0
DA:523,0
DA:526,0
DA:528,0
DA:529,0
DA:537,0
DA:539,0
DA:542,0
DA:546,0
DA:548,0
DA:550,0
DA:557,0
DA:565,0
DA:574,0
DA:579,0
DA:580,0
DA:586,0
DA:595,0
DA:616,0
DA:617,0
DA:618,0
DA:619,0
DA:622,0
DA:523,0
DA:526,0
DA:528,0
DA:529,0
DA:537,0
DA:539,0
DA:542,0
DA:546,0
DA:550,0
DA:556,0
DA:557,0
DA:565,0
DA:574,0
DA:579,0
DA:580,0
DA:586,0
DA:595,0
DA:616,0
DA:617,0
DA:618,0
DA:619,0
DA:622,0
DA:628,0
DA:631,0
DA:634,0
DA:635,0
DA:637,0
DA:638,0
DA:640,0
DA:643,0
DA:656,0
DA:662,0
DA:698,0
DA:699,0
DA:700,0
DA:701,0
DA:704,0
DA:628,0
DA:631,0
DA:634,0
DA:635,0
DA:637,0
DA:638,0
DA:640,0
DA:643,0
DA:656,0
DA:662,0
DA:698,0
DA:699,0
DA:700,0
DA:701,0
DA:704,0
DA:628,0
DA:631,0
DA:634,0
DA:635,0
DA:637,0
DA:638,0
DA:640,0
DA:643,0
DA:656,0
DA:662,0
DA:670,0
DA:698,0
DA:699,0
DA:700,0
DA:701,0
DA:704,0
LF:141
LH:5
end_of_record
SF:/home/runner/work/beaver/beaver/build/header_symlinks/BVFVSinglePhaseTimeDerivative.h
LF:0
LH:0
end_of_record
SF:/home/runner/work/beaver/beaver/src/fvkernels/BVFVSinglePhaseTimeDerivative.C
FN:19,_ZN29BVFVSinglePhaseTimeDerivative11validParamsEv
FNDA:134,_ZN29BVFVSinglePhaseTimeDerivative11validParamsEv
FN:26,_ZN29BVFVSinglePhaseTimeDerivativeC2ERK15InputParameters
FNDA:1,_ZN29BVFVSinglePhaseTimeDerivativeC2ERK15InputParameters
FN:38,_ZN29BVFVSinglePhaseTimeDerivative17computeQpResidualEv
FNDA:1550,_ZN29BVFVSinglePhaseTimeDerivative17computeQpResidualEv
FNF:3
FNH:3
DA:19,134
DA:21,134
DA:22,134
DA:23,134
DA:24,0
DA:26,1
DA:28,1
DA:29,2
DA:30,2
DA:31,1
DA:32,1
DA:33,2
DA:35,1
DA:38,1550
DA:41,1550
DA:44,1550
DA:45,0
DA:47,1550
LF:18
LH:16
end_of_record
SF:/usr/share/miniconda3/envs/moose/x86_64-conda-linux-gnu/include/c++/12.3.0/future
FN:342,_ZNSt13__future_base13_State_baseV2D0Ev
FNDA:0,_ZNSt13__future_base13_State_baseV2D0Ev
FN:342,_ZNSt13__future_base13_State_baseV2D2Ev
FNDA:0,_ZNSt13__future_base13_State_baseV2D2Ev
FN:596,_ZNSt13__future_base13_State_baseV217_M_complete_asyncEv
FNDA:0,_ZNSt13__future_base13_State_baseV217_M_complete_asyncEv
FN:599,_ZNKSt13__future_base13_State_baseV221_M_is_deferred_futureEv
FNDA:0,_ZNKSt13__future_base13_State_baseV221_M_is_deferred_futureEv
FN:670,_ZNSt13__future_base7_ResultIvE10_M_destroyEv
FNDA:0,_ZNSt13__future_base7_ResultIvE10_M_destroyEv
FNF:5
FNH:0
DA:227,0
DA:342,0
DA:342,0
DA:596,0
DA:599,0
DA:670,0
LF:6
LH:0
end_of_record
SF:/home/runner/work/beaver/beaver/moose/framework/build/header_symlinks/Postprocessor.h
FN:63,_ZNK13Postprocessor9hasBlocksEt
FNDA:0,_ZNK13Postprocessor9hasBlocksEt
FNF:1
FNH:0
DA:63,0
LF:1
LH:0
end_of_record
SF:/usr/share/miniconda3/envs/moose/x86_64-conda-linux-gnu/include/c++/12.3.0/bits/stl_uninitialized.h
FN:113,_ZSt16__do_uninit_copyIPKSt4pairIbN11MetaPhysicL10DualNumberIdNS1_28SemiDynamicSparseNumberArrayIdmNS1_8NWrapperILm64EEEEELb1EEEEPS8_ET0_T_SD_SC_
FNDA:0,_ZSt16__do_uninit_copyIPKSt4pairIbN11MetaPhysicL10DualNumberIdNS1_28SemiDynamicSparseNumberArrayIdmNS1_8NWrapperILm64EEEEELb1EEEEPS8_ET0_T_SD_SC_
FN:113,_ZSt16__do_uninit_copyISt13move_iteratorIPSt4pairIbN11MetaPhysicL10DualNumberIdNS2_28SemiDynamicSparseNumberArrayIdmNS2_8NWrapperILm64EEEEELb1EEEEESA_ET0_T_SD_SC_
FNDA:0,_ZSt16__do_uninit_copyISt13move_iteratorIPSt4pairIbN11MetaPhysicL10DualNumberIdNS2_28SemiDynamicSparseNumberArrayIdmNS2_8NWrapperILm64EEEEELb1EEEEESA_ET0_T_SD_SC_
FN:113,_ZSt16__do_uninit_copyIPKNSt7__cxx1112basic_stringIcSt11char_traitsIcESaIcEEEPS5_ET0_T_SA_S9_
FNDA:0,_ZSt16__do_uninit_copyIPKNSt7__cxx1112basic_stringIcSt11char_traitsIcESaIcEEEPS5_ET0_T_SA_S9_
FN:163,_ZSt18uninitialized_copyISt13move_iteratorIPSt4pairIbN11MetaPhysicL10DualNumberIdNS2_28SemiDynamicSparseNumberArrayIdmNS2_8NWrapperILm64EEEEELb1EEEEESA_ET0_T_SD_SC_
FNDA:0,_ZSt18uninitialized_copyISt13move_iteratorIPSt4pairIbN11MetaPhysicL10DualNumberIdNS2_28SemiDynamicSparseNumberArrayIdmNS2_8NWrapperILm64EEEEELb1EEEEESA_ET0_T_SD_SC_
FN:261,_ZSt18__do_uninit_fill_nIPSt4pairIbN11MetaPhysicL10DualNumberIdNS1_28SemiDynamicSparseNumberArrayIdmNS1_8NWrapperILm64EEEEELb1EEEEmS8_ET_SA_T0_RKT1_
FNDA:0,_ZSt18__do_uninit_fill_nIPSt4pairIbN11MetaPhysicL10DualNumberIdNS1_28SemiDynamicSparseNumberArrayIdmNS1_8NWrapperILm64EEEEELb1EEEEmS8_ET_SA_T0_RKT1_
FN:1078,_ZSt14__relocate_a_1IPSt6vectorISt4pairIbdESaIS2_EES5_SaIS4_EET0_T_S8_S7_RT1_
FNDA:0,_ZSt14__relocate_a_1IPSt6vectorISt4pairIbdESaIS2_EES5_SaIS4_EET0_T_S8_S7_RT1_
FN:1078,_ZSt14__relocate_a_1IPSt6vectorISt4pairIbN11MetaPhysicL10DualNumberIdNS2_28SemiDynamicSparseNumberArrayIdmNS2_8NWrapperILm64EEEEELb1EEEESaIS9_EESC_SaISB_EET0_T_SF_SE_RT1_
FNDA:0,_ZSt14__relocate_a_1IPSt6vectorISt4pairIbN11MetaPhysicL10DualNumberIdNS2_28SemiDynamicSparseNumberArrayIdmNS2_8NWrapperILm64EEEEELb1EEEESaIS9_EESC_SaISB_EET0_T_SF_SE_RT1_
FNF:7
FNH:0
DA:113,0
DA:119,0
DA:121,0
DA:113,0
DA:119,0
DA:121,0
DA:113,0
DA:119,0
DA:121,0
DA:123,0
DA:126,0
DA:119,0
DA:137,0
DA:163,0
DA:185,0
DA:261,0
DA:266,0
DA:268,0
DA:284,0
DA:372,0
DA:382,0
DA:637,0
DA:1078,0
DA:1091,0
DA:1094,0
DA:1078,0
DA:1091,0
DA:1094,0
DA:1091,0
DA:1133,0
LF:30
LH:0
end_of_record
SF:/home/runner/work/beaver/beaver/moose/framework/build/header_symlinks/FaceArgInterface.h
LF:0
LH:0
end_of_record
SF:/home/runner/work/beaver/beaver/moose/framework/build/header_symlinks/FVElementalKernel.h
FN:44,_ZNK17FVElementalKernel8variableEv
FNDA:1,_ZNK17FVElementalKernel8variableEv
FNF:1
FNH:1
DA:44,1
LF:1
LH:1
end_of_record
SF:/home/runner/work/beaver/beaver/moose/framework/build/header_symlinks/MooseEnumItem.h
FN:72,_ZNK13MooseEnumItemltERKS_
FNDA:0,_ZNK13MooseEnumItemltERKS_
FNF:1
FNH:0
DA:24,0
DA:72,0
DA:74,0
LF:3
LH:0
end_of_record
SF:/home/runner/work/beaver/beaver/moose/framework/build/header_symlinks/Registry.h
FN:123,_ZNK17RegistryEntryBase4nameB5cxx11Ev
FNDA:0,_ZNK17RegistryEntryBase4nameB5cxx11Ev
FN:164,_ZN8Registry3addI20BVFVSinglePhaseDarcyEEcRK17RegistryEntryData
FNDA:26,_ZN8Registry3addI20BVFVSinglePhaseDarcyEEcRK17RegistryEntryData
FN:164,_ZN8Registry3addI29BVFVSinglePhaseTimeDerivativeEEcRK17RegistryEntryData
FNDA:26,_ZN8Registry3addI29BVFVSinglePhaseTimeDerivativeEEcRK17RegistryEntryData
FN:164,_ZN8Registry3addI35BVFVSinglePhaseSoluteTimeDerivativeEEcRK17RegistryEntryData
FNDA:26,_ZN8Registry3addI35BVFVSinglePhaseSoluteTimeDerivativeEEcRK17RegistryEntryData
FN:164,_ZN8Registry3addI26BVFVSinglePhaseSoluteDarcyEEcRK17RegistryEntryData
FNDA:26,_ZN8Registry3addI26BVFVSinglePhaseSoluteDarcyEEcRK17RegistryEntryData
FN:164,_ZN8Registry3addI38BVFVMultiPhaseSaturationTimeDerivativeEEcRK17RegistryEntryData
FNDA:26,_ZN8Registry3addI38BVFVMultiPhaseSaturationTimeDerivativeEEcRK17RegistryEntryData
FN:164,_ZN8Registry3addI29BVFVMultiPhaseSaturationDarcyEEcRK17RegistryEntryData
FNDA:26,_ZN8Registry3addI29BVFVMultiPhaseSaturationDarcyEEcRK17RegistryEntryData
FN:164,_ZN8Registry3addI36BVFVMultiPhasePressureTimeDerivativeEEcRK17RegistryEntryData
FNDA:26,_ZN8Registry3addI36BVFVMultiPhasePressureTimeDerivativeEEcRK17RegistryEntryData
FN:164,_ZN8Registry3addI27BVFVMultiPhasePressureDarcyEEcRK17RegistryEntryData
FNDA:26,_ZN8Registry3addI27BVFVMultiPhasePressureDarcyEEcRK17RegistryEntryData
FN:272,_ZN13RegistryEntryI36BVFVMultiPhasePressureTimeDerivativeE5buildERK15InputParameters
FNDA:0,_ZN13RegistryEntryI36BVFVMultiPhasePressureTimeDerivativeE5buildERK15InputParameters
FN:272,_ZN13RegistryEntryI29BVFVMultiPhaseSaturationDarcyE5buildERK15InputParameters
FNDA:0,_ZN13RegistryEntryI29BVFVMultiPhaseSaturationDarcyE5buildERK15InputParameters
FN:272,_ZN13RegistryEntryI38BVFVMultiPhaseSaturationTimeDerivativeE5buildERK15InputParameters
FNDA:0,_ZN13RegistryEntryI38BVFVMultiPhaseSaturationTimeDerivativeE5buildERK15InputParameters
FN:272,_ZN13RegistryEntryI27BVFVMultiPhasePressureDarcyE5buildERK15InputParameters
FNDA:0,_ZN13RegistryEntryI27BVFVMultiPhasePressureDarcyE5buildERK15InputParameters
FN:272,_ZN13RegistryEntryI20BVFVSinglePhaseDarcyE5buildERK15InputParameters
FNDA:3,_ZN13RegistryEntryI20BVFVSinglePhaseDarcyE5buildERK15InputParameters
FN:272,_ZN13RegistryEntryI29BVFVSinglePhaseTimeDerivativeE5buildERK15InputParameters
FNDA:1,_ZN13RegistryEntryI29BVFVSinglePhaseTimeDerivativeE5buildERK15InputParameters
FN:272,_ZN13RegistryEntryI26BVFVSinglePhaseSoluteDarcyE5buildERK15InputParameters
FNDA:0,_ZN13RegistryEntryI26BVFVSinglePhaseSoluteDarcyE5buildERK15InputParameters
FN:272,_ZN13RegistryEntryI35BVFVSinglePhaseSoluteTimeDerivativeE5buildERK15InputParameters
FNDA:0,_ZN13RegistryEntryI35BVFVSinglePhaseSoluteTimeDerivativeE5buildERK15InputParameters
FN:281,_ZN13RegistryEntryI26BVFVSinglePhaseSoluteDarcyE11buildActionERK15InputParameters
FNDA:0,_ZN13RegistryEntryI26BVFVSinglePhaseSoluteDarcyE11buildActionERK15InputParameters
FN:281,_ZN13RegistryEntryI29BVFVSinglePhaseTimeDerivativeE11buildActionERK15InputParameters
FNDA:0,_ZN13RegistryEntryI29BVFVSinglePhaseTimeDerivativeE11buildActionERK15InputParameters
FN:281,_ZN13RegistryEntryI35BVFVSinglePhaseSoluteTimeDerivativeE11buildActionERK15InputParameters
FNDA:0,_ZN13RegistryEntryI35BVFVSinglePhaseSoluteTimeDerivativeE11buildActionERK15InputParameters
FN:281,_ZN13RegistryEntryI20BVFVSinglePhaseDarcyE11buildActionERK15InputParameters
FNDA:0,_ZN13RegistryEntryI20BVFVSinglePhaseDarcyE11buildActionERK15InputParameters
FN:281,_ZN13RegistryEntryI38BVFVMultiPhaseSaturationTimeDerivativeE11buildActionERK15InputParameters
FNDA:0,_ZN13RegistryEntryI38BVFVMultiPhaseSaturationTimeDerivativeE11buildActionERK15InputParameters
FN:281,_ZN13RegistryEntryI29BVFVMultiPhaseSaturationDarcyE11buildActionERK15InputParameters
FNDA:0,_ZN13RegistryEntryI29BVFVMultiPhaseSaturationDarcyE11buildActionERK15InputParameters
FN:281,_ZN13RegistryEntryI36BVFVMultiPhasePressureTimeDerivativeE11buildActionERK15InputParameters
FNDA:0,_ZN13RegistryEntryI36BVFVMultiPhasePressureTimeDerivativeE11buildActionERK15InputParameters
FN:281,_ZN13RegistryEntryI27BVFVMultiPhasePressureDarcyE11buildActionERK15InputParameters
FNDA:0,_ZN13RegistryEntryI27BVFVMultiPhasePressureDarcyE11buildActionERK15InputParameters
FN:291,_ZN13RegistryEntryI35BVFVSinglePhaseSoluteTimeDerivativeE15buildParametersEv
FNDA:132,_ZN13RegistryEntryI35BVFVSinglePhaseSoluteTimeDerivativeE15buildParametersEv
FN:291,_ZN13RegistryEntryI29BVFVSinglePhaseTimeDerivativeE15buildParametersEv
FNDA:134,_ZN13RegistryEntryI29BVFVSinglePhaseTimeDerivativeE15buildParametersEv
FN:291,_ZN13RegistryEntryI27BVFVMultiPhasePressureDarcyE15buildParametersEv
FNDA:132,_ZN13RegistryEntryI27BVFVMultiPhasePressureDarcyE15buildParametersEv
FN:291,_ZN13RegistryEntryI26BVFVSinglePhaseSoluteDarcyE15buildParametersEv
FNDA:132,_ZN13RegistryEntryI26BVFVSinglePhaseSoluteDarcyE15buildParametersEv
FN:291,_ZN13RegistryEntryI20BVFVSinglePhaseDarcyE15buildParametersEv
FNDA:138,_ZN13RegistryEntryI20BVFVSinglePhaseDarcyE15buildParametersEv
FN:291,_ZN13RegistryEntryI38BVFVMultiPhaseSaturationTimeDerivativeE15buildParametersEv
FNDA:132,_ZN13RegistryEntryI38BVFVMultiPhaseSaturationTimeDerivativeE15buildParametersEv
FN:291,_ZN13RegistryEntryI29BVFVMultiPhaseSaturationDarcyE15buildParametersEv
FNDA:132,_ZN13RegistryEntryI29BVFVMultiPhaseSaturationDarcyE15buildParametersEv
FN:291,_ZN13RegistryEntryI36BVFVMultiPhasePressureTimeDerivativeE15buildParametersEv
FNDA:132,_ZN13RegistryEntryI36BVFVMultiPhasePressureTimeDerivativeE15buildParametersEv
FNF:33
FNH:18
DA:116,208
DA:123,0
DA:125,0
DA:126,0
DA:127,0
DA:128,0
DA:129,0
DA:130,0
DA:137,208
DA:164,26
DA:167,26
DA:168,52
DA:169,26
DA:164,26
DA:167,26
DA:168,52
DA:169,26
DA:164,26
DA:167,26
DA:168,52
DA:169,26
DA:164,26
DA:167,26
DA:168,52
DA:169,26
DA:164,26
DA:167,26
DA:168,52
DA:169,26
DA:164,26
DA:167,26
DA:168,52
DA:169,26
DA:164,26
DA:167,26
DA:168,52
DA:169,26
DA:164,26
DA:167,26
DA:168,52
DA:169,26
DA:272,0
DA:275,0
DA:272,0
DA:275,0
DA:272,0
DA:275,0
DA:272,0
DA:275,0
DA:272,3
DA:275,3
DA:272,0
DA:275,0
DA:272,0
DA:275,0
DA:272,1
DA:275,1
DA:281,0
DA:284,0
DA:281,0
DA:284,0
DA:281,0
DA:284,0
DA:281,0
DA:284,0
DA:281,0
DA:284,0
DA:281,0
DA:284,0
DA:281,0
DA:284,0
DA:281,0
DA:284,0
DA:291,132
DA:293,132
DA:294,132
DA:291,132
DA:293,132
DA:294,132
DA:291,132
DA:293,132
DA:294,132
DA:291,132
DA:293,132
DA:294,132
DA:291,138
DA:293,138
DA:294,138
DA:291,132
DA:293,132
DA:294,132
DA:291,132
DA:293,132
DA:294,132
DA:291,134
DA:293,134
DA:294,134
LF:97
LH:62
end_of_record
SF:/usr/share/miniconda3/envs/moose/x86_64-conda-linux-gnu/include/c++/12.3.0/bits/alloc_traits.h
DA:464,208
DA:496,0
LF:2
LH:1
end_of_record
SF:/usr/share/miniconda3/envs/moose/libmesh/include/libmesh/libmesh_exceptions.h
FN:51,_ZN7libMesh14NotImplementedC2ENSt7__cxx1112basic_stringIcSt11char_traitsIcESaIcEEE
FNDA:0,_ZN7libMesh14NotImplementedC2ENSt7__cxx1112basic_stringIcSt11char_traitsIcESaIcEEE
FNF:1
FNH:0
DA:39,0
DA:51,0
LF:2
LH:0
end_of_record
SF:/home/runner/work/beaver/beaver/moose/framework/build/header_symlinks/CoupleableMooseVariableDependencyIntermediateInterface.h
LF:0
LH:0
end_of_record
SF:/home/runner/work/beaver/beaver/build/header_symlinks/BVFVSinglePhaseSoluteDarcy.h
LF:0
LH:0
end_of_record
SF:/usr/share/miniconda3/envs/moose/x86_64-conda-linux-gnu/include/c++/12.3.0/bits/basic_string.h
FN:642,_ZNSt7__cxx1112basic_stringIcSt11char_traitsIcESaIcEEC2IS3_EEPKcRKS3_
FNDA:5706,_ZNSt7__cxx1112basic_stringIcSt11char_traitsIcESaIcEEC2IS3_EEPKcRKS3_
FN:1689,_ZNSt7__cxx1112basic_stringIcSt11char_traitsIcESaIcEE6assignIPcvEERS4_T_S8_
FNDA:0,_ZNSt7__cxx1112basic_stringIcSt11char_traitsIcESaIcEE6assignIPcvEERS4_T_S8_
FN:3440,_ZStplIcSt11char_traitsIcESaIcEENSt7__cxx1112basic_stringIT_T0_T1_EERKS8_SA_
FNDA:0,_ZStplIcSt11char_traitsIcESaIcEENSt7__cxx1112basic_stringIT_T0_T1_EERKS8_SA_
FNF:3
FNH:1
DA:187,0
DA:188,0
DA:199,5706
DA:200,5706
DA:203,0
DA:204,0
DA:224,2770
DA:229,5706
DA:234,0
DA:241,0
DA:261,2770
DA:268,5706
DA:479,0
DA:485,5706
DA:523,0
DA:642,5706
DA:646,5706
DA:647,0
DA:649,5706
DA:650,5706
DA:651,5706
DA:803,3142
DA:813,0
DA:974,0
DA:1072,0
DA:1396,0
DA:1579,0
DA:1689,0
DA:1690,0
DA:3440,0
DA:3443,0
DA:3445,0
DA:3563,0
DA:3702,0
DA:3896,0
LF:35
LH:13
end_of_record
SF:/home/runner/work/beaver/beaver/moose/framework/build/header_symlinks/FVFluxKernel.h
FN:48,_ZNK12FVFluxKernel8variableEv
FNDA:3,_ZNK12FVFluxKernel8variableEv
FNF:1
FNH:1
DA:48,3
LF:1
LH:1
end_of_record
SF:/home/runner/work/beaver/beaver/moose/framework/build/header_symlinks/MooseArray.h
FN:213,_ZN10MooseArrayIdE6resizeILb1EEEvj
FNDA:0,_ZN10MooseArrayIdE6resizeILb1EEEvj
FN:213,_ZN10MooseArrayIN11MetaPhysicL10DualNumberIdNS0_28SemiDynamicSparseNumberArrayIdmNS0_8NWrapperILm64EEEEELb1EEEE6resizeILb1EEEvj
FNDA:0,_ZN10MooseArrayIN11MetaPhysicL10DualNumberIdNS0_28SemiDynamicSparseNumberArrayIdmNS0_8NWrapperILm64EEEEELb1EEEE6resizeILb1EEEvj
FNF:2
FNH:0
DA:25,0
DA:55,0
DA:213,0
DA:215,0
DA:218,0
DA:223,0
DA:224,0
DA:227,0
DA:228,0
DA:213,0
DA:215,0
DA:218,0
DA:223,0
DA:224,0
DA:227,0
DA:228,0
DA:258,0
DA:268,0
DA:278,23164
LF:19
LH:1
end_of_record
SF:/usr/share/miniconda3/envs/moose/libmesh/include/metaphysicl/semidynamicsparsenumberarray_decl.h
DA:34,10062906
DA:56,0
DA:58,85052
DA:60,21614
DA:62,642438
LF:5
LH:4
end_of_record
SF:/home/runner/work/beaver/beaver/build/header_symlinks/BVFVSinglePhaseDarcy.h
LF:0
LH:0
end_of_record
SF:/home/runner/work/beaver/beaver/moose/framework/build/header_symlinks/MaterialData.h
FN:253,_ZNK12MaterialData19haveGenericPropertyIdLb1EEEbRKNSt7__cxx1112basic_stringIcSt11char_traitsIcESaIcEEE
FNDA:0,_ZNK12MaterialData19haveGenericPropertyIdLb1EEEbRKNSt7__cxx1112basic_stringIcSt11char_traitsIcESaIcEEE
FN:269,_ZN12MaterialData17getPropertyHelperIdLb0ELb0EEERN29GenericMaterialPropertyStructIT_XT0_EE4typeERKNSt7__cxx1112basic_stringIcSt11char_traitsIcESaIcEEEjRK11MooseObject
FNDA:0,_ZN12MaterialData17getPropertyHelperIdLb0ELb0EEERN29GenericMaterialPropertyStructIT_XT0_EE4typeERKNSt7__cxx1112basic_stringIcSt11char_traitsIcESaIcEEEjRK11MooseObject
FN:269,_ZN12MaterialData17getPropertyHelperIdLb1ELb0EEERN29GenericMaterialPropertyStructIT_XT0_EE4typeERKNSt7__cxx1112basic_stringIcSt11char_traitsIcESaIcEEEjRK11MooseObject
FNDA:0,_ZN12MaterialData17getPropertyHelperIdLb1ELb0EEERN29GenericMaterialPropertyStructIT_XT0_EE4typeERKNSt7__cxx1112basic_stringIcSt11char_traitsIcESaIcEEEjRK11MooseObject
FNF:3
FNH:0
DA:98,0
DA:115,0
DA:248,0
DA:253,0
DA:255,0
DA:258,0
DA:260,0
DA:264,0
DA:269,0
DA:279,0
DA:281,0
DA:284,0
DA:287,0
DA:290,0
DA:292,0
DA:293,0
DA:296,0
DA:301,0
DA:305,0
DA:306,0
DA:310,0
DA:313,0
DA:316,0
DA:317,0
DA:318,0
DA:319,0
DA:321,0
DA:269,0
DA:279,0
DA:281,0
DA:284,0
DA:287,0
DA:290,0
DA:292,0
DA:293,0
DA:296,0
DA:301,0
DA:305,0
DA:306,0
DA:310,0
DA:313,0
DA:316,0
DA:317,0
DA:318,0
DA:319,0
DA:321,0
LF:46
LH:0
end_of_record
SF:/usr/share/miniconda3/envs/moose/libmesh/include/libmesh/elem.h
FN:576,_ZNK7libMesh4Elem9is_remoteEv
FNDA:0,_ZNK7libMesh4Elem9is_remoteEv
FN:634,_ZNK7libMesh4Elem16n_nodes_in_childEj
FNDA:0,_ZNK7libMesh4Elem16n_nodes_in_childEj
FN:720,_ZNK7libMesh4Elem18is_vertex_on_childEjj
FNDA:0,_ZNK7libMesh4Elem18is_vertex_on_childEjj
FN:931,_ZNK7libMesh4Elem18default_side_orderEv
FNDA:0,_ZNK7libMesh4Elem18default_side_orderEv
FN:975,_ZNK7libMesh4Elem17quasicircumcenterEv
FNDA:0,_ZNK7libMesh4Elem17quasicircumcenterEv
FN:1035,_ZNK7libMesh4Elem11qual_boundsENS_11ElemQualityE
FNDA:0,_ZNK7libMesh4Elem11qual_boundsENS_11ElemQualityE
FN:1075,_ZNK7libMesh4Elem14has_affine_mapEv
FNDA:0,_ZNK7libMesh4Elem14has_affine_mapEv
FN:1091,_ZNK7libMesh4Elem9is_linearEv
FNDA:0,_ZNK7libMesh4Elem9is_linearEv
FN:1709,_ZNK7libMesh4Elem19local_singular_nodeERKNS_5PointEd
FNDA:0,_ZNK7libMesh4Elem19local_singular_nodeERKNS_5PointEd
FN:1716,_ZNK7libMesh4Elem16is_singular_nodeEj
FNDA:0,_ZNK7libMesh4Elem16is_singular_nodeEj
FN:1917,_ZNK7libMesh4Elem24embedding_matrix_versionEv
FNDA:0,_ZNK7libMesh4Elem24embedding_matrix_versionEv
FN:2076,_ZNK7libMesh4Elem26_get_bracketing_node_cacheEv
FNDA:0,_ZNK7libMesh4Elem26_get_bracketing_node_cacheEv
FN:2090,_ZNK7libMesh4Elem25_get_parent_indices_cacheEv
FNDA:0,_ZNK7libMesh4Elem25_get_parent_indices_cacheEv
FN:2406,_ZN7libMesh4Elem8set_nodeEj
FNDA:0,_ZN7libMesh4Elem8set_nodeEj
FNF:14
FNH:0
DA:576,0
DA:577,0
DA:634,0
DA:635,0
DA:720,0
DA:722,0
DA:931,0
DA:975,0
DA:976,0
DA:1035,0
DA:1036,0
DA:1075,0
DA:1091,0
DA:1709,0
DA:1710,0
DA:1716,0
DA:1917,0
DA:2076,0
DA:2078,0
DA:2079,0
DA:2090,0
DA:2092,0
DA:2093,0
DA:2406,0
DA:2410,0
DA:2418,0
LF:26
LH:0
end_of_record
SF:/home/runner/work/beaver/beaver/moose/framework/build/header_symlinks/MaterialProperty.h
FN:116,_ZNK20MaterialPropertyBaseIdLb1EE4isADEv
FNDA:0,_ZNK20MaterialPropertyBaseIdLb1EE4isADEv
FN:116,_ZNK20MaterialPropertyBaseIdLb0EE4isADEv
FNDA:0,_ZNK20MaterialPropertyBaseIdLb0EE4isADEv
FN:138,_ZNK20MaterialPropertyBaseIdLb1EE4sizeEv
FNDA:0,_ZNK20MaterialPropertyBaseIdLb1EE4sizeEv
FN:138,_ZNK20MaterialPropertyBaseIdLb0EE4sizeEv
FNDA:0,_ZNK20MaterialPropertyBaseIdLb0EE4sizeEv
FN:242,_ZNK20MaterialPropertyBaseIdLb0EE4typeB5cxx11Ev
FNDA:0,_ZNK20MaterialPropertyBaseIdLb0EE4typeB5cxx11Ev
FN:242,_ZNK20MaterialPropertyBaseIdLb1EE4typeB5cxx11Ev
FNDA:0,_ZNK20MaterialPropertyBaseIdLb1EE4typeB5cxx11Ev
FN:250,_ZN20MaterialPropertyBaseIdLb1EE6resizeEm
FNDA:0,_ZN20MaterialPropertyBaseIdLb1EE6resizeEm
FN:250,_ZN20MaterialPropertyBaseIdLb0EE6resizeEm
FNDA:0,_ZN20MaterialPropertyBaseIdLb0EE6resizeEm
FN:257,_ZN20MaterialPropertyBaseIdLb1EE6qpCopyEjRK13PropertyValuej
FNDA:0,_ZN20MaterialPropertyBaseIdLb1EE6qpCopyEjRK13PropertyValuej
FN:257,_ZN20MaterialPropertyBaseIdLb0EE6qpCopyEjRK13PropertyValuej
FNDA:0,_ZN20MaterialPropertyBaseIdLb0EE6qpCopyEjRK13PropertyValuej
FN:271,_ZN20MaterialPropertyBaseIdLb1EE5storeERSo
FNDA:0,_ZN20MaterialPropertyBaseIdLb1EE5storeERSo
FN:271,_ZN20MaterialPropertyBaseIdLb0EE5storeERSo
FNDA:0,_ZN20MaterialPropertyBaseIdLb0EE5storeERSo
FN:279,_ZN20MaterialPropertyBaseIdLb0EE4loadERSi
FNDA:0,_ZN20MaterialPropertyBaseIdLb0EE4loadERSi
FN:279,_ZN20MaterialPropertyBaseIdLb1EE4loadERSi
FNDA:0,_ZN20MaterialPropertyBaseIdLb1EE4loadERSi
FN:287,_ZN20MaterialPropertyBaseIdLb0EE4swapER13PropertyValue
FNDA:0,_ZN20MaterialPropertyBaseIdLb0EE4swapER13PropertyValue
FN:287,_ZN20MaterialPropertyBaseIdLb1EE4swapER13PropertyValue
FNDA:0,_ZN20MaterialPropertyBaseIdLb1EE4swapER13PropertyValue
FN:323,_ZNK20MaterialPropertyBaseIdLb1EE6typeIDEv
FNDA:0,_ZNK20MaterialPropertyBaseIdLb1EE6typeIDEv
FN:323,_ZNK20MaterialPropertyBaseIdLb0EE6typeIDEv
FNDA:0,_ZNK20MaterialPropertyBaseIdLb0EE6typeIDEv
FN:331,_ZNK20MaterialPropertyBaseIdLb0EE5cloneEm
FNDA:0,_ZNK20MaterialPropertyBaseIdLb0EE5cloneEm
FN:331,_ZNK20MaterialPropertyBaseIdLb1EE5cloneEm
FNDA:0,_ZNK20MaterialPropertyBaseIdLb1EE5cloneEm
FNF:20
FNH:0
DA:43,0
DA:55,0
DA:114,0
DA:116,0
DA:116,0
DA:138,0
DA:138,0
DA:218,0
DA:219,0
DA:242,0
DA:244,0
DA:245,0
DA:242,0
DA:244,0
DA:245,0
DA:250,0
DA:252,0
DA:253,0
DA:250,0
DA:252,0
DA:253,0
DA:252,0
DA:253,0
DA:257,0
DA:262,0
DA:263,0
DA:267,0
DA:257,0
DA:262,0
DA:263,0
DA:267,0
DA:271,0
DA:273,0
DA:275,0
DA:271,0
DA:273,0
DA:275,0
DA:279,0
DA:281,0
DA:283,0
DA:279,0
DA:281,0
DA:283,0
DA:287,0
DA:293,0
DA:297,0
DA:312,0
DA:317,0
DA:287,0
DA:293,0
DA:297,0
DA:312,0
DA:317,0
DA:323,0
DA:326,0
DA:323,0
DA:326,0
DA:331,0
DA:333,0
DA:334,0
DA:336,0
DA:337,0
DA:331,0
DA:333,0
DA:334,0
DA:336,0
DA:337,0
DA:344,0
DA:367,0
DA:418,0
LF:70
LH:0
end_of_record
SF:/home/runner/work/beaver/beaver/moose/framework/build/header_symlinks/MooseTypes.h
DA:1075,0
DA:1078,0
DA:1111,0
DA:1114,0
LF:4
LH:0
end_of_record
SF:/usr/share/miniconda3/envs/moose/x86_64-conda-linux-gnu/include/c++/12.3.0/bits/hashtable.h
FN:312,_ZNSt10_HashtableImSt4pairIKmSt6vectorIS2_IS0_IbdESaIS3_EESaIS5_EEESaIS8_ENSt8__detail10_Select1stESt8equal_toImESt4hashImENSA_18_Mod_range_hashingENSA_20_Default_ranged_hashENSA_20_Prime_rehash_policyENSA_17_Hashtable_traitsILb0ELb0ELb1EEEE12_Scoped_nodeD2Ev
FNDA:0,_ZNSt10_HashtableImSt4pairIKmSt6vectorIS2_IS0_IbdESaIS3_EESaIS5_EEESaIS8_ENSt8__detail10_Select1stESt8equal_toImESt4hashImENSA_18_Mod_range_hashingENSA_20_Default_ranged_hashENSA_20_Prime_rehash_policyENSA_17_Hashtable_traitsILb0ELb0ELb1EEEE12_Scoped_nodeD2Ev
FN:312,_ZNSt10_HashtableImSt4pairIKmSt6vectorIS0_IbdESaIS3_EEESaIS6_ENSt8__detail10_Select1stESt8equal_toImESt4hashImENS8_18_Mod_range_hashingENS8_20_Default_ranged_hashENS8_20_Prime_rehash_policyENS8_17_Hashtable_traitsILb0ELb0ELb1EEEE12_Scoped_nodeD2Ev
FNDA:0,_ZNSt10_HashtableImSt4pairIKmSt6vectorIS0_IbdESaIS3_EEESaIS6_ENSt8__detail10_Select1stESt8equal_toImESt4hashImENS8_18_Mod_range_hashingENS8_20_Default_ranged_hashENS8_20_Prime_rehash_policyENS8_17_Hashtable_traitsILb0ELb0ELb1EEEE12_Scoped_nodeD2Ev
FN:312,_ZNSt10_HashtableImSt4pairIKmSt6vectorIS2_IS0_IbN11MetaPhysicL10DualNumberIdNS3_28SemiDynamicSparseNumberArrayIdmNS3_8NWrapperILm64EEEEELb1EEEESaISA_EESaISC_EEESaISF_ENSt8__detail10_Select1stESt8equal_toImESt4hashImENSH_18_Mod_range_hashingENSH_20_Default_ranged_hashENSH_20_Prime_rehash_policyENSH_17_Hashtable_traitsILb0ELb0ELb1EEEE12_Scoped_nodeD2Ev
FNDA:0,_ZNSt10_HashtableImSt4pairIKmSt6vectorIS2_IS0_IbN11MetaPhysicL10DualNumberIdNS3_28SemiDynamicSparseNumberArrayIdmNS3_8NWrapperILm64EEEEELb1EEEESaISA_EESaISC_EEESaISF_ENSt8__detail10_Select1stESt8equal_toImESt4hashImENSH_18_Mod_range_hashingENSH_20_Default_ranged_hashENSH_20_Prime_rehash_policyENSH_17_Hashtable_traitsILb0ELb0ELb1EEEE12_Scoped_nodeD2Ev
FN:312,_ZNSt10_HashtableIjjSaIjENSt8__detail9_IdentityESt8equal_toIjESt4hashIjENS1_18_Mod_range_hashingENS1_20_Default_ranged_hashENS1_20_Prime_rehash_policyENS1_17_Hashtable_traitsILb0ELb1ELb1EEEE12_Scoped_nodeD2Ev
FNDA:0,_ZNSt10_HashtableIjjSaIjENSt8__detail9_IdentityESt8equal_toIjESt4hashIjENS1_18_Mod_range_hashingENS1_20_Default_ranged_hashENS1_20_Prime_rehash_policyENS1_17_Hashtable_traitsILb0ELb1ELb1EEEE12_Scoped_nodeD2Ev
FN:312,_ZNSt10_HashtableImSt4pairIKmSt6vectorIS0_IbN11MetaPhysicL10DualNumberIdNS3_28SemiDynamicSparseNumberArrayIdmNS3_8NWrapperILm64EEEEELb1EEEESaISA_EEESaISD_ENSt8__detail10_Select1stESt8equal_toImESt4hashImENSF_18_Mod_range_hashingENSF_20_Default_ranged_hashENSF_20_Prime_rehash_policyENSF_17_Hashtable_traitsILb0ELb0ELb1EEEE12_Scoped_nodeD2Ev
FNDA:0,_ZNSt10_HashtableImSt4pairIKmSt6vectorIS0_IbN11MetaPhysicL10DualNumberIdNS3_28SemiDynamicSparseNumberArrayIdmNS3_8NWrapperILm64EEEEELb1EEEESaISA_EEESaISD_ENSt8__detail10_Select1stESt8equal_toImESt4hashImENSF_18_Mod_range_hashingENSF_20_Default_ranged_hashENSF_20_Prime_rehash_policyENSF_17_Hashtable_traitsILb0ELb0ELb1EEEE12_Scoped_nodeD2Ev
FN:456,_ZNSt10_HashtableImSt4pairIKmSt6vectorIS2_IS0_IbdESaIS3_EESaIS5_EEESaIS8_ENSt8__detail10_Select1stESt8equal_toImESt4hashImENSA_18_Mod_range_hashingENSA_20_Default_ranged_hashENSA_20_Prime_rehash_policyENSA_17_Hashtable_traitsILb0ELb0ELb1EEEE21_M_deallocate_bucketsEv
FNDA:0,_ZNSt10_HashtableImSt4pairIKmSt6vectorIS2_IS0_IbdESaIS3_EESaIS5_EEESaIS8_ENSt8__detail10_Select1stESt8equal_toImESt4hashImENSA_18_Mod_range_hashingENSA_20_Default_ranged_hashENSA_20_Prime_rehash_policyENSA_17_Hashtable_traitsILb0ELb0ELb1EEEE21_M_deallocate_bucketsEv
FN:456,_ZNSt10_HashtableINSt7__cxx1112basic_stringIcSt11char_traitsIcESaIcEEESt4pairIKS5_S5_ESaIS8_ENSt8__detail10_Select1stESt8equal_toIS5_ESt4hashIS5_ENSA_18_Mod_range_hashingENSA_20_Default_ranged_hashENSA_20_Prime_rehash_policyENSA_17_Hashtable_traitsILb1ELb0ELb1EEEE21_M_deallocate_bucketsEv
FNDA:0,_ZNSt10_HashtableINSt7__cxx1112basic_stringIcSt11char_traitsIcESaIcEEESt4pairIKS5_S5_ESaIS8_ENSt8__detail10_Select1stESt8equal_toIS5_ESt4hashIS5_ENSA_18_Mod_range_hashingENSA_20_Default_ranged_hashENSA_20_Prime_rehash_policyENSA_17_Hashtable_traitsILb1ELb0ELb1EEEE21_M_deallocate_bucketsEv
FN:456,_ZNSt10_HashtableImSt4pairIKmSt6vectorIS2_IS0_IbN11MetaPhysicL10DualNumberIdNS3_28SemiDynamicSparseNumberArrayIdmNS3_8NWrapperILm64EEEEELb1EEEESaISA_EESaISC_EEESaISF_ENSt8__detail10_Select1stESt8equal_toImESt4hashImENSH_18_Mod_range_hashingENSH_20_Default_ranged_hashENSH_20_Prime_rehash_policyENSH_17_Hashtable_traitsILb0ELb0ELb1EEEE21_M_deallocate_bucketsEv
FNDA:0,_ZNSt10_HashtableImSt4pairIKmSt6vectorIS2_IS0_IbN11MetaPhysicL10DualNumberIdNS3_28SemiDynamicSparseNumberArrayIdmNS3_8NWrapperILm64EEEEELb1EEEESaISA_EESaISC_EEESaISF_ENSt8__detail10_Select1stESt8equal_toImESt4hashImENSH_18_Mod_range_hashingENSH_20_Default_ranged_hashENSH_20_Prime_rehash_policyENSH_17_Hashtable_traitsILb0ELb0ELb1EEEE21_M_deallocate_bucketsEv
FN:456,_ZNSt10_HashtableINSt7__cxx1112basic_stringIcSt11char_traitsIcESaIcEEESt4pairIKS5_St10unique_ptrI10MooseArrayIN5Eigen6MatrixIdLin1ELi1ELi0ELin1ELi1EEEESt14default_deleteISD_EEESaISH_ENSt8__detail10_Select1stESt8equal_toIS5_ESt4hashIS5_ENSJ_18_Mod_range_hashingENSJ_20_Default_ranged_hashENSJ_20_Prime_rehash_policyENSJ_17_Hashtable_traitsILb1ELb0ELb1EEEE21_M_deallocate_bucketsEv
FNDA:0,_ZNSt10_HashtableINSt7__cxx1112basic_stringIcSt11char_traitsIcESaIcEEESt4pairIKS5_St10unique_ptrI10MooseArrayIN5Eigen6MatrixIdLin1ELi1ELi0ELin1ELi1EEEESt14default_deleteISD_EEESaISH_ENSt8__detail10_Select1stESt8equal_toIS5_ESt4hashIS5_ENSJ_18_Mod_range_hashingENSJ_20_Default_ranged_hashENSJ_20_Prime_rehash_policyENSJ_17_Hashtable_traitsILb1ELb0ELb1EEEE21_M_deallocate_bucketsEv
FN:456,_ZNSt10_HashtableImSt4pairIKmSt6vectorIS0_IbN11MetaPhysicL10DualNumberIdNS3_28SemiDynamicSparseNumberArrayIdmNS3_8NWrapperILm64EEEEELb1EEEESaISA_EEESaISD_ENSt8__detail10_Select1stESt8equal_toImESt4hashImENSF_18_Mod_range_hashingENSF_20_Default_ranged_hashENSF_20_Prime_rehash_policyENSF_17_Hashtable_traitsILb0ELb0ELb1EEEE21_M_deallocate_bucketsEv
FNDA:0,_ZNSt10_HashtableImSt4pairIKmSt6vectorIS0_IbN11MetaPhysicL10DualNumberIdNS3_28SemiDynamicSparseNumberArrayIdmNS3_8NWrapperILm64EEEEELb1EEEESaISA_EEESaISD_ENSt8__detail10_Select1stESt8equal_toImESt4hashImENSF_18_Mod_range_hashingENSF_20_Default_ranged_hashENSF_20_Prime_rehash_policyENSF_17_Hashtable_traitsILb0ELb0ELb1EEEE21_M_deallocate_bucketsEv
FN:456,_ZNSt10_HashtableINSt7__cxx1112basic_stringIcSt11char_traitsIcESaIcEEESt4pairIKS5_St10unique_ptrI10MooseArrayIdESt14default_deleteISA_EEESaISE_ENSt8__detail10_Select1stESt8equal_toIS5_ESt4hashIS5_ENSG_18_Mod_range_hashingENSG_20_Default_ranged_hashENSG_20_Prime_rehash_policyENSG_17_Hashtable_traitsILb1ELb0ELb1EEEE21_M_deallocate_bucketsEv
FNDA:0,_ZNSt10_HashtableINSt7__cxx1112basic_stringIcSt11char_traitsIcESaIcEEESt4pairIKS5_St10unique_ptrI10MooseArrayIdESt14default_deleteISA_EEESaISE_ENSt8__detail10_Select1stESt8equal_toIS5_ESt4hashIS5_ENSG_18_Mod_range_hashingENSG_20_Default_ranged_hashENSG_20_Prime_rehash_policyENSG_17_Hashtable_traitsILb1ELb0ELb1EEEE21_M_deallocate_bucketsEv
FN:456,_ZNSt10_HashtableINSt7__cxx1112basic_stringIcSt11char_traitsIcESaIcEEESt4pairIKS5_St10unique_ptrI10MooseArrayIN7libMesh11VectorValueIN11MetaPhysicL10DualNumberIdNSC_28SemiDynamicSparseNumberArrayIdmNSC_8NWrapperILm64EEEEELb1EEEEEESt14default_deleteISK_EEESaISO_ENSt8__detail10_Select1stESt8equal_toIS5_ESt4hashIS5_ENSQ_18_Mod_range_hashingENSQ_20_Default_ranged_hashENSQ_20_Prime_rehash_policyENSQ_17_Hashtable_traitsILb1ELb0ELb1EEEE21_M_deallocate_bucketsEv
FNDA:0,_ZNSt10_HashtableINSt7__cxx1112basic_stringIcSt11char_traitsIcESaIcEEESt4pairIKS5_St10unique_ptrI10MooseArrayIN7libMesh11VectorValueIN11MetaPhysicL10DualNumberIdNSC_28SemiDynamicSparseNumberArrayIdmNSC_8NWrapperILm64EEEEELb1EEEEEESt14default_deleteISK_EEESaISO_ENSt8__detail10_Select1stESt8equal_toIS5_ESt4hashIS5_ENSQ_18_Mod_range_hashingENSQ_20_Default_ranged_hashENSQ_20_Prime_rehash_policyENSQ_17_Hashtable_traitsILb1ELb0ELb1EEEE21_M_deallocate_bucketsEv
FN:456,_ZNSt10_HashtableImSt4pairIKmSt6vectorIS0_IbdESaIS3_EEESaIS6_ENSt8__detail10_Select1stESt8equal_toImESt4hashImENS8_18_Mod_range_hashingENS8_20_Default_ranged_hashENS8_20_Prime_rehash_policyENS8_17_Hashtable_traitsILb0ELb0ELb1EEEE21_M_deallocate_bucketsEv
FNDA:0,_ZNSt10_HashtableImSt4pairIKmSt6vectorIS0_IbdESaIS3_EEESaIS6_ENSt8__detail10_Select1stESt8equal_toImESt4hashImENS8_18_Mod_range_hashingENS8_20_Default_ranged_hashENS8_20_Prime_rehash_policyENS8_17_Hashtable_traitsILb0ELb0ELb1EEEE21_M_deallocate_bucketsEv
FN:456,_ZNSt10_HashtableINSt7__cxx1112basic_stringIcSt11char_traitsIcESaIcEEESt4pairIKS5_St6vectorIjSaIjEEESaISB_ENSt8__detail10_Select1stESt8equal_toIS5_ESt4hashIS5_ENSD_18_Mod_range_hashingENSD_20_Default_ranged_hashENSD_20_Prime_rehash_policyENSD_17_Hashtable_traitsILb1ELb0ELb1EEEE21_M_deallocate_bucketsEv
FNDA:0,_ZNSt10_HashtableINSt7__cxx1112basic_stringIcSt11char_traitsIcESaIcEEESt4pairIKS5_St6vectorIjSaIjEEESaISB_ENSt8__detail10_Select1stESt8equal_toIS5_ESt4hashIS5_ENSD_18_Mod_range_hashingENSD_20_Default_ranged_hashENSD_20_Prime_rehash_policyENSD_17_Hashtable_traitsILb1ELb0ELb1EEEE21_M_deallocate_bucketsEv
FN:456,_ZNSt10_HashtableIssSaIsENSt8__detail9_IdentityESt8equal_toIsESt4hashIsENS1_18_Mod_range_hashingENS1_20_Default_ranged_hashENS1_20_Prime_rehash_policyENS1_17_Hashtable_traitsILb0ELb1ELb1EEEE21_M_deallocate_bucketsEv
FNDA:6,_ZNSt10_HashtableIssSaIsENSt8__detail9_IdentityESt8equal_toIsESt4hashIsENS1_18_Mod_range_hashingENS1_20_Default_ranged_hashENS1_20_Prime_rehash_policyENS1_17_Hashtable_traitsILb0ELb1ELb1EEEE21_M_deallocate_bucketsEv
FN:456,_ZNSt10_HashtableINSt7__cxx1112basic_stringIcSt11char_traitsIcESaIcEEESt4pairIKS5_St6vectorIP19MooseVariableScalarSaISA_EEESaISD_ENSt8__detail10_Select1stESt8equal_toIS5_ESt4hashIS5_ENSF_18_Mod_range_hashingENSF_20_Default_ranged_hashENSF_20_Prime_rehash_policyENSF_17_Hashtable_traitsILb1ELb0ELb1EEEE21_M_deallocate_bucketsEv
FNDA:0,_ZNSt10_HashtableINSt7__cxx1112basic_stringIcSt11char_traitsIcESaIcEEESt4pairIKS5_St6vectorIP19MooseVariableScalarSaISA_EEESaISD_ENSt8__detail10_Select1stESt8equal_toIS5_ESt4hashIS5_ENSF_18_Mod_range_hashingENSF_20_Default_ranged_hashENSF_20_Prime_rehash_policyENSF_17_Hashtable_traitsILb1ELb0ELb1EEEE21_M_deallocate_bucketsEv
FN:456,_ZNSt10_HashtableIjjSaIjENSt8__detail9_IdentityESt8equal_toIjESt4hashIjENS1_18_Mod_range_hashingENS1_20_Default_ranged_hashENS1_20_Prime_rehash_policyENS1_17_Hashtable_traitsILb0ELb1ELb1EEEE21_M_deallocate_bucketsEv
FNDA:0,_ZNSt10_HashtableIjjSaIjENSt8__detail9_IdentityESt8equal_toIjESt4hashIjENS1_18_Mod_range_hashingENS1_20_Default_ranged_hashENS1_20_Prime_rehash_policyENS1_17_Hashtable_traitsILb0ELb1ELb1EEEE21_M_deallocate_bucketsEv
FN:456,_ZNSt10_HashtableINSt7__cxx1112basic_stringIcSt11char_traitsIcESaIcEEESt4pairIKS5_St6vectorIP22MooseVariableFieldBaseSaISA_EEESaISD_ENSt8__detail10_Select1stESt8equal_toIS5_ESt4hashIS5_ENSF_18_Mod_range_hashingENSF_20_Default_ranged_hashENSF_20_Prime_rehash_policyENSF_17_Hashtable_traitsILb1ELb0ELb1EEEE21_M_deallocate_bucketsEv
FNDA:0,_ZNSt10_HashtableINSt7__cxx1112basic_stringIcSt11char_traitsIcESaIcEEESt4pairIKS5_St6vectorIP22MooseVariableFieldBaseSaISA_EEESaISD_ENSt8__detail10_Select1stESt8equal_toIS5_ESt4hashIS5_ENSF_18_Mod_range_hashingENSF_20_Default_ranged_hashENSF_20_Prime_rehash_policyENSF_17_Hashtable_traitsILb1ELb0ELb1EEEE21_M_deallocate_bucketsEv
FN:456,_ZNSt10_HashtableINSt7__cxx1112basic_stringIcSt11char_traitsIcESaIcEEESt4pairIKS5_St6vectorISt10unique_ptrI10MooseArrayIdESt14default_deleteISB_EESaISE_EEESaISH_ENSt8__detail10_Select1stESt8equal_toIS5_ESt4hashIS5_ENSJ_18_Mod_range_hashingENSJ_20_Default_ranged_hashENSJ_20_Prime_rehash_policyENSJ_17_Hashtable_traitsILb1ELb0ELb1EEEE21_M_deallocate_bucketsEv
FNDA:0,_ZNSt10_HashtableINSt7__cxx1112basic_stringIcSt11char_traitsIcESaIcEEESt4pairIKS5_St6vectorISt10unique_ptrI10MooseArrayIdESt14default_deleteISB_EESaISE_EEESaISH_ENSt8__detail10_Select1stESt8equal_toIS5_ESt4hashIS5_ENSJ_18_Mod_range_hashingENSJ_20_Default_ranged_hashENSJ_20_Prime_rehash_policyENSJ_17_Hashtable_traitsILb1ELb0ELb1EEEE21_M_deallocate_bucketsEv
FN:456,_ZNSt10_HashtableINSt7__cxx1112basic_stringIcSt11char_traitsIcESaIcEEESt4pairIKS5_St10unique_ptrI10MooseArrayIN7libMesh11VectorValueIdEEESt14default_deleteISD_EEESaISH_ENSt8__detail10_Select1stESt8equal_toIS5_ESt4hashIS5_ENSJ_18_Mod_range_hashingENSJ_20_Default_ranged_hashENSJ_20_Prime_rehash_policyENSJ_17_Hashtable_traitsILb1ELb0ELb1EEEE21_M_deallocate_bucketsEv
FNDA:0,_ZNSt10_HashtableINSt7__cxx1112basic_stringIcSt11char_traitsIcESaIcEEESt4pairIKS5_St10unique_ptrI10MooseArrayIN7libMesh11VectorValueIdEEESt14default_deleteISD_EEESaISH_ENSt8__detail10_Select1stESt8equal_toIS5_ESt4hashIS5_ENSJ_18_Mod_range_hashingENSJ_20_Default_ranged_hashENSJ_20_Prime_rehash_policyENSJ_17_Hashtable_traitsILb1ELb0ELb1EEEE21_M_deallocate_bucketsEv
FN:456,_ZNSt10_HashtableINSt7__cxx1112basic_stringIcSt11char_traitsIcESaIcEEESt4pairIKS5_St10unique_ptrI10MooseArrayIN11MetaPhysicL10DualNumberIdNSA_28SemiDynamicSparseNumberArrayIdmNSA_8NWrapperILm64EEEEELb1EEEESt14default_deleteISH_EEESaISL_ENSt8__detail10_Select1stESt8equal_toIS5_ESt4hashIS5_ENSN_18_Mod_range_hashingENSN_20_Default_ranged_hashENSN_20_Prime_rehash_policyENSN_17_Hashtable_traitsILb1ELb0ELb1EEEE21_M_deallocate_bucketsEv
FNDA:0,_ZNSt10_HashtableINSt7__cxx1112basic_stringIcSt11char_traitsIcESaIcEEESt4pairIKS5_St10unique_ptrI10MooseArrayIN11MetaPhysicL10DualNumberIdNSA_28SemiDynamicSparseNumberArrayIdmNSA_8NWrapperILm64EEEEELb1EEEESt14default_deleteISH_EEESaISL_ENSt8__detail10_Select1stESt8equal_toIS5_ESt4hashIS5_ENSN_18_Mod_range_hashingENSN_20_Default_ranged_hashENSN_20_Prime_rehash_policyENSN_17_Hashtable_traitsILb1ELb0ELb1EEEE21_M_deallocate_bucketsEv
FN:1924,_ZNKSt10_HashtableImSt4pairIKmSt6vectorIS0_IbN11MetaPhysicL10DualNumberIdNS3_28SemiDynamicSparseNumberArrayIdmNS3_8NWrapperILm64EEEEELb1EEEESaISA_EEESaISD_ENSt8__detail10_Select1stESt8equal_toImESt4hashImENSF_18_Mod_range_hashingENSF_20_Default_ranged_hashENSF_20_Prime_rehash_policyENSF_17_Hashtable_traitsILb0ELb0ELb1EEEE19_M_find_before_nodeEmRS1_m
FNDA:0,_ZNKSt10_HashtableImSt4pairIKmSt6vectorIS0_IbN11MetaPhysicL10DualNumberIdNS3_28SemiDynamicSparseNumberArrayIdmNS3_8NWrapperILm64EEEEELb1EEEESaISA_EEESaISD_ENSt8__detail10_Select1stESt8equal_toImESt4hashImENSF_18_Mod_range_hashingENSF_20_Default_ranged_hashENSF_20_Prime_rehash_policyENSF_17_Hashtable_traitsILb0ELb0ELb1EEEE19_M_find_before_nodeEmRS1_m
FN:1924,_ZNKSt10_HashtableImSt4pairIKmSt6vectorIS2_IS0_IbN11MetaPhysicL10DualNumberIdNS3_28SemiDynamicSparseNumberArrayIdmNS3_8NWrapperILm64EEEEELb1EEEESaISA_EESaISC_EEESaISF_ENSt8__detail10_Select1stESt8equal_toImESt4hashImENSH_18_Mod_range_hashingENSH_20_Default_ranged_hashENSH_20_Prime_rehash_policyENSH_17_Hashtable_traitsILb0ELb0ELb1EEEE19_M_find_before_nodeEmRS1_m
FNDA:0,_ZNKSt10_HashtableImSt4pairIKmSt6vectorIS2_IS0_IbN11MetaPhysicL10DualNumberIdNS3_28SemiDynamicSparseNumberArrayIdmNS3_8NWrapperILm64EEEEELb1EEEESaISA_EESaISC_EEESaISF_ENSt8__detail10_Select1stESt8equal_toImESt4hashImENSH_18_Mod_range_hashingENSH_20_Default_ranged_hashENSH_20_Prime_rehash_policyENSH_17_Hashtable_traitsILb0ELb0ELb1EEEE19_M_find_before_nodeEmRS1_m
FN:1924,_ZNKSt10_HashtableImSt4pairIKmSt6vectorIS0_IbdESaIS3_EEESaIS6_ENSt8__detail10_Select1stESt8equal_toImESt4hashImENS8_18_Mod_range_hashingENS8_20_Default_ranged_hashENS8_20_Prime_rehash_policyENS8_17_Hashtable_traitsILb0ELb0ELb1EEEE19_M_find_before_nodeEmRS1_m
FNDA:0,_ZNKSt10_HashtableImSt4pairIKmSt6vectorIS0_IbdESaIS3_EEESaIS6_ENSt8__detail10_Select1stESt8equal_toImESt4hashImENS8_18_Mod_range_hashingENS8_20_Default_ranged_hashENS8_20_Prime_rehash_policyENS8_17_Hashtable_traitsILb0ELb0ELb1EEEE19_M_find_before_nodeEmRS1_m
FN:1924,_ZNKSt10_HashtableImSt4pairIKmSt6vectorIS2_IS0_IbdESaIS3_EESaIS5_EEESaIS8_ENSt8__detail10_Select1stESt8equal_toImESt4hashImENSA_18_Mod_range_hashingENSA_20_Default_ranged_hashENSA_20_Prime_rehash_policyENSA_17_Hashtable_traitsILb0ELb0ELb1EEEE19_M_find_before_nodeEmRS1_m
FNDA:0,_ZNKSt10_HashtableImSt4pairIKmSt6vectorIS2_IS0_IbdESaIS3_EESaIS5_EEESaIS8_ENSt8__detail10_Select1stESt8equal_toImESt4hashImENSA_18_Mod_range_hashingENSA_20_Default_ranged_hashENSA_20_Prime_rehash_policyENSA_17_Hashtable_traitsILb0ELb0ELb1EEEE19_M_find_before_nodeEmRS1_m
FN:1954,_ZNKSt10_HashtableIjjSaIjENSt8__detail9_IdentityESt8equal_toIjESt4hashIjENS1_18_Mod_range_hashingENS1_20_Default_ranged_hashENS1_20_Prime_rehash_policyENS1_17_Hashtable_traitsILb0ELb1ELb1EEEE22_M_find_before_node_trIjEEPNS1_15_Hash_node_baseEmRKT_m
FNDA:0,_ZNKSt10_HashtableIjjSaIjENSt8__detail9_IdentityESt8equal_toIjESt4hashIjENS1_18_Mod_range_hashingENS1_20_Default_ranged_hashENS1_20_Prime_rehash_policyENS1_17_Hashtable_traitsILb0ELb1ELb1EEEE22_M_find_before_node_trIjEEPNS1_15_Hash_node_baseEmRKT_m
FN:1983,_ZNSt10_HashtableImSt4pairIKmSt6vectorIS2_IS0_IbdESaIS3_EESaIS5_EEESaIS8_ENSt8__detail10_Select1stESt8equal_toImESt4hashImENSA_18_Mod_range_hashingENSA_20_Default_ranged_hashENSA_20_Prime_rehash_policyENSA_17_Hashtable_traitsILb0ELb0ELb1EEEE22_M_insert_bucket_beginEmPNSA_10_Hash_nodeIS8_Lb0EEE
FNDA:0,_ZNSt10_HashtableImSt4pairIKmSt6vectorIS2_IS0_IbdESaIS3_EESaIS5_EEESaIS8_ENSt8__detail10_Select1stESt8equal_toImESt4hashImENSA_18_Mod_range_hashingENSA_20_Default_ranged_hashENSA_20_Prime_rehash_policyENSA_17_Hashtable_traitsILb0ELb0ELb1EEEE22_M_insert_bucket_beginEmPNSA_10_Hash_nodeIS8_Lb0EEE
FN:1983,_ZNSt10_HashtableImSt4pairIKmSt6vectorIS0_IbN11MetaPhysicL10DualNumberIdNS3_28SemiDynamicSparseNumberArrayIdmNS3_8NWrapperILm64EEEEELb1EEEESaISA_EEESaISD_ENSt8__detail10_Select1stESt8equal_toImESt4hashImENSF_18_Mod_range_hashingENSF_20_Default_ranged_hashENSF_20_Prime_rehash_policyENSF_17_Hashtable_traitsILb0ELb0ELb1EEEE22_M_insert_bucket_beginEmPNSF_10_Hash_nodeISD_Lb0EEE
FNDA:0,_ZNSt10_HashtableImSt4pairIKmSt6vectorIS0_IbN11MetaPhysicL10DualNumberIdNS3_28SemiDynamicSparseNumberArrayIdmNS3_8NWrapperILm64EEEEELb1EEEESaISA_EEESaISD_ENSt8__detail10_Select1stESt8equal_toImESt4hashImENSF_18_Mod_range_hashingENSF_20_Default_ranged_hashENSF_20_Prime_rehash_policyENSF_17_Hashtable_traitsILb0ELb0ELb1EEEE22_M_insert_bucket_beginEmPNSF_10_Hash_nodeISD_Lb0EEE
FN:1983,_ZNSt10_HashtableIjjSaIjENSt8__detail9_IdentityESt8equal_toIjESt4hashIjENS1_18_Mod_range_hashingENS1_20_Default_ranged_hashENS1_20_Prime_rehash_policyENS1_17_Hashtable_traitsILb0ELb1ELb1EEEE22_M_insert_bucket_beginEmPNS1_10_Hash_nodeIjLb0EEE
FNDA:0,_ZNSt10_HashtableIjjSaIjENSt8__detail9_IdentityESt8equal_toIjESt4hashIjENS1_18_Mod_range_hashingENS1_20_Default_ranged_hashENS1_20_Prime_rehash_policyENS1_17_Hashtable_traitsILb0ELb1ELb1EEEE22_M_insert_bucket_beginEmPNS1_10_Hash_nodeIjLb0EEE
FN:1983,_ZNSt10_HashtableImSt4pairIKmSt6vectorIS2_IS0_IbN11MetaPhysicL10DualNumberIdNS3_28SemiDynamicSparseNumberArrayIdmNS3_8NWrapperILm64EEEEELb1EEEESaISA_EESaISC_EEESaISF_ENSt8__detail10_Select1stESt8equal_toImESt4hashImENSH_18_Mod_range_hashingENSH_20_Default_ranged_hashENSH_20_Prime_rehash_policyENSH_17_Hashtable_traitsILb0ELb0ELb1EEEE22_M_insert_bucket_beginEmPNSH_10_Hash_nodeISF_Lb0EEE
FNDA:0,_ZNSt10_HashtableImSt4pairIKmSt6vectorIS2_IS0_IbN11MetaPhysicL10DualNumberIdNS3_28SemiDynamicSparseNumberArrayIdmNS3_8NWrapperILm64EEEEELb1EEEESaISA_EESaISC_EEESaISF_ENSt8__detail10_Select1stESt8equal_toImESt4hashImENSH_18_Mod_range_hashingENSH_20_Default_ranged_hashENSH_20_Prime_rehash_policyENSH_17_Hashtable_traitsILb0ELb0ELb1EEEE22_M_insert_bucket_beginEmPNSH_10_Hash_nodeISF_Lb0EEE
FN:1983,_ZNSt10_HashtableImSt4pairIKmSt6vectorIS0_IbdESaIS3_EEESaIS6_ENSt8__detail10_Select1stESt8equal_toImESt4hashImENS8_18_Mod_range_hashingENS8_20_Default_ranged_hashENS8_20_Prime_rehash_policyENS8_17_Hashtable_traitsILb0ELb0ELb1EEEE22_M_insert_bucket_beginEmPNS8_10_Hash_nodeIS6_Lb0EEE
FNDA:0,_ZNSt10_HashtableImSt4pairIKmSt6vectorIS0_IbdESaIS3_EEESaIS6_ENSt8__detail10_Select1stESt8equal_toImESt4hashImENS8_18_Mod_range_hashingENS8_20_Default_ranged_hashENS8_20_Prime_rehash_policyENS8_17_Hashtable_traitsILb0ELb0ELb1EEEE22_M_insert_bucket_beginEmPNS8_10_Hash_nodeIS6_Lb0EEE
FN:2142,_ZNSt10_HashtableImSt4pairIKmSt6vectorIS0_IbdESaIS3_EEESaIS6_ENSt8__detail10_Select1stESt8equal_toImESt4hashImENS8_18_Mod_range_hashingENS8_20_Default_ranged_hashENS8_20_Prime_rehash_policyENS8_17_Hashtable_traitsILb0ELb0ELb1EEEE21_M_insert_unique_nodeEmmPNS8_10_Hash_nodeIS6_Lb0EEEm
FNDA:0,_ZNSt10_HashtableImSt4pairIKmSt6vectorIS0_IbdESaIS3_EEESaIS6_ENSt8__detail10_Select1stESt8equal_toImESt4hashImENS8_18_Mod_range_hashingENS8_20_Default_ranged_hashENS8_20_Prime_rehash_policyENS8_17_Hashtable_traitsILb0ELb0ELb1EEEE21_M_insert_unique_nodeEmmPNS8_10_Hash_nodeIS6_Lb0EEEm
FN:2142,_ZNSt10_HashtableIjjSaIjENSt8__detail9_IdentityESt8equal_toIjESt4hashIjENS1_18_Mod_range_hashingENS1_20_Default_ranged_hashENS1_20_Prime_rehash_policyENS1_17_Hashtable_traitsILb0ELb1ELb1EEEE21_M_insert_unique_nodeEmmPNS1_10_Hash_nodeIjLb0EEEm
FNDA:0,_ZNSt10_HashtableIjjSaIjENSt8__detail9_IdentityESt8equal_toIjESt4hashIjENS1_18_Mod_range_hashingENS1_20_Default_ranged_hashENS1_20_Prime_rehash_policyENS1_17_Hashtable_traitsILb0ELb1ELb1EEEE21_M_insert_unique_nodeEmmPNS1_10_Hash_nodeIjLb0EEEm
FN:2142,_ZNSt10_HashtableImSt4pairIKmSt6vectorIS0_IbN11MetaPhysicL10DualNumberIdNS3_28SemiDynamicSparseNumberArrayIdmNS3_8NWrapperILm64EEEEELb1EEEESaISA_EEESaISD_ENSt8__detail10_Select1stESt8equal_toImESt4hashImENSF_18_Mod_range_hashingENSF_20_Default_ranged_hashENSF_20_Prime_rehash_policyENSF_17_Hashtable_traitsILb0ELb0ELb1EEEE21_M_insert_unique_nodeEmmPNSF_10_Hash_nodeISD_Lb0EEEm
FNDA:0,_ZNSt10_HashtableImSt4pairIKmSt6vectorIS0_IbN11MetaPhysicL10DualNumberIdNS3_28SemiDynamicSparseNumberArrayIdmNS3_8NWrapperILm64EEEEELb1EEEESaISA_EEESaISD_ENSt8__detail10_Select1stESt8equal_toImESt4hashImENSF_18_Mod_range_hashingENSF_20_Default_ranged_hashENSF_20_Prime_rehash_policyENSF_17_Hashtable_traitsILb0ELb0ELb1EEEE21_M_insert_unique_nodeEmmPNSF_10_Hash_nodeISD_Lb0EEEm
FN:2142,_ZNSt10_HashtableImSt4pairIKmSt6vectorIS2_IS0_IbN11MetaPhysicL10DualNumberIdNS3_28SemiDynamicSparseNumberArrayIdmNS3_8NWrapperILm64EEEEELb1EEEESaISA_EESaISC_EEESaISF_ENSt8__detail10_Select1stESt8equal_toImESt4hashImENSH_18_Mod_range_hashingENSH_20_Default_ranged_hashENSH_20_Prime_rehash_policyENSH_17_Hashtable_traitsILb0ELb0ELb1EEEE21_M_insert_unique_nodeEmmPNSH_10_Hash_nodeISF_Lb0EEEm
FNDA:0,_ZNSt10_HashtableImSt4pairIKmSt6vectorIS2_IS0_IbN11MetaPhysicL10DualNumberIdNS3_28SemiDynamicSparseNumberArrayIdmNS3_8NWrapperILm64EEEEELb1EEEESaISA_EESaISC_EEESaISF_ENSt8__detail10_Select1stESt8equal_toImESt4hashImENSH_18_Mod_range_hashingENSH_20_Default_ranged_hashENSH_20_Prime_rehash_policyENSH_17_Hashtable_traitsILb0ELb0ELb1EEEE21_M_insert_unique_nodeEmmPNSH_10_Hash_nodeISF_Lb0EEEm
FN:2142,_ZNSt10_HashtableImSt4pairIKmSt6vectorIS2_IS0_IbdESaIS3_EESaIS5_EEESaIS8_ENSt8__detail10_Select1stESt8equal_toImESt4hashImENSA_18_Mod_range_hashingENSA_20_Default_ranged_hashENSA_20_Prime_rehash_policyENSA_17_Hashtable_traitsILb0ELb0ELb1EEEE21_M_insert_unique_nodeEmmPNSA_10_Hash_nodeIS8_Lb0EEEm
FNDA:0,_ZNSt10_HashtableImSt4pairIKmSt6vectorIS2_IS0_IbdESaIS3_EESaIS5_EEESaIS8_ENSt8__detail10_Select1stESt8equal_toImESt4hashImENSA_18_Mod_range_hashingENSA_20_Default_ranged_hashENSA_20_Prime_rehash_policyENSA_17_Hashtable_traitsILb0ELb0ELb1EEEE21_M_insert_unique_nodeEmmPNSA_10_Hash_nodeIS8_Lb0EEEm
FN:2229,_ZNSt10_HashtableIjjSaIjENSt8__detail9_IdentityESt8equal_toIjESt4hashIjENS1_18_Mod_range_hashingENS1_20_Default_ranged_hashENS1_20_Prime_rehash_policyENS1_17_Hashtable_traitsILb0ELb1ELb1EEEE16_M_insert_uniqueIjjNS1_10_AllocNodeISaINS1_10_Hash_nodeIjLb0EEEEEEEESt4pairINS1_14_Node_iteratorIjLb1ELb0EEEbEOT_OT0_RKT1_
FNDA:0,_ZNSt10_HashtableIjjSaIjENSt8__detail9_IdentityESt8equal_toIjESt4hashIjENS1_18_Mod_range_hashingENS1_20_Default_ranged_hashENS1_20_Prime_rehash_policyENS1_17_Hashtable_traitsILb0ELb1ELb1EEEE16_M_insert_uniqueIjjNS1_10_AllocNodeISaINS1_10_Hash_nodeIjLb0EEEEEEEESt4pairINS1_14_Node_iteratorIjLb1ELb0EEEbEOT_OT0_RKT1_
FN:2496,_ZNSt10_HashtableINSt7__cxx1112basic_stringIcSt11char_traitsIcESaIcEEESt4pairIKS5_St10unique_ptrI10MooseArrayIN7libMesh11VectorValueIN11MetaPhysicL10DualNumberIdNSC_28SemiDynamicSparseNumberArrayIdmNSC_8NWrapperILm64EEEEELb1EEEEEESt14default_deleteISK_EEESaISO_ENSt8__detail10_Select1stESt8equal_toIS5_ESt4hashIS5_ENSQ_18_Mod_range_hashingENSQ_20_Default_ranged_hashENSQ_20_Prime_rehash_policyENSQ_17_Hashtable_traitsILb1ELb0ELb1EEEE5clearEv
FNDA:0,_ZNSt10_HashtableINSt7__cxx1112basic_stringIcSt11char_traitsIcESaIcEEESt4pairIKS5_St10unique_ptrI10MooseArrayIN7libMesh11VectorValueIN11MetaPhysicL10DualNumberIdNSC_28SemiDynamicSparseNumberArrayIdmNSC_8NWrapperILm64EEEEELb1EEEEEESt14default_deleteISK_EEESaISO_ENSt8__detail10_Select1stESt8equal_toIS5_ESt4hashIS5_ENSQ_18_Mod_range_hashingENSQ_20_Default_ranged_hashENSQ_20_Prime_rehash_policyENSQ_17_Hashtable_traitsILb1ELb0ELb1EEEE5clearEv
FN:2496,_ZNSt10_HashtableINSt7__cxx1112basic_stringIcSt11char_traitsIcESaIcEEESt4pairIKS5_St6vectorIjSaIjEEESaISB_ENSt8__detail10_Select1stESt8equal_toIS5_ESt4hashIS5_ENSD_18_Mod_range_hashingENSD_20_Default_ranged_hashENSD_20_Prime_rehash_policyENSD_17_Hashtable_traitsILb1ELb0ELb1EEEE5clearEv
FNDA:0,_ZNSt10_HashtableINSt7__cxx1112basic_stringIcSt11char_traitsIcESaIcEEESt4pairIKS5_St6vectorIjSaIjEEESaISB_ENSt8__detail10_Select1stESt8equal_toIS5_ESt4hashIS5_ENSD_18_Mod_range_hashingENSD_20_Default_ranged_hashENSD_20_Prime_rehash_policyENSD_17_Hashtable_traitsILb1ELb0ELb1EEEE5clearEv
FN:2496,_ZNSt10_HashtableINSt7__cxx1112basic_stringIcSt11char_traitsIcESaIcEEESt4pairIKS5_St10unique_ptrI10MooseArrayIN11MetaPhysicL10DualNumberIdNSA_28SemiDynamicSparseNumberArrayIdmNSA_8NWrapperILm64EEEEELb1EEEESt14default_deleteISH_EEESaISL_ENSt8__detail10_Select1stESt8equal_toIS5_ESt4hashIS5_ENSN_18_Mod_range_hashingENSN_20_Default_ranged_hashENSN_20_Prime_rehash_policyENSN_17_Hashtable_traitsILb1ELb0ELb1EEEE5clearEv
FNDA:0,_ZNSt10_HashtableINSt7__cxx1112basic_stringIcSt11char_traitsIcESaIcEEESt4pairIKS5_St10unique_ptrI10MooseArrayIN11MetaPhysicL10DualNumberIdNSA_28SemiDynamicSparseNumberArrayIdmNSA_8NWrapperILm64EEEEELb1EEEESt14default_deleteISH_EEESaISL_ENSt8__detail10_Select1stESt8equal_toIS5_ESt4hashIS5_ENSN_18_Mod_range_hashingENSN_20_Default_ranged_hashENSN_20_Prime_rehash_policyENSN_17_Hashtable_traitsILb1ELb0ELb1EEEE5clearEv
FN:2496,_ZNSt10_HashtableINSt7__cxx1112basic_stringIcSt11char_traitsIcESaIcEEESt4pairIKS5_St10unique_ptrI10MooseArrayIN7libMesh11VectorValueIdEEESt14default_deleteISD_EEESaISH_ENSt8__detail10_Select1stESt8equal_toIS5_ESt4hashIS5_ENSJ_18_Mod_range_hashingENSJ_20_Default_ranged_hashENSJ_20_Prime_rehash_policyENSJ_17_Hashtable_traitsILb1ELb0ELb1EEEE5clearEv
FNDA:0,_ZNSt10_HashtableINSt7__cxx1112basic_stringIcSt11char_traitsIcESaIcEEESt4pairIKS5_St10unique_ptrI10MooseArrayIN7libMesh11VectorValueIdEEESt14default_deleteISD_EEESaISH_ENSt8__detail10_Select1stESt8equal_toIS5_ESt4hashIS5_ENSJ_18_Mod_range_hashingENSJ_20_Default_ranged_hashENSJ_20_Prime_rehash_policyENSJ_17_Hashtable_traitsILb1ELb0ELb1EEEE5clearEv
FN:2496,_ZNSt10_HashtableINSt7__cxx1112basic_stringIcSt11char_traitsIcESaIcEEESt4pairIKS5_St6vectorIP19MooseVariableScalarSaISA_EEESaISD_ENSt8__detail10_Select1stESt8equal_toIS5_ESt4hashIS5_ENSF_18_Mod_range_hashingENSF_20_Default_ranged_hashENSF_20_Prime_rehash_policyENSF_17_Hashtable_traitsILb1ELb0ELb1EEEE5clearEv
FNDA:0,_ZNSt10_HashtableINSt7__cxx1112basic_stringIcSt11char_traitsIcESaIcEEESt4pairIKS5_St6vectorIP19MooseVariableScalarSaISA_EEESaISD_ENSt8__detail10_Select1stESt8equal_toIS5_ESt4hashIS5_ENSF_18_Mod_range_hashingENSF_20_Default_ranged_hashENSF_20_Prime_rehash_policyENSF_17_Hashtable_traitsILb1ELb0ELb1EEEE5clearEv
FN:2496,_ZNSt10_HashtableINSt7__cxx1112basic_stringIcSt11char_traitsIcESaIcEEESt4pairIKS5_St10unique_ptrI10MooseArrayIN5Eigen6MatrixIdLin1ELi1ELi0ELin1ELi1EEEESt14default_deleteISD_EEESaISH_ENSt8__detail10_Select1stESt8equal_toIS5_ESt4hashIS5_ENSJ_18_Mod_range_hashingENSJ_20_Default_ranged_hashENSJ_20_Prime_rehash_policyENSJ_17_Hashtable_traitsILb1ELb0ELb1EEEE5clearEv
FNDA:0,_ZNSt10_HashtableINSt7__cxx1112basic_stringIcSt11char_traitsIcESaIcEEESt4pairIKS5_St10unique_ptrI10MooseArrayIN5Eigen6MatrixIdLin1ELi1ELi0ELin1ELi1EEEESt14default_deleteISD_EEESaISH_ENSt8__detail10_Select1stESt8equal_toIS5_ESt4hashIS5_ENSJ_18_Mod_range_hashingENSJ_20_Default_ranged_hashENSJ_20_Prime_rehash_policyENSJ_17_Hashtable_traitsILb1ELb0ELb1EEEE5clearEv
FN:2496,_ZNSt10_HashtableINSt7__cxx1112basic_stringIcSt11char_traitsIcESaIcEEESt4pairIKS5_St6vectorISt10unique_ptrI10MooseArrayIdESt14default_deleteISB_EESaISE_EEESaISH_ENSt8__detail10_Select1stESt8equal_toIS5_ESt4hashIS5_ENSJ_18_Mod_range_hashingENSJ_20_Default_ranged_hashENSJ_20_Prime_rehash_policyENSJ_17_Hashtable_traitsILb1ELb0ELb1EEEE5clearEv
FNDA:0,_ZNSt10_HashtableINSt7__cxx1112basic_stringIcSt11char_traitsIcESaIcEEESt4pairIKS5_St6vectorISt10unique_ptrI10MooseArrayIdESt14default_deleteISB_EESaISE_EEESaISH_ENSt8__detail10_Select1stESt8equal_toIS5_ESt4hashIS5_ENSJ_18_Mod_range_hashingENSJ_20_Default_ranged_hashENSJ_20_Prime_rehash_policyENSJ_17_Hashtable_traitsILb1ELb0ELb1EEEE5clearEv
FN:2496,_ZNSt10_HashtableINSt7__cxx1112basic_stringIcSt11char_traitsIcESaIcEEESt4pairIKS5_St10unique_ptrI10MooseArrayIdESt14default_deleteISA_EEESaISE_ENSt8__detail10_Select1stESt8equal_toIS5_ESt4hashIS5_ENSG_18_Mod_range_hashingENSG_20_Default_ranged_hashENSG_20_Prime_rehash_policyENSG_17_Hashtable_traitsILb1ELb0ELb1EEEE5clearEv
FNDA:0,_ZNSt10_HashtableINSt7__cxx1112basic_stringIcSt11char_traitsIcESaIcEEESt4pairIKS5_St10unique_ptrI10MooseArrayIdESt14default_deleteISA_EEESaISE_ENSt8__detail10_Select1stESt8equal_toIS5_ESt4hashIS5_ENSG_18_Mod_range_hashingENSG_20_Default_ranged_hashENSG_20_Prime_rehash_policyENSG_17_Hashtable_traitsILb1ELb0ELb1EEEE5clearEv
FN:2496,_ZNSt10_HashtableINSt7__cxx1112basic_stringIcSt11char_traitsIcESaIcEEESt4pairIKS5_St6vectorIP22MooseVariableFieldBaseSaISA_EEESaISD_ENSt8__detail10_Select1stESt8equal_toIS5_ESt4hashIS5_ENSF_18_Mod_range_hashingENSF_20_Default_ranged_hashENSF_20_Prime_rehash_policyENSF_17_Hashtable_traitsILb1ELb0ELb1EEEE5clearEv
FNDA:0,_ZNSt10_HashtableINSt7__cxx1112basic_stringIcSt11char_traitsIcESaIcEEESt4pairIKS5_St6vectorIP22MooseVariableFieldBaseSaISA_EEESaISD_ENSt8__detail10_Select1stESt8equal_toIS5_ESt4hashIS5_ENSF_18_Mod_range_hashingENSF_20_Default_ranged_hashENSF_20_Prime_rehash_policyENSF_17_Hashtable_traitsILb1ELb0ELb1EEEE5clearEv
FN:2496,_ZNSt10_HashtableIssSaIsENSt8__detail9_IdentityESt8equal_toIsESt4hashIsENS1_18_Mod_range_hashingENS1_20_Default_ranged_hashENS1_20_Prime_rehash_policyENS1_17_Hashtable_traitsILb0ELb1ELb1EEEE5clearEv
FNDA:0,_ZNSt10_HashtableIssSaIsENSt8__detail9_IdentityESt8equal_toIsESt4hashIsENS1_18_Mod_range_hashingENS1_20_Default_ranged_hashENS1_20_Prime_rehash_policyENS1_17_Hashtable_traitsILb0ELb1ELb1EEEE5clearEv
FN:2496,_ZNSt10_HashtableINSt7__cxx1112basic_stringIcSt11char_traitsIcESaIcEEESt4pairIKS5_S5_ESaIS8_ENSt8__detail10_Select1stESt8equal_toIS5_ESt4hashIS5_ENSA_18_Mod_range_hashingENSA_20_Default_ranged_hashENSA_20_Prime_rehash_policyENSA_17_Hashtable_traitsILb1ELb0ELb1EEEE5clearEv
FNDA:0,_ZNSt10_HashtableINSt7__cxx1112basic_stringIcSt11char_traitsIcESaIcEEESt4pairIKS5_S5_ESaIS8_ENSt8__detail10_Select1stESt8equal_toIS5_ESt4hashIS5_ENSA_18_Mod_range_hashingENSA_20_Default_ranged_hashENSA_20_Prime_rehash_policyENSA_17_Hashtable_traitsILb1ELb0ELb1EEEE5clearEv
FN:2496,_ZNSt10_HashtableImSt4pairIKmSt6vectorIS2_IS0_IbN11MetaPhysicL10DualNumberIdNS3_28SemiDynamicSparseNumberArrayIdmNS3_8NWrapperILm64EEEEELb1EEEESaISA_EESaISC_EEESaISF_ENSt8__detail10_Select1stESt8equal_toImESt4hashImENSH_18_Mod_range_hashingENSH_20_Default_ranged_hashENSH_20_Prime_rehash_policyENSH_17_Hashtable_traitsILb0ELb0ELb1EEEE5clearEv
FNDA:0,_ZNSt10_HashtableImSt4pairIKmSt6vectorIS2_IS0_IbN11MetaPhysicL10DualNumberIdNS3_28SemiDynamicSparseNumberArrayIdmNS3_8NWrapperILm64EEEEELb1EEEESaISA_EESaISC_EEESaISF_ENSt8__detail10_Select1stESt8equal_toImESt4hashImENSH_18_Mod_range_hashingENSH_20_Default_ranged_hashENSH_20_Prime_rehash_policyENSH_17_Hashtable_traitsILb0ELb0ELb1EEEE5clearEv
FN:2496,_ZNSt10_HashtableImSt4pairIKmSt6vectorIS0_IbN11MetaPhysicL10DualNumberIdNS3_28SemiDynamicSparseNumberArrayIdmNS3_8NWrapperILm64EEEEELb1EEEESaISA_EEESaISD_ENSt8__detail10_Select1stESt8equal_toImESt4hashImENSF_18_Mod_range_hashingENSF_20_Default_ranged_hashENSF_20_Prime_rehash_policyENSF_17_Hashtable_traitsILb0ELb0ELb1EEEE5clearEv
FNDA:0,_ZNSt10_HashtableImSt4pairIKmSt6vectorIS0_IbN11MetaPhysicL10DualNumberIdNS3_28SemiDynamicSparseNumberArrayIdmNS3_8NWrapperILm64EEEEELb1EEEESaISA_EEESaISD_ENSt8__detail10_Select1stESt8equal_toImESt4hashImENSF_18_Mod_range_hashingENSF_20_Default_ranged_hashENSF_20_Prime_rehash_policyENSF_17_Hashtable_traitsILb0ELb0ELb1EEEE5clearEv
FN:2496,_ZNSt10_HashtableImSt4pairIKmSt6vectorIS2_IS0_IbdESaIS3_EESaIS5_EEESaIS8_ENSt8__detail10_Select1stESt8equal_toImESt4hashImENSA_18_Mod_range_hashingENSA_20_Default_ranged_hashENSA_20_Prime_rehash_policyENSA_17_Hashtable_traitsILb0ELb0ELb1EEEE5clearEv
FNDA:0,_ZNSt10_HashtableImSt4pairIKmSt6vectorIS2_IS0_IbdESaIS3_EESaIS5_EEESaIS8_ENSt8__detail10_Select1stESt8equal_toImESt4hashImENSA_18_Mod_range_hashingENSA_20_Default_ranged_hashENSA_20_Prime_rehash_policyENSA_17_Hashtable_traitsILb0ELb0ELb1EEEE5clearEv
FN:2496,_ZNSt10_HashtableImSt4pairIKmSt6vectorIS0_IbdESaIS3_EEESaIS6_ENSt8__detail10_Select1stESt8equal_toImESt4hashImENS8_18_Mod_range_hashingENS8_20_Default_ranged_hashENS8_20_Prime_rehash_policyENS8_17_Hashtable_traitsILb0ELb0ELb1EEEE5clearEv
FNDA:0,_ZNSt10_HashtableImSt4pairIKmSt6vectorIS0_IbdESaIS3_EEESaIS6_ENSt8__detail10_Select1stESt8equal_toImESt4hashImENS8_18_Mod_range_hashingENS8_20_Default_ranged_hashENS8_20_Prime_rehash_policyENS8_17_Hashtable_traitsILb0ELb0ELb1EEEE5clearEv
FN:2496,_ZNSt10_HashtableIjjSaIjENSt8__detail9_IdentityESt8equal_toIjESt4hashIjENS1_18_Mod_range_hashingENS1_20_Default_ranged_hashENS1_20_Prime_rehash_policyENS1_17_Hashtable_traitsILb0ELb1ELb1EEEE5clearEv
FNDA:0,_ZNSt10_HashtableIjjSaIjENSt8__detail9_IdentityESt8equal_toIjESt4hashIjENS1_18_Mod_range_hashingENS1_20_Default_ranged_hashENS1_20_Prime_rehash_policyENS1_17_Hashtable_traitsILb0ELb1ELb1EEEE5clearEv
FN:2535,_ZNSt10_HashtableIjjSaIjENSt8__detail9_IdentityESt8equal_toIjESt4hashIjENS1_18_Mod_range_hashingENS1_20_Default_ranged_hashENS1_20_Prime_rehash_policyENS1_17_Hashtable_traitsILb0ELb1ELb1EEEE9_M_rehashEmRKm
FNDA:0,_ZNSt10_HashtableIjjSaIjENSt8__detail9_IdentityESt8equal_toIjESt4hashIjENS1_18_Mod_range_hashingENS1_20_Default_ranged_hashENS1_20_Prime_rehash_policyENS1_17_Hashtable_traitsILb0ELb1ELb1EEEE9_M_rehashEmRKm
FN:2535,_ZNSt10_HashtableImSt4pairIKmSt6vectorIS0_IbN11MetaPhysicL10DualNumberIdNS3_28SemiDynamicSparseNumberArrayIdmNS3_8NWrapperILm64EEEEELb1EEEESaISA_EEESaISD_ENSt8__detail10_Select1stESt8equal_toImESt4hashImENSF_18_Mod_range_hashingENSF_20_Default_ranged_hashENSF_20_Prime_rehash_policyENSF_17_Hashtable_traitsILb0ELb0ELb1EEEE9_M_rehashEmRS1_
FNDA:0,_ZNSt10_HashtableImSt4pairIKmSt6vectorIS0_IbN11MetaPhysicL10DualNumberIdNS3_28SemiDynamicSparseNumberArrayIdmNS3_8NWrapperILm64EEEEELb1EEEESaISA_EEESaISD_ENSt8__detail10_Select1stESt8equal_toImESt4hashImENSF_18_Mod_range_hashingENSF_20_Default_ranged_hashENSF_20_Prime_rehash_policyENSF_17_Hashtable_traitsILb0ELb0ELb1EEEE9_M_rehashEmRS1_
FN:2535,_ZNSt10_HashtableImSt4pairIKmSt6vectorIS2_IS0_IbN11MetaPhysicL10DualNumberIdNS3_28SemiDynamicSparseNumberArrayIdmNS3_8NWrapperILm64EEEEELb1EEEESaISA_EESaISC_EEESaISF_ENSt8__detail10_Select1stESt8equal_toImESt4hashImENSH_18_Mod_range_hashingENSH_20_Default_ranged_hashENSH_20_Prime_rehash_policyENSH_17_Hashtable_traitsILb0ELb0ELb1EEEE9_M_rehashEmRS1_
FNDA:0,_ZNSt10_HashtableImSt4pairIKmSt6vectorIS2_IS0_IbN11MetaPhysicL10DualNumberIdNS3_28SemiDynamicSparseNumberArrayIdmNS3_8NWrapperILm64EEEEELb1EEEESaISA_EESaISC_EEESaISF_ENSt8__detail10_Select1stESt8equal_toImESt4hashImENSH_18_Mod_range_hashingENSH_20_Default_ranged_hashENSH_20_Prime_rehash_policyENSH_17_Hashtable_traitsILb0ELb0ELb1EEEE9_M_rehashEmRS1_
FN:2535,_ZNSt10_HashtableImSt4pairIKmSt6vectorIS0_IbdESaIS3_EEESaIS6_ENSt8__detail10_Select1stESt8equal_toImESt4hashImENS8_18_Mod_range_hashingENS8_20_Default_ranged_hashENS8_20_Prime_rehash_policyENS8_17_Hashtable_traitsILb0ELb0ELb1EEEE9_M_rehashEmRS1_
FNDA:0,_ZNSt10_HashtableImSt4pairIKmSt6vectorIS0_IbdESaIS3_EEESaIS6_ENSt8__detail10_Select1stESt8equal_toImESt4hashImENS8_18_Mod_range_hashingENS8_20_Default_ranged_hashENS8_20_Prime_rehash_policyENS8_17_Hashtable_traitsILb0ELb0ELb1EEEE9_M_rehashEmRS1_
FN:2535,_ZNSt10_HashtableImSt4pairIKmSt6vectorIS2_IS0_IbdESaIS3_EESaIS5_EEESaIS8_ENSt8__detail10_Select1stESt8equal_toImESt4hashImENSA_18_Mod_range_hashingENSA_20_Default_ranged_hashENSA_20_Prime_rehash_policyENSA_17_Hashtable_traitsILb0ELb0ELb1EEEE9_M_rehashEmRS1_
FNDA:0,_ZNSt10_HashtableImSt4pairIKmSt6vectorIS2_IS0_IbdESaIS3_EESaIS5_EEESaIS8_ENSt8__detail10_Select1stESt8equal_toImESt4hashImENSA_18_Mod_range_hashingENSA_20_Default_ranged_hashENSA_20_Prime_rehash_policyENSA_17_Hashtable_traitsILb0ELb0ELb1EEEE9_M_rehashEmRS1_
FN:2558,_ZNSt10_HashtableIjjSaIjENSt8__detail9_IdentityESt8equal_toIjESt4hashIjENS1_18_Mod_range_hashingENS1_20_Default_ranged_hashENS1_20_Prime_rehash_policyENS1_17_Hashtable_traitsILb0ELb1ELb1EEEE13_M_rehash_auxEmSt17integral_constantIbLb1EE
FNDA:0,_ZNSt10_HashtableIjjSaIjENSt8__detail9_IdentityESt8equal_toIjESt4hashIjENS1_18_Mod_range_hashingENS1_20_Default_ranged_hashENS1_20_Prime_rehash_policyENS1_17_Hashtable_traitsILb0ELb1ELb1EEEE13_M_rehash_auxEmSt17integral_constantIbLb1EE
FN:2558,_ZNSt10_HashtableImSt4pairIKmSt6vectorIS0_IbN11MetaPhysicL10DualNumberIdNS3_28SemiDynamicSparseNumberArrayIdmNS3_8NWrapperILm64EEEEELb1EEEESaISA_EEESaISD_ENSt8__detail10_Select1stESt8equal_toImESt4hashImENSF_18_Mod_range_hashingENSF_20_Default_ranged_hashENSF_20_Prime_rehash_policyENSF_17_Hashtable_traitsILb0ELb0ELb1EEEE13_M_rehash_auxEmSt17integral_constantIbLb1EE
FNDA:0,_ZNSt10_HashtableImSt4pairIKmSt6vectorIS0_IbN11MetaPhysicL10DualNumberIdNS3_28SemiDynamicSparseNumberArrayIdmNS3_8NWrapperILm64EEEEELb1EEEESaISA_EEESaISD_ENSt8__detail10_Select1stESt8equal_toImESt4hashImENSF_18_Mod_range_hashingENSF_20_Default_ranged_hashENSF_20_Prime_rehash_policyENSF_17_Hashtable_traitsILb0ELb0ELb1EEEE13_M_rehash_auxEmSt17integral_constantIbLb1EE
FN:2558,_ZNSt10_HashtableImSt4pairIKmSt6vectorIS2_IS0_IbN11MetaPhysicL10DualNumberIdNS3_28SemiDynamicSparseNumberArrayIdmNS3_8NWrapperILm64EEEEELb1EEEESaISA_EESaISC_EEESaISF_ENSt8__detail10_Select1stESt8equal_toImESt4hashImENSH_18_Mod_range_hashingENSH_20_Default_ranged_hashENSH_20_Prime_rehash_policyENSH_17_Hashtable_traitsILb0ELb0ELb1EEEE13_M_rehash_auxEmSt17integral_constantIbLb1EE
FNDA:0,_ZNSt10_HashtableImSt4pairIKmSt6vectorIS2_IS0_IbN11MetaPhysicL10DualNumberIdNS3_28SemiDynamicSparseNumberArrayIdmNS3_8NWrapperILm64EEEEELb1EEEESaISA_EESaISC_EEESaISF_ENSt8__detail10_Select1stESt8equal_toImESt4hashImENSH_18_Mod_range_hashingENSH_20_Default_ranged_hashENSH_20_Prime_rehash_policyENSH_17_Hashtable_traitsILb0ELb0ELb1EEEE13_M_rehash_auxEmSt17integral_constantIbLb1EE
FN:2558,_ZNSt10_HashtableImSt4pairIKmSt6vectorIS0_IbdESaIS3_EEESaIS6_ENSt8__detail10_Select1stESt8equal_toImESt4hashImENS8_18_Mod_range_hashingENS8_20_Default_ranged_hashENS8_20_Prime_rehash_policyENS8_17_Hashtable_traitsILb0ELb0ELb1EEEE13_M_rehash_auxEmSt17integral_constantIbLb1EE
FNDA:0,_ZNSt10_HashtableImSt4pairIKmSt6vectorIS0_IbdESaIS3_EEESaIS6_ENSt8__detail10_Select1stESt8equal_toImESt4hashImENS8_18_Mod_range_hashingENS8_20_Default_ranged_hashENS8_20_Prime_rehash_policyENS8_17_Hashtable_traitsILb0ELb0ELb1EEEE13_M_rehash_auxEmSt17integral_constantIbLb1EE
FN:2558,_ZNSt10_HashtableImSt4pairIKmSt6vectorIS2_IS0_IbdESaIS3_EESaIS5_EEESaIS8_ENSt8__detail10_Select1stESt8equal_toImESt4hashImENSA_18_Mod_range_hashingENSA_20_Default_ranged_hashENSA_20_Prime_rehash_policyENSA_17_Hashtable_traitsILb0ELb0ELb1EEEE13_M_rehash_auxEmSt17integral_constantIbLb1EE
FNDA:0,_ZNSt10_HashtableImSt4pairIKmSt6vectorIS2_IS0_IbdESaIS3_EESaIS5_EEESaIS8_ENSt8__detail10_Select1stESt8equal_toImESt4hashImENSA_18_Mod_range_hashingENSA_20_Default_ranged_hashENSA_20_Prime_rehash_policyENSA_17_Hashtable_traitsILb0ELb0ELb1EEEE13_M_rehash_auxEmSt17integral_constantIbLb1EE
FNF:63
FNH:1
DA:301,0
DA:302,0
DA:306,0
DA:307,0
DA:308,0
DA:312,0
DA:312,0
DA:312,0
DA:312,0
DA:312,0
DA:418,6
DA:437,0
DA:439,0
DA:440,0
DA:443,0
DA:449,6
DA:456,0
DA:457,0
DA:456,0
DA:457,0
DA:456,0
DA:457,0
DA:456,0
DA:457,0
DA:456,0
DA:457,0
DA:456,6
DA:457,6
DA:456,0
DA:457,0
DA:456,0
DA:457,0
DA:456,0
DA:457,0
DA:456,0
DA:457,0
DA:456,0
DA:457,0
DA:456,0
DA:457,0
DA:456,0
DA:457,0
DA:456,0
DA:457,0
DA:456,0
DA:457,0
DA:456,0
DA:457,0
DA:466,0
DA:649,0
DA:794,0
DA:798,0
DA:816,0
DA:817,0
DA:818,0
DA:827,0
DA:828,0
DA:829,0
DA:906,0
DA:1584,0
DA:1585,0
DA:1924,0
DA:1930,0
DA:1931,0
DA:1934,0
DA:1938,0
DA:1940,0
DA:1924,0
DA:1930,0
DA:1931,0
DA:1934,0
DA:1938,0
DA:1940,0
DA:1924,0
DA:1930,0
DA:1931,0
DA:1934,0
DA:1938,0
DA:1940,0
DA:1924,0
DA:1930,0
DA:1931,0
DA:1934,0
DA:1938,0
DA:1940,0
DA:1954,0
DA:1960,0
DA:1961,0
DA:1964,0
DA:1968,0
DA:1970,0
DA:1983,0
DA:1987,0
DA:1991,0
DA:1992,0
DA:1999,0
DA:2000,0
DA:2002,0
DA:2005,0
DA:2007,0
DA:2009,0
DA:1983,0
DA:1987,0
DA:1991,0
DA:1992,0
DA:1999,0
DA:2000,0
DA:2002,0
DA:2005,0
DA:2007,0
DA:2009,0
DA:1983,0
DA:1987,0
DA:1991,0
DA:1992,0
DA:1999,0
DA:2000,0
DA:2002,0
DA:2005,0
DA:2007,0
DA:2009,0
DA:1983,0
DA:1987,0
DA:1991,0
DA:1992,0
DA:1999,0
DA:2000,0
DA:2002,0
DA:2005,0
DA:2007,0
DA:2009,0
DA:1983,0
DA:1987,0
DA:1991,0
DA:1992,0
DA:1999,0
DA:2000,0
DA:2002,0
DA:2005,0
DA:2007,0
DA:2009,0
DA:2142,0
DA:2148,0
DA:2150,0
DA:2153,0
DA:2155,0
DA:2162,0
DA:2163,0
DA:2164,0
DA:2142,0
DA:2148,0
DA:2150,0
DA:2153,0
DA:2155,0
DA:2162,0
DA:2163,0
DA:2164,0
DA:2142,0
DA:2148,0
DA:2150,0
DA:2153,0
DA:2155,0
DA:2162,0
DA:2163,0
DA:2164,0
DA:2142,0
DA:2148,0
DA:2150,0
DA:2153,0
DA:2155,0
DA:2162,0
DA:2163,0
DA:2164,0
DA:2142,0
DA:2148,0
DA:2150,0
DA:2153,0
DA:2155,0
DA:2162,0
DA:2163,0
DA:2164,0
DA:2229,0
DA:2235,0
DA:2236,0
DA:2237,0
DA:2238,0
DA:2243,0
DA:2244,0
DA:2245,0
DA:2254,0
DA:2255,0
DA:2256,0
DA:2257,0
DA:2496,0
DA:2501,0
DA:2502,0
DA:2503,0
DA:2504,0
DA:2505,0
DA:2496,0
DA:2500,0
DA:2501,0
DA:2502,0
DA:2503,0
DA:2504,0
DA:2505,0
DA:2496,0
DA:2500,0
DA:2501,0
DA:2502,0
DA:2503,0
DA:2504,0
DA:2505,0
DA:2496,0
DA:2500,0
DA:2501,0
DA:2502,0
DA:2503,0
DA:2504,0
DA:2505,0
DA:2496,0
DA:2500,0
DA:2501,0
DA:2502,0
DA:2503,0
DA:2504,0
DA:2505,0
DA:2496,0
DA:2501,0
DA:2502,0
DA:2503,0
DA:2504,0
DA:2505,0
DA:2496,0
DA:2501,0
DA:2502,0
DA:2503,0
DA:2504,0
DA:2505,0
DA:2496,0
DA:2501,0
DA:2502,0
DA:2503,0
DA:2504,0
DA:2505,0
DA:2496,0
DA:2501,0
DA:2502,0
DA:2503,0
DA:2504,0
DA:2505,0
DA:2496,0
DA:2501,0
DA:2502,0
DA:2503,0
DA:2504,0
DA:2505,0
DA:2496,0
DA:2501,0
DA:2502,0
DA:2503,0
DA:2504,0
DA:2505,0
DA:2496,0
DA:2501,0
DA:2502,0
DA:2503,0
DA:2504,0
DA:2505,0
DA:2496,0
DA:2501,0
DA:2502,0
DA:2503,0
DA:2504,0
DA:2505,0
DA:2496,0
DA:2501,0
DA:2502,0
DA:2503,0
DA:2504,0
DA:2505,0
DA:2496,0
DA:2501,0
DA:2502,0
DA:2503,0
DA:2504,0
DA:2505,0
DA:2496,0
DA:2501,0
DA:2502,0
DA:2503,0
DA:2504,0
DA:2505,0
DA:2535,0
DA:2541,0
DA:2543,0
DA:2547,0
DA:2548,0
DA:2550,0
DA:2535,0
DA:2541,0
DA:2543,0
DA:2547,0
DA:2548,0
DA:2550,0
DA:2535,0
DA:2541,0
DA:2543,0
DA:2547,0
DA:2548,0
DA:2550,0
DA:2535,0
DA:2541,0
DA:2543,0
DA:2547,0
DA:2548,0
DA:2550,0
DA:2535,0
DA:2541,0
DA:2543,0
DA:2547,0
DA:2548,0
DA:2550,0
DA:2558,0
DA:2564,0
DA:2566,0
DA:2571,0
DA:2573,0
DA:2574,0
DA:2575,0
DA:2576,0
DA:2577,0
DA:2582,0
DA:2583,0
DA:2589,0
DA:2590,0
DA:2591,0
DA:2592,0
DA:2558,0
DA:2564,0
DA:2566,0
DA:2571,0
DA:2573,0
DA:2574,0
DA:2575,0
DA:2576,0
DA:2577,0
DA:2582,0
DA:2583,0
DA:2589,0
DA:2590,0
DA:2591,0
DA:2592,0
DA:2558,0
DA:2564,0
DA:2566,0
DA:2571,0
DA:2573,0
DA:2574,0
DA:2575,0
DA:2576,0
DA:2577,0
DA:2582,0
DA:2583,0
DA:2589,0
DA:2590,0
DA:2591,0
DA:2592,0
DA:2558,0
DA:2564,0
DA:2566,0
DA:2571,0
DA:2573,0
DA:2574,0
DA:2575,0
DA:2576,0
DA:2577,0
DA:2582,0
DA:2583,0
DA:2589,0
DA:2590,0
DA:2591,0
DA:2592,0
DA:2558,0
DA:2564,0
DA:2566,0
DA:2571,0
DA:2573,0
DA:2574,0
DA:2575,0
DA:2576,0
DA:2577,0
DA:2582,0
DA:2583,0
DA:2589,0
DA:2590,0
DA:2591,0
DA:2592,0
LF:398
LH:4
end_of_record
SF:/usr/share/miniconda3/envs/moose/x86_64-conda-linux-gnu/include/c++/12.3.0/bits/stl_iterator.h
DA:294,0
DA:295,0
DA:344,0
DA:367,0
DA:1073,0
DA:1079,0
DA:1090,0
DA:1107,0
DA:1108,0
DA:1154,208
DA:1333,0
DA:1542,0
DA:1572,0
LF:13
LH:1
end_of_record
SF:/home/runner/work/beaver/beaver/build/header_symlinks/BVFVMultiPhaseSaturationDarcy.h
LF:0
LH:0
end_of_record
SF:/home/runner/work/beaver/beaver/src/fvkernels/BVFVMultiPhasePressureTimeDerivative.C
FN:19,_ZN36BVFVMultiPhasePressureTimeDerivative11validParamsEv
FNDA:132,_ZN36BVFVMultiPhasePressureTimeDerivative11validParamsEv
FN:28,_ZN36BVFVMultiPhasePressureTimeDerivativeC2ERK15InputParameters
FNDA:0,_ZN36BVFVMultiPhasePressureTimeDerivativeC2ERK15InputParameters
FN:41,_ZN36BVFVMultiPhasePressureTimeDerivative17computeQpResidualEv
FNDA:0,_ZN36BVFVMultiPhasePressureTimeDerivative17computeQpResidualEv
FNF:3
FNH:1
DA:19,132
DA:21,132
DA:22,132
DA:23,264
DA:24,264
DA:25,132
DA:26,0
DA:28,0
DA:30,0
DA:31,0
DA:32,0
DA:33,0
DA:34,0
DA:35,0
DA:36,0
DA:38,0
DA:41,0
DA:43,0
DA:44,0
DA:45,0
DA:46,0
LF:21
LH:6
end_of_record
SF:/home/runner/work/beaver/beaver/moose/framework/build/header_symlinks/MooseEnum.h
FN:66,_ZN9MooseEnumD0Ev
FNDA:0,_ZN9MooseEnumD0Ev
FN:66,_ZN9MooseEnumD2Ev
FNDA:0,_ZN9MooseEnumD2Ev
FNF:2
FNH:0
DA:66,0
DA:66,0
DA:155,0
LF:3
LH:0
end_of_record
SF:/home/runner/work/beaver/beaver/moose/framework/build/header_symlinks/BlockRestrictable.h
FN:86,_ZN17BlockRestrictableD0Ev
FNDA:0,_ZN17BlockRestrictableD0Ev
FN:86,_ZN17BlockRestrictableD2Ev
FNDA:0,_ZN17BlockRestrictableD2Ev
FNF:2
FNH:0
DA:86,0
DA:86,0
LF:2
LH:0
end_of_record
SF:/home/runner/work/beaver/beaver/moose/framework/build/header_symlinks/SetupInterface.h
FN:61,_ZN14SetupInterface11customSetupERK13MooseEnumItem
FNDA:0,_ZN14SetupInterface11customSetupERK13MooseEnumItem
FNF:1
FNH:0
DA:61,0
LF:1
LH:0
end_of_record
SF:/usr/share/miniconda3/envs/moose/x86_64-conda-linux-gnu/include/c++/12.3.0/bits/stl_multimap.h
DA:301,0
LF:1
LH:0
end_of_record
SF:/home/runner/work/beaver/beaver/moose/framework/build/header_symlinks/FunctorInterface.h
LF:0
LH:0
end_of_record
SF:/usr/share/miniconda3/envs/moose/x86_64-conda-linux-gnu/include/c++/12.3.0/bits/stl_algobase.h
FN:380,_ZNSt11__copy_moveILb0ELb0ESt26random_access_iterator_tagE8__copy_mIPKNSt7__cxx1112basic_stringIcSt11char_traitsIcESaIcEEE22infix_ostream_iteratorIS8_cS6_EEET0_T_SE_SD_
FNDA:0,_ZNSt11__copy_moveILb0ELb0ESt26random_access_iterator_tagE8__copy_mIPKNSt7__cxx1112basic_stringIcSt11char_traitsIcESaIcEEE22infix_ostream_iteratorIS8_cS6_EEET0_T_SE_SD_
FN:521,_ZSt14__copy_move_a1ILb0EPKNSt7__cxx1112basic_stringIcSt11char_traitsIcESaIcEEE22infix_ostream_iteratorIS5_cS3_EET1_T0_SB_SA_
FNDA:0,_ZSt14__copy_move_a1ILb0EPKNSt7__cxx1112basic_stringIcSt11char_traitsIcESaIcEEE22infix_ostream_iteratorIS5_cS3_EET1_T0_SB_SA_
FN:527,_ZSt13__copy_move_aILb0EN9__gnu_cxx17__normal_iteratorIPKNSt7__cxx1112basic_stringIcSt11char_traitsIcESaIcEEESt6vectorIS7_SaIS7_EEEE22infix_ostream_iteratorIS7_cS5_EET1_T0_SH_SG_
FNDA:0,_ZSt13__copy_move_aILb0EN9__gnu_cxx17__normal_iteratorIPKNSt7__cxx1112basic_stringIcSt11char_traitsIcESaIcEEESt6vectorIS7_SaIS7_EEEE22infix_ostream_iteratorIS7_cS5_EET1_T0_SH_SG_
FN:611,_ZSt4copyIPKmPmET0_T_S4_S3_
FNDA:664052,_ZSt4copyIPKmPmET0_T_S4_S3_
FN:611,_ZSt4copyIPKdPdET0_T_S4_S3_
FNDA:664052,_ZSt4copyIPKdPdET0_T_S4_S3_
FN:714,_ZNSt20__copy_move_backwardILb1ELb0ESt26random_access_iterator_tagE13__copy_move_bIPSt4pairIbN11MetaPhysicL10DualNumberIdNS4_28SemiDynamicSparseNumberArrayIdmNS4_8NWrapperILm64EEEEELb1EEEESC_EET0_T_SE_SD_
FNDA:0,_ZNSt20__copy_move_backwardILb1ELb0ESt26random_access_iterator_tagE13__copy_move_bIPSt4pairIbN11MetaPhysicL10DualNumberIdNS4_28SemiDynamicSparseNumberArrayIdmNS4_8NWrapperILm64EEEEELb1EEEESC_EET0_T_SE_SD_
FN:883,_ZSt13move_backwardIPSt4pairIbdES2_ET0_T_S4_S3_
FNDA:0,_ZSt13move_backwardIPSt4pairIbdES2_ET0_T_S4_S3_
FN:906,_ZSt9__fill_a1IPSt4pairIbN11MetaPhysicL10DualNumberIdNS1_28SemiDynamicSparseNumberArrayIdmNS1_8NWrapperILm64EEEEELb1EEEES8_EN9__gnu_cxx11__enable_ifIXntsrSt11__is_scalarIT0_E7__valueEvE6__typeET_SH_RKSD_
FNDA:0,_ZSt9__fill_a1IPSt4pairIbN11MetaPhysicL10DualNumberIdNS1_28SemiDynamicSparseNumberArrayIdmNS1_8NWrapperILm64EEEEELb1EEEES8_EN9__gnu_cxx11__enable_ifIXntsrSt11__is_scalarIT0_E7__valueEvE6__typeET_SH_RKSD_
FNF:8
FNH:2
DA:235,0
DA:236,0
DA:259,0
DA:260,0
DA:315,0
DA:336,0
DA:380,0
DA:383,0
DA:385,0
DA:386,0
DA:389,0
DA:429,1328104
DA:430,0
DA:431,1328104
DA:432,1328104
DA:495,0
DA:521,0
DA:522,0
DA:527,0
DA:529,0
DA:532,0
DA:611,664052
DA:620,664052
DA:611,664052
DA:620,664052
DA:620,0
DA:714,0
DA:717,0
DA:718,0
DA:719,0
DA:720,0
DA:760,0
DA:883,0
DA:894,0
DA:906,0
DA:909,0
DA:911,0
DA:968,0
DA:999,0
LF:39
LH:7
end_of_record
SF:/usr/share/miniconda3/envs/moose/x86_64-conda-linux-gnu/include/c++/12.3.0/iostream
LF:0
LH:0
end_of_record
SF:/home/runner/work/beaver/beaver/build/header_symlinks/BVFVMultiPhasePressureDarcy.h
LF:0
LH:0
end_of_record
SF:/usr/share/miniconda3/envs/moose/libmesh/include/libmesh/parameters.h
FN:85,_ZN7libMesh10ParametersD0Ev
FNDA:0,_ZN7libMesh10ParametersD0Ev
FN:85,_ZN7libMesh10ParametersD2Ev
FNDA:0,_ZN7libMesh10ParametersD2Ev
FN:138,_ZN7libMesh10Parameters14set_attributesERKNSt7__cxx1112basic_stringIcSt11char_traitsIcESaIcEEEb
FNDA:0,_ZN7libMesh10Parameters14set_attributesERKNSt7__cxx1112basic_stringIcSt11char_traitsIcESaIcEEEb
FN:295,_ZNK7libMesh10Parameters9ParameterIP13FEProblemBaseE4typeB5cxx11Ev
FNDA:0,_ZNK7libMesh10Parameters9ParameterIP13FEProblemBaseE4typeB5cxx11Ev
FN:295,_ZNK7libMesh10Parameters9ParameterItE4typeB5cxx11Ev
FNDA:0,_ZNK7libMesh10Parameters9ParameterItE4typeB5cxx11Ev
FN:303,_ZNK7libMesh10Parameters9ParameterIP13FEProblemBaseE5printERSo
FNDA:0,_ZNK7libMesh10Parameters9ParameterIP13FEProblemBaseE5printERSo
FN:303,_ZNK7libMesh10Parameters9ParameterItE5printERSo
FNDA:0,_ZNK7libMesh10Parameters9ParameterItE5printERSo
FN:311,_ZNK7libMesh10Parameters9ParameterIP13FEProblemBaseE5cloneEv
FNDA:0,_ZNK7libMesh10Parameters9ParameterIP13FEProblemBaseE5cloneEv
FN:311,_ZNK7libMesh10Parameters9ParameterItE5cloneEv
FNDA:0,_ZNK7libMesh10Parameters9ParameterItE5cloneEv
FN:324,_ZN7libMesh10Parameters5clearEv
FNDA:0,_ZN7libMesh10Parameters5clearEv
FN:332,_ZN7libMesh10ParametersaSERKS0_
FNDA:0,_ZN7libMesh10ParametersaSERKS0_
FN:341,_ZN7libMesh10ParameterspLERKS0_
FNDA:0,_ZN7libMesh10ParameterspLERKS0_
FN:360,_ZNK7libMesh10Parameters5printERSo
FNDA:0,_ZNK7libMesh10Parameters5printERSo
FN:395,_ZNK7libMesh10Parameters14have_parameterItEEbSt17basic_string_viewIcSt11char_traitsIcEE
FNDA:0,_ZNK7libMesh10Parameters14have_parameterItEEbSt17basic_string_viewIcSt11char_traitsIcEE
FN:426,_ZNK7libMesh10Parameters3getItEERKT_St17basic_string_viewIcSt11char_traitsIcEE
FNDA:0,_ZNK7libMesh10Parameters3getItEERKT_St17basic_string_viewIcSt11char_traitsIcEE
FN:469,_ZN7libMesh10Parameters3setItEERT_RKNSt7__cxx1112basic_stringIcSt11char_traitsIcESaIcEEE
FNDA:0,_ZN7libMesh10Parameters3setItEERT_RKNSt7__cxx1112basic_stringIcSt11char_traitsIcESaIcEEE
FNF:16
FNH:0
DA:85,0
DA:85,0
DA:85,0
DA:138,0
DA:206,0
DA:213,0
DA:218,0
DA:295,0
DA:297,0
DA:295,0
DA:297,0
DA:303,0
DA:307,0
DA:303,0
DA:307,0
DA:311,0
DA:313,0
DA:315,0
DA:317,0
DA:318,0
DA:311,0
DA:313,0
DA:315,0
DA:317,0
DA:318,0
DA:324,0
DA:327,0
DA:332,0
DA:335,0
DA:337,0
DA:341,0
DA:344,0
DA:345,0
DA:347,0
DA:360,0
DA:365,0
DA:366,0
DA:370,0
DA:372,0
DA:373,0
DA:377,0
DA:387,0
DA:388,0
DA:395,0
DA:399,0
DA:403,0
DA:404,0
DA:426,0
DA:428,0
DA:430,0
DA:432,0
DA:434,0
DA:438,0
DA:441,0
DA:442,0
DA:453,0
DA:469,0
DA:471,0
DA:472,0
DA:474,0
DA:477,0
DA:480,0
DA:537,0
LF:63
LH:0
end_of_record
SF:/home/runner/work/beaver/beaver/moose/framework/build/header_symlinks/MooseEnumBase.h
FN:51,_ZN13MooseEnumBaseD0Ev
FNDA:0,_ZN13MooseEnumBaseD0Ev
FN:51,_ZN13MooseEnumBaseD2Ev
FNDA:0,_ZN13MooseEnumBaseD2Ev
FNF:2
FNH:0
DA:51,0
DA:51,0
LF:2
LH:0
end_of_record
SF:/usr/share/miniconda3/envs/moose/x86_64-conda-linux-gnu/include/c++/12.3.0/bits/new_allocator.h
FN:112,_ZNSt15__new_allocatorISt23_Sp_counted_ptr_inplaceI13RegistryEntryI35BVFVSinglePhaseSoluteTimeDerivativeESaIvELN9__gnu_cxx12_Lock_policyE2EEE8allocateEmPKv
FNDA:26,_ZNSt15__new_allocatorISt23_Sp_counted_ptr_inplaceI13RegistryEntryI35BVFVSinglePhaseSoluteTimeDerivativeESaIvELN9__gnu_cxx12_Lock_policyE2EEE8allocateEmPKv
FN:112,_ZNSt15__new_allocatorIdE8allocateEmPKv
FNDA:0,_ZNSt15__new_allocatorIdE8allocateEmPKv
FN:112,_ZNSt15__new_allocatorINSt7__cxx1112basic_stringIcSt11char_traitsIcESaIcEEEE8allocateEmPKv
FNDA:0,_ZNSt15__new_allocatorINSt7__cxx1112basic_stringIcSt11char_traitsIcESaIcEEEE8allocateEmPKv
FN:112,_ZNSt15__new_allocatorISt10unique_ptrI13PropertyValueSt14default_deleteIS1_EEE8allocateEmPKv
FNDA:0,_ZNSt15__new_allocatorISt10unique_ptrI13PropertyValueSt14default_deleteIS1_EEE8allocateEmPKv
FN:112,_ZNSt15__new_allocatorISt13_Rb_tree_nodeISt4pairIKNSt7__cxx1112basic_stringIcSt11char_traitsIcESaIcEEESt10unique_ptrIN7libMesh10Parameters5ValueESt14default_deleteISC_EEEEE8allocateEmPKv
FNDA:0,_ZNSt15__new_allocatorISt13_Rb_tree_nodeISt4pairIKNSt7__cxx1112basic_stringIcSt11char_traitsIcESaIcEEESt10unique_ptrIN7libMesh10Parameters5ValueESt14default_deleteISC_EEEEE8allocateEmPKv
FN:112,_ZNSt15__new_allocatorISt13_Rb_tree_nodeISt4pairIKNSt7__cxx1112basic_stringIcSt11char_traitsIcESaIcEEEN15InputParameters8MetadataEEEE8allocateEmPKv
FNDA:0,_ZNSt15__new_allocatorISt13_Rb_tree_nodeISt4pairIKNSt7__cxx1112basic_stringIcSt11char_traitsIcESaIcEEEN15InputParameters8MetadataEEEE8allocateEmPKv
FN:112,_ZNSt15__new_allocatorISt10shared_ptrI17RegistryEntryBaseEE8allocateEmPKv
FNDA:0,_ZNSt15__new_allocatorISt10shared_ptrI17RegistryEntryBaseEE8allocateEmPKv
FN:112,_ZNSt15__new_allocatorISt23_Sp_counted_ptr_inplaceI13RegistryEntryI27BVFVMultiPhasePressureDarcyESaIvELN9__gnu_cxx12_Lock_policyE2EEE8allocateEmPKv
FNDA:26,_ZNSt15__new_allocatorISt23_Sp_counted_ptr_inplaceI13RegistryEntryI27BVFVMultiPhasePressureDarcyESaIvELN9__gnu_cxx12_Lock_policyE2EEE8allocateEmPKv
FN:112,_ZNSt15__new_allocatorISt13_Rb_tree_nodeISt4pairIKNSt7__cxx1112basic_stringIcSt11char_traitsIcESaIcEEESt6vectorISt10shared_ptrI17RegistryEntryBaseESaISC_EEEEE8allocateEmPKv
FNDA:0,_ZNSt15__new_allocatorISt13_Rb_tree_nodeISt4pairIKNSt7__cxx1112basic_stringIcSt11char_traitsIcESaIcEEESt6vectorISt10shared_ptrI17RegistryEntryBaseESaISC_EEEEE8allocateEmPKv
FN:112,_ZNSt15__new_allocatorISt13_Rb_tree_nodeISt4pairIKNSt7__cxx1112basic_stringIcSt11char_traitsIcESaIcEEES7_EEE8allocateEmPKv
FNDA:0,_ZNSt15__new_allocatorISt13_Rb_tree_nodeISt4pairIKNSt7__cxx1112basic_stringIcSt11char_traitsIcESaIcEEES7_EEE8allocateEmPKv
FN:112,_ZNSt15__new_allocatorISt23_Sp_counted_ptr_inplaceI13RegistryEntryI36BVFVMultiPhasePressureTimeDerivativeESaIvELN9__gnu_cxx12_Lock_policyE2EEE8allocateEmPKv
FNDA:26,_ZNSt15__new_allocatorISt23_Sp_counted_ptr_inplaceI13RegistryEntryI36BVFVMultiPhasePressureTimeDerivativeESaIvELN9__gnu_cxx12_Lock_policyE2EEE8allocateEmPKv
FN:112,_ZNSt15__new_allocatorISt23_Sp_counted_ptr_inplaceI13RegistryEntryI29BVFVMultiPhaseSaturationDarcyESaIvELN9__gnu_cxx12_Lock_policyE2EEE8allocateEmPKv
FNDA:26,_ZNSt15__new_allocatorISt23_Sp_counted_ptr_inplaceI13RegistryEntryI29BVFVMultiPhaseSaturationDarcyESaIvELN9__gnu_cxx12_Lock_policyE2EEE8allocateEmPKv
FN:112,_ZNSt15__new_allocatorISt23_Sp_counted_ptr_inplaceI13RegistryEntryI38BVFVMultiPhaseSaturationTimeDerivativeESaIvELN9__gnu_cxx12_Lock_policyE2EEE8allocateEmPKv
FNDA:26,_ZNSt15__new_allocatorISt23_Sp_counted_ptr_inplaceI13RegistryEntryI38BVFVMultiPhaseSaturationTimeDerivativeESaIvELN9__gnu_cxx12_Lock_policyE2EEE8allocateEmPKv
FN:112,_ZNSt15__new_allocatorISt23_Sp_counted_ptr_inplaceI13RegistryEntryI20BVFVSinglePhaseDarcyESaIvELN9__gnu_cxx12_Lock_policyE2EEE8allocateEmPKv
FNDA:26,_ZNSt15__new_allocatorISt23_Sp_counted_ptr_inplaceI13RegistryEntryI20BVFVSinglePhaseDarcyESaIvELN9__gnu_cxx12_Lock_policyE2EEE8allocateEmPKv
FN:112,_ZNSt15__new_allocatorISt23_Sp_counted_ptr_inplaceI13RegistryEntryI26BVFVSinglePhaseSoluteDarcyESaIvELN9__gnu_cxx12_Lock_policyE2EEE8allocateEmPKv
FNDA:26,_ZNSt15__new_allocatorISt23_Sp_counted_ptr_inplaceI13RegistryEntryI26BVFVSinglePhaseSoluteDarcyESaIvELN9__gnu_cxx12_Lock_policyE2EEE8allocateEmPKv
FN:112,_ZNSt15__new_allocatorISt13_Rb_tree_nodeISt4pairIKN5Moose7FaceArgEdEEE8allocateEmPKv
FNDA:0,_ZNSt15__new_allocatorISt13_Rb_tree_nodeISt4pairIKN5Moose7FaceArgEdEEE8allocateEmPKv
FN:112,_ZNSt15__new_allocatorISt23_Sp_counted_ptr_inplaceI13RegistryEntryI29BVFVSinglePhaseTimeDerivativeESaIvELN9__gnu_cxx12_Lock_policyE2EEE8allocateEmPKv
FNDA:26,_ZNSt15__new_allocatorISt23_Sp_counted_ptr_inplaceI13RegistryEntryI29BVFVSinglePhaseTimeDerivativeESaIvELN9__gnu_cxx12_Lock_policyE2EEE8allocateEmPKv
FN:112,_ZNSt15__new_allocatorINSt8__detail10_Hash_nodeIjLb0EEEE8allocateEmPKv
FNDA:0,_ZNSt15__new_allocatorINSt8__detail10_Hash_nodeIjLb0EEEE8allocateEmPKv
FN:112,_ZNSt15__new_allocatorIPNSt8__detail15_Hash_node_baseEE8allocateEmPKv
FNDA:0,_ZNSt15__new_allocatorIPNSt8__detail15_Hash_node_baseEE8allocateEmPKv
FN:112,_ZNSt15__new_allocatorISt13_Rb_tree_nodeISt4pairIKN5Moose7FaceArgEN11MetaPhysicL10DualNumberIdNS5_28SemiDynamicSparseNumberArrayIdmNS5_8NWrapperILm64EEEEELb1EEEEEE8allocateEmPKv
FNDA:0,_ZNSt15__new_allocatorISt13_Rb_tree_nodeISt4pairIKN5Moose7FaceArgEN11MetaPhysicL10DualNumberIdNS5_28SemiDynamicSparseNumberArrayIdmNS5_8NWrapperILm64EEEEELb1EEEEEE8allocateEmPKv
FN:112,_ZNSt15__new_allocatorISt6vectorISt4pairIbN11MetaPhysicL10DualNumberIdNS2_28SemiDynamicSparseNumberArrayIdmNS2_8NWrapperILm64EEEEELb1EEEESaIS9_EEE8allocateEmPKv
FNDA:0,_ZNSt15__new_allocatorISt6vectorISt4pairIbN11MetaPhysicL10DualNumberIdNS2_28SemiDynamicSparseNumberArrayIdmNS2_8NWrapperILm64EEEEELb1EEEESaIS9_EEE8allocateEmPKv
FN:112,_ZNSt15__new_allocatorISt6vectorISt4pairIbdESaIS2_EEE8allocateEmPKv
FNDA:0,_ZNSt15__new_allocatorISt6vectorISt4pairIbdESaIS2_EEE8allocateEmPKv
FN:112,_ZNSt15__new_allocatorINSt8__detail10_Hash_nodeISt4pairIKmSt6vectorIS2_IbN11MetaPhysicL10DualNumberIdNS5_28SemiDynamicSparseNumberArrayIdmNS5_8NWrapperILm64EEEEELb1EEEESaISC_EEELb0EEEE8allocateEmPKv
FNDA:0,_ZNSt15__new_allocatorINSt8__detail10_Hash_nodeISt4pairIKmSt6vectorIS2_IbN11MetaPhysicL10DualNumberIdNS5_28SemiDynamicSparseNumberArrayIdmNS5_8NWrapperILm64EEEEELb1EEEESaISC_EEELb0EEEE8allocateEmPKv
FN:112,_ZNSt15__new_allocatorISt4pairIbN11MetaPhysicL10DualNumberIdNS1_28SemiDynamicSparseNumberArrayIdmNS1_8NWrapperILm64EEEEELb1EEEEE8allocateEmPKv
FNDA:0,_ZNSt15__new_allocatorISt4pairIbN11MetaPhysicL10DualNumberIdNS1_28SemiDynamicSparseNumberArrayIdmNS1_8NWrapperILm64EEEEELb1EEEEE8allocateEmPKv
FN:112,_ZNSt15__new_allocatorINSt8__detail10_Hash_nodeISt4pairIKmSt6vectorIS4_IS2_IbN11MetaPhysicL10DualNumberIdNS5_28SemiDynamicSparseNumberArrayIdmNS5_8NWrapperILm64EEEEELb1EEEESaISC_EESaISE_EEELb0EEEE8allocateEmPKv
FNDA:0,_ZNSt15__new_allocatorINSt8__detail10_Hash_nodeISt4pairIKmSt6vectorIS4_IS2_IbN11MetaPhysicL10DualNumberIdNS5_28SemiDynamicSparseNumberArrayIdmNS5_8NWrapperILm64EEEEELb1EEEESaISC_EESaISE_EEELb0EEEE8allocateEmPKv
FN:112,_ZNSt15__new_allocatorINSt8__detail10_Hash_nodeISt4pairIKmSt6vectorIS2_IbdESaIS5_EEELb0EEEE8allocateEmPKv
FNDA:0,_ZNSt15__new_allocatorINSt8__detail10_Hash_nodeISt4pairIKmSt6vectorIS2_IbdESaIS5_EEELb0EEEE8allocateEmPKv
FN:112,_ZNSt15__new_allocatorISt4pairIbdEE8allocateEmPKv
FNDA:0,_ZNSt15__new_allocatorISt4pairIbdEE8allocateEmPKv
FN:112,_ZNSt15__new_allocatorINSt8__detail10_Hash_nodeISt4pairIKmSt6vectorIS4_IS2_IbdESaIS5_EESaIS7_EEELb0EEEE8allocateEmPKv
FNDA:0,_ZNSt15__new_allocatorINSt8__detail10_Hash_nodeISt4pairIKmSt6vectorIS4_IS2_IbdESaIS5_EESaIS7_EEELb0EEEE8allocateEmPKv
FN:112,_ZNSt15__new_allocatorISt13_Rb_tree_nodeISt4pairIKN5Moose7ElemArgEN11MetaPhysicL10DualNumberIdNS5_28SemiDynamicSparseNumberArrayIdmNS5_8NWrapperILm64EEEEELb1EEEEEE8allocateEmPKv
FNDA:0,_ZNSt15__new_allocatorISt13_Rb_tree_nodeISt4pairIKN5Moose7ElemArgEN11MetaPhysicL10DualNumberIdNS5_28SemiDynamicSparseNumberArrayIdmNS5_8NWrapperILm64EEEEELb1EEEEEE8allocateEmPKv
FN:112,_ZNSt15__new_allocatorISt13_Rb_tree_nodeISt4pairIKN5Moose7ElemArgEdEEE8allocateEmPKv
FNDA:0,_ZNSt15__new_allocatorISt13_Rb_tree_nodeISt4pairIKN5Moose7ElemArgEdEEE8allocateEmPKv
FNF:30
FNH:8
DA:112,26
DA:120,26
DA:124,0
DA:125,0
DA:126,0
DA:137,26
DA:112,0
DA:120,0
DA:124,0
DA:125,0
DA:126,0
DA:137,0
DA:112,0
DA:120,0
DA:124,0
DA:125,0
DA:126,0
DA:137,0
DA:112,0
DA:120,0
DA:124,0
DA:125,0
DA:126,0
DA:137,0
DA:112,0
DA:120,0
DA:124,0
DA:125,0
DA:126,0
DA:137,0
DA:112,0
DA:120,0
DA:124,0
DA:125,0
DA:126,0
DA:137,0
DA:112,0
DA:120,0
DA:124,0
DA:125,0
DA:126,0
DA:137,0
DA:112,26
DA:120,26
DA:124,0
DA:125,0
DA:126,0
DA:137,26
DA:112,0
DA:120,0
DA:124,0
DA:125,0
DA:126,0
DA:137,0
DA:112,0
DA:120,0
DA:124,0
DA:125,0
DA:126,0
DA:137,0
DA:112,26
DA:120,26
DA:124,0
DA:125,0
DA:126,0
DA:137,26
DA:112,26
DA:120,26
DA:124,0
DA:125,0
DA:126,0
DA:137,26
DA:112,26
DA:120,26
DA:124,0
DA:125,0
DA:126,0
DA:137,26
DA:112,26
DA:120,26
DA:124,0
DA:125,0
DA:126,0
DA:137,26
DA:112,26
DA:120,26
DA:124,0
DA:125,0
DA:126,0
DA:137,26
DA:112,0
DA:120,0
DA:124,0
DA:125,0
DA:126,0
DA:137,0
DA:112,26
DA:120,26
DA:124,0
DA:125,0
DA:126,0
DA:137,26
DA:112,0
DA:120,0
DA:124,0
DA:125,0
DA:126,0
DA:137,0
DA:112,0
DA:120,0
DA:124,0
DA:125,0
DA:126,0
DA:137,0
DA:112,0
DA:120,0
DA:124,0
DA:125,0
DA:126,0
DA:137,0
DA:112,0
DA:120,0
DA:124,0
DA:125,0
DA:126,0
DA:137,0
DA:112,0
DA:120,0
DA:124,0
DA:125,0
DA:126,0
DA:137,0
DA:112,0
DA:120,0
DA:124,0
DA:125,0
DA:126,0
DA:137,0
DA:112,0
DA:120,0
DA:124,0
DA:125,0
DA:126,0
DA:137,0
DA:112,0
DA:120,0
DA:124,0
DA:125,0
DA:126,0
DA:137,0
DA:112,0
DA:120,0
DA:124,0
DA:125,0
DA:126,0
DA:137,0
DA:112,0
DA:120,0
DA:124,0
DA:125,0
DA:126,0
DA:137,0
DA:112,0
DA:120,0
DA:124,0
DA:125,0
DA:126,0
DA:137,0
DA:112,0
DA:120,0
DA:124,0
DA:125,0
DA:126,0
DA:137,0
DA:112,0
DA:120,0
DA:124,0
DA:125,0
DA:126,0
DA:137,0
DA:158,4
DA:175,0
DA:181,0
LF:183
LH:25
end_of_record
SF:/home/runner/work/beaver/beaver/moose/framework/build/header_symlinks/MooseUtils.h
FN:138,_ZN10MooseUtils4joinISt6vectorINSt7__cxx1112basic_stringIcSt11char_traitsIcESaIcEEESaIS7_EEEES7_RKT_RKS7_
FNDA:0,_ZN10MooseUtils4joinISt6vectorINSt7__cxx1112basic_stringIcSt11char_traitsIcESaIcEEESaIS7_EEEES7_RKT_RKS7_
FN:330,_ZN10MooseUtils13prettyCppTypeIdEENSt7__cxx1112basic_stringIcSt11char_traitsIcESaIcEEEPKT_
FNDA:0,_ZN10MooseUtils13prettyCppTypeIdEENSt7__cxx1112basic_stringIcSt11char_traitsIcESaIcEEEPKT_
FNF:2
FNH:0
DA:138,0
DA:140,0
DA:141,0
DA:143,0
DA:144,0
DA:330,0
DA:332,0
LF:7
LH:0
end_of_record
SF:/usr/share/miniconda3/envs/moose/x86_64-conda-linux-gnu/include/c++/12.3.0/bits/shared_ptr.h
FN:463,_ZNSt10shared_ptrI13RegistryEntryI29BVFVSinglePhaseTimeDerivativeEEC2ISaIvEJRK17RegistryEntryDataEEESt20_Sp_alloc_shared_tagIT_EDpOT0_
FNDA:26,_ZNSt10shared_ptrI13RegistryEntryI29BVFVSinglePhaseTimeDerivativeEEC2ISaIvEJRK17RegistryEntryDataEEESt20_Sp_alloc_shared_tagIT_EDpOT0_
FN:463,_ZNSt10shared_ptrI13RegistryEntryI35BVFVSinglePhaseSoluteTimeDerivativeEEC2ISaIvEJRK17RegistryEntryDataEEESt20_Sp_alloc_shared_tagIT_EDpOT0_
FNDA:26,_ZNSt10shared_ptrI13RegistryEntryI35BVFVSinglePhaseSoluteTimeDerivativeEEC2ISaIvEJRK17RegistryEntryDataEEESt20_Sp_alloc_shared_tagIT_EDpOT0_
FN:463,_ZNSt10shared_ptrI13RegistryEntryI26BVFVSinglePhaseSoluteDarcyEEC2ISaIvEJRK17RegistryEntryDataEEESt20_Sp_alloc_shared_tagIT_EDpOT0_
FNDA:26,_ZNSt10shared_ptrI13RegistryEntryI26BVFVSinglePhaseSoluteDarcyEEC2ISaIvEJRK17RegistryEntryDataEEESt20_Sp_alloc_shared_tagIT_EDpOT0_
FN:463,_ZNSt10shared_ptrI13RegistryEntryI20BVFVSinglePhaseDarcyEEC2ISaIvEJRK17RegistryEntryDataEEESt20_Sp_alloc_shared_tagIT_EDpOT0_
FNDA:26,_ZNSt10shared_ptrI13RegistryEntryI20BVFVSinglePhaseDarcyEEC2ISaIvEJRK17RegistryEntryDataEEESt20_Sp_alloc_shared_tagIT_EDpOT0_
FN:463,_ZNSt10shared_ptrI13RegistryEntryI38BVFVMultiPhaseSaturationTimeDerivativeEEC2ISaIvEJRK17RegistryEntryDataEEESt20_Sp_alloc_shared_tagIT_EDpOT0_
FNDA:26,_ZNSt10shared_ptrI13RegistryEntryI38BVFVMultiPhaseSaturationTimeDerivativeEEC2ISaIvEJRK17RegistryEntryDataEEESt20_Sp_alloc_shared_tagIT_EDpOT0_
FN:463,_ZNSt10shared_ptrI13RegistryEntryI29BVFVMultiPhaseSaturationDarcyEEC2ISaIvEJRK17RegistryEntryDataEEESt20_Sp_alloc_shared_tagIT_EDpOT0_
FNDA:26,_ZNSt10shared_ptrI13RegistryEntryI29BVFVMultiPhaseSaturationDarcyEEC2ISaIvEJRK17RegistryEntryDataEEESt20_Sp_alloc_shared_tagIT_EDpOT0_
FN:463,_ZNSt10shared_ptrI13RegistryEntryI36BVFVMultiPhasePressureTimeDerivativeEEC2ISaIvEJRK17RegistryEntryDataEEESt20_Sp_alloc_shared_tagIT_EDpOT0_
FNDA:26,_ZNSt10shared_ptrI13RegistryEntryI36BVFVMultiPhasePressureTimeDerivativeEEC2ISaIvEJRK17RegistryEntryDataEEESt20_Sp_alloc_shared_tagIT_EDpOT0_
FN:463,_ZNSt10shared_ptrI13RegistryEntryI27BVFVMultiPhasePressureDarcyEEC2ISaIvEJRK17RegistryEntryDataEEESt20_Sp_alloc_shared_tagIT_EDpOT0_
FNDA:26,_ZNSt10shared_ptrI13RegistryEntryI27BVFVMultiPhasePressureDarcyEEC2ISaIvEJRK17RegistryEntryDataEEESt20_Sp_alloc_shared_tagIT_EDpOT0_
FNF:8
FNH:8
DA:175,416
DA:463,26
DA:464,26
DA:465,26
DA:463,26
DA:464,26
DA:465,26
DA:463,26
DA:464,26
DA:465,26
DA:463,26
DA:464,26
DA:465,26
DA:463,26
DA:464,26
DA:465,26
DA:463,26
DA:464,26
DA:465,26
DA:463,26
DA:464,26
DA:465,26
DA:463,26
DA:464,26
DA:465,26
DA:930,0
DA:1010,208
LF:27
LH:26
end_of_record
SF:/usr/share/miniconda3/envs/moose/x86_64-conda-linux-gnu/include/c++/12.3.0/bits/functional_hash.h
DA:166,0
LF:1
LH:0
end_of_record
SF:/usr/share/miniconda3/envs/moose/x86_64-conda-linux-gnu/include/c++/12.3.0/bits/unique_ptr.h
FN:89,_ZNKSt14default_deleteI10MooseArrayIN11MetaPhysicL10DualNumberIdNS1_28SemiDynamicSparseNumberArrayIdmNS1_8NWrapperILm64EEEEELb1EEEEEclEPS8_
FNDA:0,_ZNKSt14default_deleteI10MooseArrayIN11MetaPhysicL10DualNumberIdNS1_28SemiDynamicSparseNumberArrayIdmNS1_8NWrapperILm64EEEEELb1EEEEEclEPS8_
FN:89,_ZNKSt14default_deleteI10MooseArrayIdEEclEPS1_
FNDA:0,_ZNKSt14default_deleteI10MooseArrayIdEEclEPS1_
FN:89,_ZNKSt14default_deleteI10MooseArrayIN7libMesh11VectorValueIdEEEEclEPS4_
FNDA:0,_ZNKSt14default_deleteI10MooseArrayIN7libMesh11VectorValueIdEEEEclEPS4_
FN:89,_ZNKSt14default_deleteI10MooseArrayIN7libMesh11VectorValueIN11MetaPhysicL10DualNumberIdNS3_28SemiDynamicSparseNumberArrayIdmNS3_8NWrapperILm64EEEEELb1EEEEEEEclEPSB_
FNDA:0,_ZNKSt14default_deleteI10MooseArrayIN7libMesh11VectorValueIN11MetaPhysicL10DualNumberIdNS3_28SemiDynamicSparseNumberArrayIdmNS3_8NWrapperILm64EEEEELb1EEEEEEEclEPSB_
FN:89,_ZNKSt14default_deleteI10MooseArrayIN5Eigen6MatrixIdLin1ELi1ELi0ELin1ELi1EEEEEclEPS4_
FNDA:0,_ZNKSt14default_deleteI10MooseArrayIN5Eigen6MatrixIdLin1ELi1ELi0ELin1ELi1EEEEEclEPS4_
FN:128,_ZNKSt14default_deleteIA_N11MetaPhysicL10DualNumberIdNS0_28SemiDynamicSparseNumberArrayIdmNS0_8NWrapperILm64EEEEELb1EEEEclIS6_EENSt9enable_ifIXsrSt14is_convertibleIPA_T_PS7_E5valueEvE4typeEPSC_
FNDA:0,_ZNKSt14default_deleteIA_N11MetaPhysicL10DualNumberIdNS0_28SemiDynamicSparseNumberArrayIdmNS0_8NWrapperILm64EEEEELb1EEEEclIS6_EENSt9enable_ifIXsrSt14is_convertibleIPA_T_PS7_E5valueEvE4typeEPSC_
FN:128,_ZNKSt14default_deleteIA_N5Eigen6MatrixIdLin1ELi3ELi0ELin1ELi3EEEEclIS2_EENSt9enable_ifIXsrSt14is_convertibleIPA_T_PS3_E5valueEvE4typeEPS8_
FNDA:0,_ZNKSt14default_deleteIA_N5Eigen6MatrixIdLin1ELi3ELi0ELin1ELi3EEEEclIS2_EENSt9enable_ifIXsrSt14is_convertibleIPA_T_PS3_E5valueEvE4typeEPS8_
FN:128,_ZNKSt14default_deleteIA_N5Eigen6MatrixIdLin1ELi1ELi0ELin1ELi1EEEEclIS2_EENSt9enable_ifIXsrSt14is_convertibleIPA_T_PS3_E5valueEvE4typeEPS8_
FNDA:0,_ZNKSt14default_deleteIA_N5Eigen6MatrixIdLin1ELi1ELi0ELin1ELi1EEEEclIS2_EENSt9enable_ifIXsrSt14is_convertibleIPA_T_PS3_E5valueEvE4typeEPS8_
FN:128,_ZNKSt14default_deleteIA_N7libMesh11TensorValueIdEEEclIS2_EENSt9enable_ifIXsrSt14is_convertibleIPA_T_PS3_E5valueEvE4typeEPS8_
FNDA:0,_ZNKSt14default_deleteIA_N7libMesh11TensorValueIdEEEclIS2_EENSt9enable_ifIXsrSt14is_convertibleIPA_T_PS3_E5valueEvE4typeEPS8_
FN:128,_ZNKSt14default_deleteIA_N7libMesh11TensorValueIN11MetaPhysicL10DualNumberIdNS2_28SemiDynamicSparseNumberArrayIdmNS2_8NWrapperILm64EEEEELb1EEEEEEclIS9_EENSt9enable_ifIXsrSt14is_convertibleIPA_T_PSA_E5valueEvE4typeEPSF_
FNDA:0,_ZNKSt14default_deleteIA_N7libMesh11TensorValueIN11MetaPhysicL10DualNumberIdNS2_28SemiDynamicSparseNumberArrayIdmNS2_8NWrapperILm64EEEEELb1EEEEEEclIS9_EENSt9enable_ifIXsrSt14is_convertibleIPA_T_PSA_E5valueEvE4typeEPSF_
FN:128,_ZNKSt14default_deleteIA_N7libMesh11VectorValueIN11MetaPhysicL10DualNumberIdNS2_28SemiDynamicSparseNumberArrayIdmNS2_8NWrapperILm64EEEEELb1EEEEEEclIS9_EENSt9enable_ifIXsrSt14is_convertibleIPA_T_PSA_E5valueEvE4typeEPSF_
FNDA:0,_ZNKSt14default_deleteIA_N7libMesh11VectorValueIN11MetaPhysicL10DualNumberIdNS2_28SemiDynamicSparseNumberArrayIdmNS2_8NWrapperILm64EEEEELb1EEEEEEclIS9_EENSt9enable_ifIXsrSt14is_convertibleIPA_T_PSA_E5valueEvE4typeEPSF_
FN:181,_ZNSt15__uniq_ptr_implI13PropertyValueSt14default_deleteIS0_EEaSEOS3_
FNDA:0,_ZNSt15__uniq_ptr_implI13PropertyValueSt14default_deleteIS0_EEaSEOS3_
FN:181,_ZNSt15__uniq_ptr_implIN7libMesh10Parameters5ValueESt14default_deleteIS2_EEaSEOS5_
FNDA:0,_ZNSt15__uniq_ptr_implIN7libMesh10Parameters5ValueESt14default_deleteIS2_EEaSEOS5_
FN:390,_ZNSt10unique_ptrI10MooseArrayIdESt14default_deleteIS1_EED2Ev
FNDA:0,_ZNSt10unique_ptrI10MooseArrayIdESt14default_deleteIS1_EED2Ev
FN:390,_ZNSt10unique_ptrI10MooseArrayIN7libMesh11VectorValueIN11MetaPhysicL10DualNumberIdNS3_28SemiDynamicSparseNumberArrayIdmNS3_8NWrapperILm64EEEEELb1EEEEEESt14default_deleteISB_EED2Ev
FNDA:0,_ZNSt10unique_ptrI10MooseArrayIN7libMesh11VectorValueIN11MetaPhysicL10DualNumberIdNS3_28SemiDynamicSparseNumberArrayIdmNS3_8NWrapperILm64EEEEELb1EEEEEESt14default_deleteISB_EED2Ev
FN:390,_ZNSt10unique_ptrI10MooseArrayIN5Eigen6MatrixIdLin1ELi1ELi0ELin1ELi1EEEESt14default_deleteIS4_EED2Ev
FNDA:0,_ZNSt10unique_ptrI10MooseArrayIN5Eigen6MatrixIdLin1ELi1ELi0ELin1ELi1EEEESt14default_deleteIS4_EED2Ev
FN:390,_ZNSt10unique_ptrI33OptionalMaterialPropertyProxyBaseI25MaterialPropertyInterfaceESt14default_deleteIS2_EED2Ev
FNDA:0,_ZNSt10unique_ptrI33OptionalMaterialPropertyProxyBaseI25MaterialPropertyInterfaceESt14default_deleteIS2_EED2Ev
FN:390,_ZNSt10unique_ptrI10MooseArrayIN7libMesh11VectorValueIdEEESt14default_deleteIS4_EED2Ev
FNDA:0,_ZNSt10unique_ptrI10MooseArrayIN7libMesh11VectorValueIdEEESt14default_deleteIS4_EED2Ev
FN:390,_ZNSt10unique_ptrI10MooseArrayIN11MetaPhysicL10DualNumberIdNS1_28SemiDynamicSparseNumberArrayIdmNS1_8NWrapperILm64EEEEELb1EEEESt14default_deleteIS8_EED2Ev
FNDA:0,_ZNSt10unique_ptrI10MooseArrayIN11MetaPhysicL10DualNumberIdNS1_28SemiDynamicSparseNumberArrayIdmNS1_8NWrapperILm64EEEEELb1EEEESt14default_deleteIS8_EED2Ev
FN:390,_ZNSt10unique_ptrI18ADMaterialPropertyIdESt14default_deleteIS1_EED2Ev
FNDA:0,_ZNSt10unique_ptrI18ADMaterialPropertyIdESt14default_deleteIS1_EED2Ev
FN:390,_ZNSt10unique_ptrIdSt14default_deleteIdEED2Ev
FNDA:0,_ZNSt10unique_ptrIdSt14default_deleteIdEED2Ev
FN:390,_ZNSt10unique_ptrI13PropertyValueSt14default_deleteIS0_EED2Ev
FNDA:0,_ZNSt10unique_ptrI13PropertyValueSt14default_deleteIS0_EED2Ev
FN:390,_ZNSt10unique_ptrIN7libMesh10Parameters9ParameterItEESt14default_deleteIS3_EED2Ev
FNDA:0,_ZNSt10unique_ptrIN7libMesh10Parameters9ParameterItEESt14default_deleteIS3_EED2Ev
FN:390,_ZNSt10unique_ptrIN7libMesh10Parameters9ParameterIP13FEProblemBaseEESt14default_deleteIS5_EED2Ev
FNDA:0,_ZNSt10unique_ptrIN7libMesh10Parameters9ParameterIP13FEProblemBaseEESt14default_deleteIS5_EED2Ev
FN:390,_ZNSt10unique_ptrINSt13__future_base12_Result_baseENS1_8_DeleterEED2Ev
FNDA:0,_ZNSt10unique_ptrINSt13__future_base12_Result_baseENS1_8_DeleterEED2Ev
FN:390,_ZNSt10unique_ptrIN7libMesh10Parameters5ValueESt14default_deleteIS2_EED2Ev
FNDA:0,_ZNSt10unique_ptrIN7libMesh10Parameters5ValueESt14default_deleteIS2_EED2Ev
FN:390,_ZNSt10unique_ptrI35BVFVSinglePhaseSoluteTimeDerivativeSt14default_deleteIS0_EED2Ev
FNDA:0,_ZNSt10unique_ptrI35BVFVSinglePhaseSoluteTimeDerivativeSt14default_deleteIS0_EED2Ev
FN:390,_ZNSt10unique_ptrI29BVFVMultiPhaseSaturationDarcySt14default_deleteIS0_EED2Ev
FNDA:0,_ZNSt10unique_ptrI29BVFVMultiPhaseSaturationDarcySt14default_deleteIS0_EED2Ev
FN:390,_ZNSt10unique_ptrI38BVFVMultiPhaseSaturationTimeDerivativeSt14default_deleteIS0_EED2Ev
FNDA:0,_ZNSt10unique_ptrI38BVFVMultiPhaseSaturationTimeDerivativeSt14default_deleteIS0_EED2Ev
FN:390,_ZNSt10unique_ptrI20BVFVSinglePhaseDarcySt14default_deleteIS0_EED2Ev
FNDA:3,_ZNSt10unique_ptrI20BVFVSinglePhaseDarcySt14default_deleteIS0_EED2Ev
FN:390,_ZNSt10unique_ptrI16MaterialPropertyIdESt14default_deleteIS1_EED2Ev
FNDA:0,_ZNSt10unique_ptrI16MaterialPropertyIdESt14default_deleteIS1_EED2Ev
FN:390,_ZNSt10unique_ptrI26BVFVSinglePhaseSoluteDarcySt14default_deleteIS0_EED2Ev
FNDA:0,_ZNSt10unique_ptrI26BVFVSinglePhaseSoluteDarcySt14default_deleteIS0_EED2Ev
FN:390,_ZNSt10unique_ptrI29BVFVSinglePhaseTimeDerivativeSt14default_deleteIS0_EED2Ev
FNDA:1,_ZNSt10unique_ptrI29BVFVSinglePhaseTimeDerivativeSt14default_deleteIS0_EED2Ev
FN:390,_ZNSt10unique_ptrI36BVFVMultiPhasePressureTimeDerivativeSt14default_deleteIS0_EED2Ev
FNDA:0,_ZNSt10unique_ptrI36BVFVMultiPhasePressureTimeDerivativeSt14default_deleteIS0_EED2Ev
FN:390,_ZNSt10unique_ptrIN5Moose11FunctorBaseIN11MetaPhysicL10DualNumberIdNS2_28SemiDynamicSparseNumberArrayIdmNS2_8NWrapperILm64EEEEELb1EEEEESt14default_deleteIS9_EED2Ev
FNDA:0,_ZNSt10unique_ptrIN5Moose11FunctorBaseIN11MetaPhysicL10DualNumberIdNS2_28SemiDynamicSparseNumberArrayIdmNS2_8NWrapperILm64EEEEELb1EEEEESt14default_deleteIS9_EED2Ev
FN:390,_ZNSt10unique_ptrIN5Moose11FunctorBaseIdEESt14default_deleteIS2_EED2Ev
FNDA:0,_ZNSt10unique_ptrIN5Moose11FunctorBaseIdEESt14default_deleteIS2_EED2Ev
FN:390,_ZNSt10unique_ptrI27BVFVMultiPhasePressureDarcySt14default_deleteIS0_EED2Ev
FNDA:0,_ZNSt10unique_ptrI27BVFVMultiPhasePressureDarcySt14default_deleteIS0_EED2Ev
FN:422,_ZNSt10unique_ptrIN7libMesh10Parameters5ValueESt14default_deleteIS2_EEaSINS1_9ParameterItEES3_IS8_EEENSt9enable_ifIXsrSt6__and_IJSB_IJSt14is_convertibleINS_IT_T0_E7pointerEPS2_ESt6__not_ISt8is_arrayISD_EEEESt13is_assignableIRS4_OSE_EEE5valueERS5_E4typeEOSF_
FNDA:0,_ZNSt10unique_ptrIN7libMesh10Parameters5ValueESt14default_deleteIS2_EEaSINS1_9ParameterItEES3_IS8_EEENSt9enable_ifIXsrSt6__and_IJSB_IJSt14is_convertibleINS_IT_T0_E7pointerEPS2_ESt6__not_ISt8is_arrayISD_EEEESt13is_assignableIRS4_OSE_EEE5valueERS5_E4typeEOSF_
FN:665,_ZNSt10unique_ptrIA_N7libMesh11VectorValueIN11MetaPhysicL10DualNumberIdNS2_28SemiDynamicSparseNumberArrayIdmNS2_8NWrapperILm64EEEEELb1EEEEESt14default_deleteISA_EED2Ev
FNDA:0,_ZNSt10unique_ptrIA_N7libMesh11VectorValueIN11MetaPhysicL10DualNumberIdNS2_28SemiDynamicSparseNumberArrayIdmNS2_8NWrapperILm64EEEEELb1EEEEESt14default_deleteISA_EED2Ev
FN:665,_ZNSt10unique_ptrIA_N7libMesh11TensorValueIN11MetaPhysicL10DualNumberIdNS2_28SemiDynamicSparseNumberArrayIdmNS2_8NWrapperILm64EEEEELb1EEEEESt14default_deleteISA_EED2Ev
FNDA:0,_ZNSt10unique_ptrIA_N7libMesh11TensorValueIN11MetaPhysicL10DualNumberIdNS2_28SemiDynamicSparseNumberArrayIdmNS2_8NWrapperILm64EEEEELb1EEEEESt14default_deleteISA_EED2Ev
FN:665,_ZNSt10unique_ptrIA_N7libMesh11TensorValueIdEESt14default_deleteIS3_EED2Ev
FNDA:0,_ZNSt10unique_ptrIA_N7libMesh11TensorValueIdEESt14default_deleteIS3_EED2Ev
FN:665,_ZNSt10unique_ptrIA_N11MetaPhysicL10DualNumberIdNS0_28SemiDynamicSparseNumberArrayIdmNS0_8NWrapperILm64EEEEELb1EEESt14default_deleteIS7_EED2Ev
FNDA:0,_ZNSt10unique_ptrIA_N11MetaPhysicL10DualNumberIdNS0_28SemiDynamicSparseNumberArrayIdmNS0_8NWrapperILm64EEEEELb1EEESt14default_deleteIS7_EED2Ev
FN:665,_ZNSt10unique_ptrIA_N5Eigen6MatrixIdLin1ELi1ELi0ELin1ELi1EEESt14default_deleteIS3_EED2Ev
FNDA:0,_ZNSt10unique_ptrIA_N5Eigen6MatrixIdLin1ELi1ELi0ELin1ELi1EEESt14default_deleteIS3_EED2Ev
FN:665,_ZNSt10unique_ptrIA_N5Eigen6MatrixIdLin1ELi3ELi0ELin1ELi3EEESt14default_deleteIS3_EED2Ev
FNDA:0,_ZNSt10unique_ptrIA_N5Eigen6MatrixIdLin1ELi3ELi0ELin1ELi3EEESt14default_deleteIS3_EED2Ev
FN:1064,_ZSt11make_uniqueI20BVFVSinglePhaseDarcyJRK15InputParametersEENSt8__detail9_MakeUniqIT_E15__single_objectEDpOT0_
FNDA:3,_ZSt11make_uniqueI20BVFVSinglePhaseDarcyJRK15InputParametersEENSt8__detail9_MakeUniqIT_E15__single_objectEDpOT0_
FN:1064,_ZSt11make_uniqueI36BVFVMultiPhasePressureTimeDerivativeJRK15InputParametersEENSt8__detail9_MakeUniqIT_E15__single_objectEDpOT0_
FNDA:0,_ZSt11make_uniqueI36BVFVMultiPhasePressureTimeDerivativeJRK15InputParametersEENSt8__detail9_MakeUniqIT_E15__single_objectEDpOT0_
FN:1064,_ZSt11make_uniqueI27BVFVMultiPhasePressureDarcyJRK15InputParametersEENSt8__detail9_MakeUniqIT_E15__single_objectEDpOT0_
FNDA:0,_ZSt11make_uniqueI27BVFVMultiPhasePressureDarcyJRK15InputParametersEENSt8__detail9_MakeUniqIT_E15__single_objectEDpOT0_
FN:1064,_ZSt11make_uniqueI29BVFVMultiPhaseSaturationDarcyJRK15InputParametersEENSt8__detail9_MakeUniqIT_E15__single_objectEDpOT0_
FNDA:0,_ZSt11make_uniqueI29BVFVMultiPhaseSaturationDarcyJRK15InputParametersEENSt8__detail9_MakeUniqIT_E15__single_objectEDpOT0_
FN:1064,_ZSt11make_uniqueI38BVFVMultiPhaseSaturationTimeDerivativeJRK15InputParametersEENSt8__detail9_MakeUniqIT_E15__single_objectEDpOT0_
FNDA:0,_ZSt11make_uniqueI38BVFVMultiPhaseSaturationTimeDerivativeJRK15InputParametersEENSt8__detail9_MakeUniqIT_E15__single_objectEDpOT0_
FN:1064,_ZSt11make_uniqueIN7libMesh10Parameters9ParameterIP13FEProblemBaseEEJEENSt8__detail9_MakeUniqIT_E15__single_objectEDpOT0_
FNDA:0,_ZSt11make_uniqueIN7libMesh10Parameters9ParameterIP13FEProblemBaseEEJEENSt8__detail9_MakeUniqIT_E15__single_objectEDpOT0_
FN:1064,_ZSt11make_uniqueIN7libMesh10Parameters9ParameterItEEJEENSt8__detail9_MakeUniqIT_E15__single_objectEDpOT0_
FNDA:0,_ZSt11make_uniqueIN7libMesh10Parameters9ParameterItEEJEENSt8__detail9_MakeUniqIT_E15__single_objectEDpOT0_
FN:1064,_ZSt11make_uniqueI26BVFVSinglePhaseSoluteDarcyJRK15InputParametersEENSt8__detail9_MakeUniqIT_E15__single_objectEDpOT0_
FNDA:0,_ZSt11make_uniqueI26BVFVSinglePhaseSoluteDarcyJRK15InputParametersEENSt8__detail9_MakeUniqIT_E15__single_objectEDpOT0_
FN:1064,_ZSt11make_uniqueI18ADMaterialPropertyIdEJRKjEENSt8__detail9_MakeUniqIT_E15__single_objectEDpOT0_
FNDA:0,_ZSt11make_uniqueI18ADMaterialPropertyIdEJRKjEENSt8__detail9_MakeUniqIT_E15__single_objectEDpOT0_
FN:1064,_ZSt11make_uniqueI35BVFVSinglePhaseSoluteTimeDerivativeJRK15InputParametersEENSt8__detail9_MakeUniqIT_E15__single_objectEDpOT0_
FNDA:0,_ZSt11make_uniqueI35BVFVSinglePhaseSoluteTimeDerivativeJRK15InputParametersEENSt8__detail9_MakeUniqIT_E15__single_objectEDpOT0_
FN:1064,_ZSt11make_uniqueI29BVFVSinglePhaseTimeDerivativeJRK15InputParametersEENSt8__detail9_MakeUniqIT_E15__single_objectEDpOT0_
FNDA:1,_ZSt11make_uniqueI29BVFVSinglePhaseTimeDerivativeJRK15InputParametersEENSt8__detail9_MakeUniqIT_E15__single_objectEDpOT0_
FN:1064,_ZSt11make_uniqueI16MaterialPropertyIdEJjEENSt8__detail9_MakeUniqIT_E15__single_objectEDpOT0_
FNDA:0,_ZSt11make_uniqueI16MaterialPropertyIdEJjEENSt8__detail9_MakeUniqIT_E15__single_objectEDpOT0_
FN:1064,_ZSt11make_uniqueI16MaterialPropertyIdEJRKjEENSt8__detail9_MakeUniqIT_E15__single_objectEDpOT0_
FNDA:0,_ZSt11make_uniqueI16MaterialPropertyIdEJRKjEENSt8__detail9_MakeUniqIT_E15__single_objectEDpOT0_
FNF:57
FNH:4
DA:89,0
DA:95,0
DA:96,0
DA:89,0
DA:95,0
DA:96,0
DA:89,0
DA:95,0
DA:96,0
DA:89,0
DA:95,0
DA:96,0
DA:89,0
DA:95,0
DA:96,0
DA:95,0
DA:96,0
DA:128,0
DA:132,0
DA:133,0
DA:128,0
DA:132,0
DA:133,0
DA:128,0
DA:132,0
DA:133,0
DA:128,0
DA:132,0
DA:133,0
DA:128,0
DA:132,0
DA:133,0
DA:128,0
DA:132,0
DA:133,0
DA:132,0
DA:133,0
DA:168,4
DA:178,0
DA:181,0
DA:185,0
DA:181,0
DA:185,0
DA:191,0
DA:200,0
DA:201,0
DA:202,0
DA:203,0
DA:209,4
DA:210,4
DA:235,0
DA:390,0
DA:395,0
DA:396,0
DA:398,0
DA:390,0
DA:395,0
DA:398,0
DA:390,0
DA:395,0
DA:398,0
DA:390,0
DA:395,0
DA:398,0
DA:390,0
DA:395,0
DA:398,0
DA:390,0
DA:395,0
DA:398,0
DA:390,0
DA:395,0
DA:398,0
DA:390,0
DA:395,0
DA:398,0
DA:390,0
DA:395,0
DA:396,0
DA:398,0
DA:390,0
DA:395,0
DA:396,0
DA:398,0
DA:390,0
DA:395,0
DA:396,0
DA:398,0
DA:390,0
DA:395,0
DA:396,0
DA:398,0
DA:390,0
DA:395,0
DA:398,0
DA:390,0
DA:395,0
DA:398,0
DA:390,0
DA:395,0
DA:398,0
DA:390,0
DA:395,0
DA:398,0
DA:390,0
DA:395,0
DA:398,0
DA:390,1
DA:395,1
DA:398,1
DA:390,0
DA:395,0
DA:398,0
DA:390,0
DA:395,0
DA:398,0
DA:390,3
DA:395,3
DA:398,3
DA:390,0
DA:395,0
DA:398,0
DA:390,0
DA:395,0
DA:398,0
DA:390,0
DA:395,0
DA:398,0
DA:395,0
DA:398,0
DA:422,0
DA:426,0
DA:665,0
DA:668,0
DA:669,0
DA:671,0
DA:665,0
DA:668,0
DA:669,0
DA:671,0
DA:665,0
DA:668,0
DA:669,0
DA:671,0
DA:665,0
DA:668,0
DA:669,0
DA:671,0
DA:665,0
DA:668,0
DA:669,0
DA:671,0
DA:665,0
DA:668,0
DA:669,0
DA:671,0
DA:668,0
DA:1064,0
DA:1065,0
DA:1064,0
DA:1065,0
DA:1064,0
DA:1065,0
DA:1064,0
DA:1065,0
DA:1064,0
DA:1065,0
DA:1064,3
DA:1065,3
DA:1064,0
DA:1065,0
DA:1064,0
DA:1065,0
DA:1064,1
DA:1065,1
DA:1064,0
DA:1065,0
DA:1064,0
DA:1065,0
DA:1064,0
DA:1065,0
DA:1064,0
DA:1065,0
LF:183
LH:13
end_of_record
SF:/usr/share/miniconda3/envs/moose/libmesh/include/libmesh/parallel_object.h
DA:91,0
LF:1
LH:0
end_of_record
SF:/home/runner/work/beaver/beaver/build/header_symlinks/BVFVSinglePhaseSoluteTimeDerivative.h
LF:0
LH:0
end_of_record
SF:/home/runner/work/beaver/beaver/build/header_symlinks/BVFVMultiPhasePressureTimeDerivative.h
LF:0
LH:0
end_of_record
SF:/home/runner/work/beaver/beaver/moose/framework/build/header_symlinks/MathFVUtils.h
FN:113,_ZN5Moose2FV12interpCoeffsIdEESt4pairIddENS0_12InterpMethodERK8FaceInfobRKT_
FNDA:21146,_ZN5Moose2FV12interpCoeffsIdEESt4pairIddENS0_12InterpMethodERK8FaceInfobRKT_
FN:113,_ZN5Moose2FV12interpCoeffsIN11MetaPhysicL10DualNumberIdNS2_28SemiDynamicSparseNumberArrayIdmNS2_8NWrapperILm64EEEEELb1EEEEESt4pairIddENS0_12InterpMethodERK8FaceInfobRKT_
FNDA:0,_ZN5Moose2FV12interpCoeffsIN11MetaPhysicL10DualNumberIdNS2_28SemiDynamicSparseNumberArrayIdmNS2_8NWrapperILm64EEEEELb1EEEEESt4pairIddENS0_12InterpMethodERK8FaceInfobRKT_
FN:149,_ZN5Moose2FV19linearInterpolationIN11MetaPhysicL10DualNumberIdNS2_28SemiDynamicSparseNumberArrayIdmNS2_8NWrapperILm64EEEEELb1EEES8_EEN7libMesh12CompareTypesIT_T0_E9supertypeERKSB_RKSC_RK8FaceInfobNS0_12InterpMethodE
FNDA:21146,_ZN5Moose2FV19linearInterpolationIN11MetaPhysicL10DualNumberIdNS2_28SemiDynamicSparseNumberArrayIdmNS2_8NWrapperILm64EEEEELb1EEES8_EEN7libMesh12CompareTypesIT_T0_E9supertypeERKSB_RKSC_RK8FaceInfobNS0_12InterpMethodE
FN:176,_ZN5Moose2FV21harmonicInterpolationIN11MetaPhysicL10DualNumberIdNS2_28SemiDynamicSparseNumberArrayIdmNS2_8NWrapperILm64EEEEELb1EEES8_EEN7libMesh12CompareTypesIT_T0_E9supertypeERKSB_RKSC_RK8FaceInfob
FNDA:0,_ZN5Moose2FV21harmonicInterpolationIN11MetaPhysicL10DualNumberIdNS2_28SemiDynamicSparseNumberArrayIdmNS2_8NWrapperILm64EEEEELb1EEES8_EEN7libMesh12CompareTypesIT_T0_E9supertypeERKSB_RKSC_RK8FaceInfob
FN:281,_ZN5Moose2FV11interpolateIN11MetaPhysicL10DualNumberIdNS2_28SemiDynamicSparseNumberArrayIdmNS2_8NWrapperILm64EEEEELb1EEES8_S8_EEvNS0_12InterpMethodERT_RKT0_RKT1_RK8FaceInfob
FNDA:21146,_ZN5Moose2FV11interpolateIN11MetaPhysicL10DualNumberIdNS2_28SemiDynamicSparseNumberArrayIdmNS2_8NWrapperILm64EEEEELb1EEES8_S8_EEvNS0_12InterpMethodERT_RKT0_RKT1_RK8FaceInfob
FN:401,_ZN5Moose2FV11interpolateIN11MetaPhysicL10DualNumberIdNS2_28SemiDynamicSparseNumberArrayIdmNS2_8NWrapperILm64EEEEELb1EEES8_S8_N7libMesh11VectorValueIS8_EEEEvNS0_12InterpMethodERT_RKT0_RKT1_RKT2_RK8FaceInfob
FNDA:0,_ZN5Moose2FV11interpolateIN11MetaPhysicL10DualNumberIdNS2_28SemiDynamicSparseNumberArrayIdmNS2_8NWrapperILm64EEEEELb1EEES8_S8_N7libMesh11VectorValueIS8_EEEEvNS0_12InterpMethodERT_RKT0_RKT1_RKT2_RK8FaceInfob
FNF:6
FNH:3
DA:113,21146
DA:118,21146
DA:120,21146
DA:123,21146
DA:124,21146
DA:126,0
DA:129,0
DA:131,0
DA:132,0
DA:134,0
DA:137,0
DA:138,0
DA:113,0
DA:118,0
DA:120,0
DA:123,0
DA:124,0
DA:126,0
DA:129,0
DA:131,0
DA:132,0
DA:134,0
DA:137,0
DA:138,0
DA:123,0
DA:124,0
DA:126,0
DA:149,21146
DA:159,21146
DA:160,21146
DA:176,0
DA:189,0
DA:204,0
DA:281,21146
DA:288,21146
DA:290,21146
DA:292,21146
DA:293,21146
DA:294,0
DA:295,0
DA:296,0
DA:297,0
DA:298,0
DA:300,21146
DA:401,0
DA:409,0
DA:410,0
DA:411,0
LF:48
LH:14
end_of_record
SF:/home/runner/work/beaver/beaver/src/fvkernels/BVFVMultiPhaseSaturationDarcy.C
FN:19,_ZN29BVFVMultiPhaseSaturationDarcy11validParamsEv
FNDA:132,_ZN29BVFVMultiPhaseSaturationDarcy11validParamsEv
FN:30,_ZN29BVFVMultiPhaseSaturationDarcyC2ERK15InputParameters
FNDA:0,_ZN29BVFVMultiPhaseSaturationDarcyC2ERK15InputParameters
FN:49,_ZN29BVFVMultiPhaseSaturationDarcy17computeQpResidualEv
FNDA:0,_ZN29BVFVMultiPhaseSaturationDarcy17computeQpResidualEv
FNF:3
FNH:1
DA:19,132
DA:21,132
DA:22,132
DA:23,264
DA:24,264
DA:26,264
DA:27,132
DA:28,132
DA:30,0
DA:32,0
DA:33,0
DA:34,0
DA:35,0
DA:36,0
DA:37,0
DA:38,0
DA:39,0
DA:40,0
DA:41,0
DA:43,0
DA:44,0
DA:45,0
DA:46,0
DA:49,0
DA:52,0
DA:56,0
DA:58,0
DA:59,0
DA:60,0
DA:61,0
DA:62,0
DA:63,0
DA:64,0
DA:65,0
DA:69,0
DA:71,0
LF:36
LH:8
end_of_record
SF:/usr/share/miniconda3/envs/moose/x86_64-conda-linux-gnu/include/c++/12.3.0/bits/basic_string.tcc
FN:217,_ZNSt7__cxx1112basic_stringIcSt11char_traitsIcESaIcEE12_M_constructIPcEEvT_S7_St20forward_iterator_tag
FNDA:0,_ZNSt7__cxx1112basic_stringIcSt11char_traitsIcESaIcEE12_M_constructIPcEEvT_S7_St20forward_iterator_tag
FN:217,_ZNSt7__cxx1112basic_stringIcSt11char_traitsIcESaIcEE12_M_constructIPKcEEvT_S8_St20forward_iterator_tag
FNDA:5706,_ZNSt7__cxx1112basic_stringIcSt11char_traitsIcESaIcEE12_M_constructIPKcEEvT_S8_St20forward_iterator_tag
FN:606,_ZStplIcSt11char_traitsIcESaIcEENSt7__cxx1112basic_stringIT_T0_T1_EEPKS5_RKS8_
FNDA:0,_ZStplIcSt11char_traitsIcESaIcEENSt7__cxx1112basic_stringIT_T0_T1_EEPKS5_RKS8_
FNF:3
FNH:1
DA:217,0
DA:221,0
DA:223,0
DA:225,0
DA:226,0
DA:247,0
DA:248,0
DA:217,5706
DA:221,5706
DA:223,5706
DA:225,2770
DA:226,2770
DA:247,5706
DA:248,5706
DA:606,0
DA:618,0
DA:619,0
DA:621,0
LF:18
LH:7
end_of_record
SF:/usr/share/miniconda3/envs/moose/libmesh/include/metaphysicl/dynamicsparsenumberbase.h
FN:48,_ZN11MetaPhysicL23DynamicSparseNumberBaseINS_22DynamicStdArrayWrapperIdNS_8NWrapperILm64EEEEENS1_ImS3_EENS_28SemiDynamicSparseNumberArrayEJdmS3_EE6resizeEm
FNDA:10020614,_ZN11MetaPhysicL23DynamicSparseNumberBaseINS_22DynamicStdArrayWrapperIdNS_8NWrapperILm64EEEEENS1_ImS3_EENS_28SemiDynamicSparseNumberArrayEJdmS3_EE6resizeEm
FN:264,_ZNK11MetaPhysicL23DynamicSparseNumberBaseINS_22DynamicStdArrayWrapperIdNS_8NWrapperILm64EEEEENS1_ImS3_EENS_28SemiDynamicSparseNumberArrayEJdmS3_EEngEv
FNDA:21614,_ZNK11MetaPhysicL23DynamicSparseNumberBaseINS_22DynamicStdArrayWrapperIdNS_8NWrapperILm64EEEEENS1_ImS3_EENS_28SemiDynamicSparseNumberArrayEJdmS3_EEngEv
FN:282,_ZN11MetaPhysicL23DynamicSparseNumberBaseINS_22DynamicStdArrayWrapperIdNS_8NWrapperILm64EEEEENS1_ImS3_EENS_28SemiDynamicSparseNumberArrayEJdmS3_EE14sparsity_unionIS5_EEvRKT_
FNDA:0,_ZN11MetaPhysicL23DynamicSparseNumberBaseINS_22DynamicStdArrayWrapperIdNS_8NWrapperILm64EEEEENS1_ImS3_EENS_28SemiDynamicSparseNumberArrayEJdmS3_EE14sparsity_unionIS5_EEvRKT_
FN:553,_ZN11MetaPhysicL23DynamicSparseNumberBaseINS_22DynamicStdArrayWrapperIdNS_8NWrapperILm64EEEEENS1_ImS3_EENS_28SemiDynamicSparseNumberArrayEJdmS3_EEpLIJdmS3_EEERNS6_IdmS3_EERKNS6_IDpT_EE
FNDA:21146,_ZN11MetaPhysicL23DynamicSparseNumberBaseINS_22DynamicStdArrayWrapperIdNS_8NWrapperILm64EEEEENS1_ImS3_EENS_28SemiDynamicSparseNumberArrayEJdmS3_EEpLIJdmS3_EEERNS6_IdmS3_EERKNS6_IDpT_EE
FN:588,_ZN11MetaPhysicL23DynamicSparseNumberBaseINS_22DynamicStdArrayWrapperIdNS_8NWrapperILm64EEEEENS1_ImS3_EENS_28SemiDynamicSparseNumberArrayEJdmS3_EEmIIJdmS3_EEERNS6_IdmS3_EERKNS6_IDpT_EE
FNDA:9999000,_ZN11MetaPhysicL23DynamicSparseNumberBaseINS_22DynamicStdArrayWrapperIdNS_8NWrapperILm64EEEEENS1_ImS3_EENS_28SemiDynamicSparseNumberArrayEJdmS3_EEmIIJdmS3_EEERNS6_IdmS3_EERKNS6_IDpT_EE
FN:950,_ZN11MetaPhysicLmlINS_28SemiDynamicSparseNumberArrayENS_22DynamicStdArrayWrapperIdNS_8NWrapperILm64EEEEENS2_ImS4_EEJdmS4_EdEENS_14MultipliesTypeIT_IJDpT2_EET3_Lb1EvE9supertypeERKSC_RKNS_23DynamicSparseNumberBaseIT0_T1_T_JSA_EEE
FNDA:9999000,_ZN11MetaPhysicLmlINS_28SemiDynamicSparseNumberArrayENS_22DynamicStdArrayWrapperIdNS_8NWrapperILm64EEEEENS2_ImS4_EEJdmS4_EdEENS_14MultipliesTypeIT_IJDpT2_EET3_Lb1EvE9supertypeERKSC_RKNS_23DynamicSparseNumberBaseIT0_T1_T_JSA_EEE
FN:972,_ZN11MetaPhysicLmlINS_28SemiDynamicSparseNumberArrayENS_22DynamicStdArrayWrapperIdNS_8NWrapperILm64EEEEENS2_ImS4_EEJdmS4_EdEENS_14MultipliesTypeIT_IJDpT2_EET3_Lb0EvE9supertypeERKNS_23DynamicSparseNumberBaseIT0_T1_T_JSA_EEERKSC_
FNDA:0,_ZN11MetaPhysicLmlINS_28SemiDynamicSparseNumberArrayENS_22DynamicStdArrayWrapperIdNS_8NWrapperILm64EEEEENS2_ImS4_EEJdmS4_EdEENS_14MultipliesTypeIT_IJDpT2_EET3_Lb0EvE9supertypeERKNS_23DynamicSparseNumberBaseIT0_T1_T_JSA_EEERKSC_
FN:993,_ZN11MetaPhysicLdvINS_28SemiDynamicSparseNumberArrayENS_22DynamicStdArrayWrapperIdNS_8NWrapperILm64EEEEENS2_ImS4_EEJdmS4_EdEENS_11DividesTypeIT_IJDpT2_EET3_Lb0EvE9supertypeERKNS_23DynamicSparseNumberBaseIT0_T1_T_JSA_EEERKSC_
FNDA:0,_ZN11MetaPhysicLdvINS_28SemiDynamicSparseNumberArrayENS_22DynamicStdArrayWrapperIdNS_8NWrapperILm64EEEEENS2_ImS4_EEJdmS4_EdEENS_11DividesTypeIT_IJDpT2_EET3_Lb0EvE9supertypeERKNS_23DynamicSparseNumberBaseIT0_T1_T_JSA_EEERKSC_
FNF:8
FNH:5
DA:48,10020614
DA:50,10020614
DA:51,10020614
DA:55,1357754
DA:99,209793536
DA:129,10020146
DA:264,21614
DA:267,21614
DA:268,64374
DA:270,42760
DA:271,42760
DA:273,21614
DA:282,0
DA:304,0
DA:305,0
DA:306,0
DA:308,0
DA:309,0
DA:310,0
DA:313,0
DA:314,0
DA:315,0
DA:316,0
DA:317,0
DA:318,0
DA:321,0
DA:322,0
DA:323,0
DA:324,0
DA:326,0
DA:331,0
DA:336,0
DA:357,0
DA:358,0
DA:359,0
DA:360,0
DA:361,0
DA:362,0
DA:365,0
DA:366,0
DA:370,0
DA:371,0
DA:553,21146
DA:556,21146
DA:564,42292
DA:566,21146
DA:567,21146
DA:569,42292
DA:570,21146
DA:571,21146
DA:573,21146
DA:577,21146
DA:580,21146
DA:588,9999000
DA:591,9999000
DA:599,219792536
DA:601,209793536
DA:602,209793536
DA:604,410470677
DA:605,200677141
DA:606,200677141
DA:608,200677141
DA:612,209793536
DA:615,9999000
DA:693,0
DA:694,0
DA:705,203365252
DA:706,193364702
DA:950,9999000
DA:952,9999000
DA:956,9999000
DA:958,219792536
DA:959,209793536
DA:960,209793536
DA:963,9999000
DA:972,0
DA:974,0
DA:978,0
DA:980,0
DA:981,0
DA:982,0
DA:984,0
DA:993,0
DA:995,0
DA:998,0
DA:1000,0
DA:1001,0
DA:1002,0
DA:1005,0
LF:89
LH:43
end_of_record
SF:/usr/share/miniconda3/envs/moose/libmesh/include/metaphysicl/dynamicsparsenumberbase_decl.h
FN:72,_ZN11MetaPhysicL23DynamicSparseNumberBaseINS_22DynamicStdArrayWrapperIdNS_8NWrapperILm64EEEEENS1_ImS3_EENS_28SemiDynamicSparseNumberArrayEJdmS3_EEC2EOS7_
FNDA:0,_ZN11MetaPhysicL23DynamicSparseNumberBaseINS_22DynamicStdArrayWrapperIdNS_8NWrapperILm64EEEEENS1_ImS3_EENS_28SemiDynamicSparseNumberArrayEJdmS3_EEC2EOS7_
FN:75,_ZN11MetaPhysicL23DynamicSparseNumberBaseINS_22DynamicStdArrayWrapperIdNS_8NWrapperILm64EEEEENS1_ImS3_EENS_28SemiDynamicSparseNumberArrayEJdmS3_EEaSEOS7_
FNDA:85052,_ZN11MetaPhysicL23DynamicSparseNumberBaseINS_22DynamicStdArrayWrapperIdNS_8NWrapperILm64EEEEENS1_ImS3_EENS_28SemiDynamicSparseNumberArrayEJdmS3_EEaSEOS7_
FN:79,_ZN11MetaPhysicL23DynamicSparseNumberBaseINS_22DynamicStdArrayWrapperIdNS_8NWrapperILm64EEEEENS1_ImS3_EENS_28SemiDynamicSparseNumberArrayEJdmS3_EEC2ERKS7_
FNDA:21614,_ZN11MetaPhysicL23DynamicSparseNumberBaseINS_22DynamicStdArrayWrapperIdNS_8NWrapperILm64EEEEENS1_ImS3_EENS_28SemiDynamicSparseNumberArrayEJdmS3_EEC2ERKS7_
FN:81,_ZN11MetaPhysicL23DynamicSparseNumberBaseINS_22DynamicStdArrayWrapperIdNS_8NWrapperILm64EEEEENS1_ImS3_EENS_28SemiDynamicSparseNumberArrayEJdmS3_EEaSERKS7_
FNDA:642438,_ZN11MetaPhysicL23DynamicSparseNumberBaseINS_22DynamicStdArrayWrapperIdNS_8NWrapperILm64EEEEENS1_ImS3_EENS_28SemiDynamicSparseNumberArrayEJdmS3_EEaSERKS7_
FNF:4
FNH:3
DA:72,0
DA:75,85052
DA:79,21614
DA:81,642438
LF:4
LH:3
end_of_record
SF:/home/runner/work/beaver/beaver/moose/framework/build/header_symlinks/Coupleable.h
FN:135,_ZNK10Coupleable15coupledCallbackERKNSt7__cxx1112basic_stringIcSt11char_traitsIcESaIcEEEb
FNDA:288,_ZNK10Coupleable15coupledCallbackERKNSt7__cxx1112basic_stringIcSt11char_traitsIcESaIcEEEb
FNF:1
FNH:1
DA:135,288
LF:1
LH:1
end_of_record
SF:/home/runner/work/beaver/beaver/moose/framework/build/header_symlinks/ResidualObject.h
FN:76,_ZN14ResidualObject22computeOffDiagJacobianEj
FNDA:0,_ZN14ResidualObject22computeOffDiagJacobianEj
FN:82,_ZN14ResidualObject28computeOffDiagJacobianScalarEj
FNDA:0,_ZN14ResidualObject28computeOffDiagJacobianScalarEj
FN:88,_ZN14ResidualObject23computeNonlocalJacobianEv
FNDA:0,_ZN14ResidualObject23computeNonlocalJacobianEv
FN:93,_ZN14ResidualObject30computeNonlocalOffDiagJacobianEj
FNDA:0,_ZN14ResidualObject30computeNonlocalOffDiagJacobianEj
FN:112,_ZN14ResidualObject20precalculateResidualEv
FNDA:549279,_ZN14ResidualObject20precalculateResidualEv
FN:113,_ZN14ResidualObject20precalculateJacobianEv
FNDA:7872,_ZN14ResidualObject20precalculateJacobianEv
FN:114,_ZN14ResidualObject27precalculateOffDiagJacobianEj
FNDA:45416,_ZN14ResidualObject27precalculateOffDiagJacobianEj
FNF:7
FNH:3
DA:76,0
DA:82,0
DA:88,0
DA:93,0
DA:112,549279
DA:113,7872
DA:114,45416
LF:7
LH:3
end_of_record
SF:/home/runner/work/beaver/beaver/moose/framework/build/header_symlinks/MooseBaseParameterInterface.h
DA:47,0
DA:206,0
LF:2
LH:0
end_of_record
SF:/usr/share/miniconda3/envs/moose/libmesh/include/libmesh/dof_object.h
DA:828,0
LF:1
LH:0
end_of_record
SF:/home/runner/work/beaver/beaver/moose/framework/build/header_symlinks/MooseBase.h
FN:40,_ZN9MooseBaseD0Ev
FNDA:0,_ZN9MooseBaseD0Ev
FN:40,_ZN9MooseBaseD2Ev
FNDA:0,_ZN9MooseBaseD2Ev
FN:57,_ZNK9MooseBase4nameB5cxx11Ev
FNDA:0,_ZNK9MooseBase4nameB5cxx11Ev
FNF:3
FNH:0
DA:40,0
DA:40,0
DA:57,0
LF:3
LH:0
end_of_record
SF:/usr/share/miniconda3/envs/moose/libmesh/include/metaphysicl/raw_type.h
DA:73,0
LF:1
LH:0
end_of_record
SF:/usr/share/miniconda3/envs/moose/x86_64-conda-linux-gnu/include/c++/12.3.0/bits/stl_map.h
FN:502,_ZNSt3mapINSt7__cxx1112basic_stringIcSt11char_traitsIcESaIcEEESt6vectorISt10shared_ptrI17RegistryEntryBaseESaIS9_EESt4lessIS5_ESaISt4pairIKS5_SB_EEEixERSF_
FNDA:0,_ZNSt3mapINSt7__cxx1112basic_stringIcSt11char_traitsIcESaIcEEESt6vectorISt10shared_ptrI17RegistryEntryBaseESaIS9_EESt4lessIS5_ESaISt4pairIKS5_SB_EEEixERSF_
FN:502,_ZNSt3mapINSt7__cxx1112basic_stringIcSt11char_traitsIcESaIcEEEN15InputParameters8MetadataESt4lessIS5_ESaISt4pairIKS5_S7_EEEixERSB_
FNDA:0,_ZNSt3mapINSt7__cxx1112basic_stringIcSt11char_traitsIcESaIcEEEN15InputParameters8MetadataESt4lessIS5_ESaISt4pairIKS5_S7_EEEixERSB_
FN:502,_ZNSt3mapINSt7__cxx1112basic_stringIcSt11char_traitsIcESaIcEEESt10unique_ptrIN7libMesh10Parameters5ValueESt14default_deleteIS9_EESt4lessIvESaISt4pairIKS5_SC_EEEixERSG_
FNDA:0,_ZNSt3mapINSt7__cxx1112basic_stringIcSt11char_traitsIcESaIcEEESt10unique_ptrIN7libMesh10Parameters5ValueESt14default_deleteIS9_EESt4lessIvESaISt4pairIKS5_SC_EEEixERSG_
FN:522,_ZNSt3mapINSt7__cxx1112basic_stringIcSt11char_traitsIcESaIcEEES5_St4lessIS5_ESaISt4pairIKS5_S5_EEEixEOS5_
FNDA:0,_ZNSt3mapINSt7__cxx1112basic_stringIcSt11char_traitsIcESaIcEEES5_St4lessIS5_ESaISt4pairIKS5_S5_EEEixEOS5_
FN:721,_ZNSt3mapIN5Moose7FaceArgEdSt4lessIS1_ESaISt4pairIKS1_dEEE11try_emplaceIJdEEES4_ISt17_Rb_tree_iteratorIS6_EbERS5_DpOT_
FNDA:0,_ZNSt3mapIN5Moose7FaceArgEdSt4lessIS1_ESaISt4pairIKS1_dEEE11try_emplaceIJdEEES4_ISt17_Rb_tree_iteratorIS6_EbERS5_DpOT_
FN:721,_ZNSt3mapIN5Moose7ElemArgEdSt4lessIS1_ESaISt4pairIKS1_dEEE11try_emplaceIJdEEES4_ISt17_Rb_tree_iteratorIS6_EbERS5_DpOT_
FNDA:0,_ZNSt3mapIN5Moose7ElemArgEdSt4lessIS1_ESaISt4pairIKS1_dEEE11try_emplaceIJdEEES4_ISt17_Rb_tree_iteratorIS6_EbERS5_DpOT_
FN:721,_ZNSt3mapIN5Moose7ElemArgEN11MetaPhysicL10DualNumberIdNS2_28SemiDynamicSparseNumberArrayIdmNS2_8NWrapperILm64EEEEELb1EEESt4lessIS1_ESaISt4pairIKS1_S8_EEE11try_emplaceIJS8_EEESB_ISt17_Rb_tree_iteratorISD_EbERSC_DpOT_
FNDA:0,_ZNSt3mapIN5Moose7ElemArgEN11MetaPhysicL10DualNumberIdNS2_28SemiDynamicSparseNumberArrayIdmNS2_8NWrapperILm64EEEEELb1EEESt4lessIS1_ESaISt4pairIKS1_S8_EEE11try_emplaceIJS8_EEESB_ISt17_Rb_tree_iteratorISD_EbERSC_DpOT_
FN:721,_ZNSt3mapIN5Moose7FaceArgEN11MetaPhysicL10DualNumberIdNS2_28SemiDynamicSparseNumberArrayIdmNS2_8NWrapperILm64EEEEELb1EEESt4lessIS1_ESaISt4pairIKS1_S8_EEE11try_emplaceIJS8_EEESB_ISt17_Rb_tree_iteratorISD_EbERSC_DpOT_
FNDA:0,_ZNSt3mapIN5Moose7FaceArgEN11MetaPhysicL10DualNumberIdNS2_28SemiDynamicSparseNumberArrayIdmNS2_8NWrapperILm64EEEEELb1EEESt4lessIS1_ESaISt4pairIKS1_S8_EEE11try_emplaceIJS8_EEESB_ISt17_Rb_tree_iteratorISD_EbERSC_DpOT_
FN:1306,_ZNSt3mapIN5Moose7FaceArgEdSt4lessIS1_ESaISt4pairIKS1_dEEE11lower_boundERS5_
FNDA:0,_ZNSt3mapIN5Moose7FaceArgEdSt4lessIS1_ESaISt4pairIKS1_dEEE11lower_boundERS5_
FN:1306,_ZNSt3mapIN5Moose7ElemArgEdSt4lessIS1_ESaISt4pairIKS1_dEEE11lower_boundERS5_
FNDA:0,_ZNSt3mapIN5Moose7ElemArgEdSt4lessIS1_ESaISt4pairIKS1_dEEE11lower_boundERS5_
FN:1306,_ZNSt3mapIN5Moose7ElemArgEN11MetaPhysicL10DualNumberIdNS2_28SemiDynamicSparseNumberArrayIdmNS2_8NWrapperILm64EEEEELb1EEESt4lessIS1_ESaISt4pairIKS1_S8_EEE11lower_boundERSC_
FNDA:0,_ZNSt3mapIN5Moose7ElemArgEN11MetaPhysicL10DualNumberIdNS2_28SemiDynamicSparseNumberArrayIdmNS2_8NWrapperILm64EEEEELb1EEESt4lessIS1_ESaISt4pairIKS1_S8_EEE11lower_boundERSC_
FN:1306,_ZNSt3mapIN5Moose7FaceArgEN11MetaPhysicL10DualNumberIdNS2_28SemiDynamicSparseNumberArrayIdmNS2_8NWrapperILm64EEEEELb1EEESt4lessIS1_ESaISt4pairIKS1_S8_EEE11lower_boundERSC_
FNDA:0,_ZNSt3mapIN5Moose7FaceArgEN11MetaPhysicL10DualNumberIdNS2_28SemiDynamicSparseNumberArrayIdmNS2_8NWrapperILm64EEEEELb1EEESt4lessIS1_ESaISt4pairIKS1_S8_EEE11lower_boundERSC_
FN:1306,_ZNSt3mapINSt7__cxx1112basic_stringIcSt11char_traitsIcESaIcEEES5_St4lessIS5_ESaISt4pairIKS5_S5_EEE11lower_boundERS9_
FNDA:0,_ZNSt3mapINSt7__cxx1112basic_stringIcSt11char_traitsIcESaIcEEES5_St4lessIS5_ESaISt4pairIKS5_S5_EEE11lower_boundERS9_
FN:1306,_ZNSt3mapINSt7__cxx1112basic_stringIcSt11char_traitsIcESaIcEEESt6vectorISt10shared_ptrI17RegistryEntryBaseESaIS9_EESt4lessIS5_ESaISt4pairIKS5_SB_EEE11lower_boundERSF_
FNDA:0,_ZNSt3mapINSt7__cxx1112basic_stringIcSt11char_traitsIcESaIcEEESt6vectorISt10shared_ptrI17RegistryEntryBaseESaIS9_EESt4lessIS5_ESaISt4pairIKS5_SB_EEE11lower_boundERSF_
FN:1306,_ZNSt3mapINSt7__cxx1112basic_stringIcSt11char_traitsIcESaIcEEEN15InputParameters8MetadataESt4lessIS5_ESaISt4pairIKS5_S7_EEE11lower_boundERSB_
FNDA:0,_ZNSt3mapINSt7__cxx1112basic_stringIcSt11char_traitsIcESaIcEEEN15InputParameters8MetadataESt4lessIS5_ESaISt4pairIKS5_S7_EEE11lower_boundERSB_
FN:1306,_ZNSt3mapINSt7__cxx1112basic_stringIcSt11char_traitsIcESaIcEEESt10unique_ptrIN7libMesh10Parameters5ValueESt14default_deleteIS9_EESt4lessIvESaISt4pairIKS5_SC_EEE11lower_boundERSG_
FNDA:0,_ZNSt3mapINSt7__cxx1112basic_stringIcSt11char_traitsIcESaIcEEESt10unique_ptrIN7libMesh10Parameters5ValueESt14default_deleteIS9_EESt4lessIvESaISt4pairIKS5_SC_EEE11lower_boundERSG_
FNF:16
FNH:0
DA:312,0
DA:502,0
DA:507,0
DA:509,0
DA:511,0
DA:512,0
DA:513,0
DA:517,0
DA:502,0
DA:507,0
DA:509,0
DA:511,0
DA:512,0
DA:513,0
DA:517,0
DA:502,0
DA:507,0
DA:509,0
DA:511,0
DA:512,0
DA:513,0
DA:517,0
DA:522,0
DA:527,0
DA:529,0
DA:530,0
DA:532,0
DA:533,0
DA:638,0
DA:721,0
DA:723,0
DA:724,0
DA:726,0
DA:730,0
DA:732,0
DA:721,0
DA:723,0
DA:724,0
DA:726,0
DA:730,0
DA:732,0
DA:721,0
DA:723,0
DA:724,0
DA:726,0
DA:730,0
DA:732,0
DA:721,0
DA:723,0
DA:724,0
DA:726,0
DA:730,0
DA:732,0
DA:1182,0
DA:1243,0
DA:1249,0
DA:1306,0
DA:1307,0
DA:1306,0
DA:1307,0
DA:1306,0
DA:1307,0
DA:1306,0
DA:1307,0
DA:1306,0
DA:1307,0
DA:1306,0
DA:1307,0
DA:1306,0
DA:1307,0
DA:1306,0
DA:1307,0
LF:72
LH:0
end_of_record
SF:/usr/share/miniconda3/envs/moose/x86_64-conda-linux-gnu/include/c++/12.3.0/optional
LF:0
LH:0
end_of_record
SF:/usr/share/miniconda3/envs/moose/x86_64-conda-linux-gnu/include/c++/12.3.0/sstream
DA:918,0
DA:1137,0
LF:2
LH:0
end_of_record
SF:/usr/share/miniconda3/envs/moose/libmesh/include/timpi/message_tag.h
LF:0
LH:0
end_of_record
SF:/home/runner/work/beaver/beaver/src/fvkernels/BVFVSinglePhaseSoluteTimeDerivative.C
FN:19,_ZN35BVFVSinglePhaseSoluteTimeDerivative11validParamsEv
FNDA:132,_ZN35BVFVSinglePhaseSoluteTimeDerivative11validParamsEv
FN:27,_ZN35BVFVSinglePhaseSoluteTimeDerivativeC2ERK15InputParameters
FNDA:0,_ZN35BVFVSinglePhaseSoluteTimeDerivativeC2ERK15InputParameters
FN:34,_ZN35BVFVSinglePhaseSoluteTimeDerivative17computeQpResidualEv
FNDA:0,_ZN35BVFVSinglePhaseSoluteTimeDerivative17computeQpResidualEv
FNF:3
FNH:1
DA:19,132
DA:21,132
DA:22,132
DA:24,132
DA:25,0
DA:27,0
DA:28,0
DA:29,0
DA:31,0
DA:34,0
DA:36,0
LF:11
LH:4
end_of_record
SF:/home/runner/work/beaver/beaver/src/fvkernels/BVFVSinglePhaseSoluteDarcy.C
FN:19,_ZN26BVFVSinglePhaseSoluteDarcy11validParamsEv
FNDA:132,_ZN26BVFVSinglePhaseSoluteDarcy11validParamsEv
FN:28,_ZN26BVFVSinglePhaseSoluteDarcyC2ERK15InputParameters
FNDA:0,_ZN26BVFVSinglePhaseSoluteDarcyC2ERK15InputParameters
FN:39,_ZN26BVFVSinglePhaseSoluteDarcy17computeQpResidualEv
FNDA:0,_ZN26BVFVSinglePhaseSoluteDarcy17computeQpResidualEv
FNF:3
FNH:1
DA:19,132
DA:21,132
DA:22,132
DA:24,264
DA:25,132
DA:26,0
DA:28,0
DA:30,0
DA:31,0
DA:32,0
DA:33,0
DA:34,0
DA:36,0
DA:39,0
DA:43,0
DA:46,0
DA:49,0
DA:51,0
LF:18
LH:5
end_of_record
SF:/home/runner/work/beaver/beaver/build/header_symlinks/BVFVFluxKernelBase.h
LF:0
LH:0
end_of_record
SF:/home/runner/work/beaver/beaver/moose/framework/build/header_symlinks/ScalarCoupleable.h
LF:0
LH:0
end_of_record
SF:/home/runner/work/beaver/beaver/moose/framework/build/header_symlinks/MooseMesh.h
LF:0
LH:0
end_of_record
SF:/home/runner/work/beaver/beaver/moose/framework/build/header_symlinks/ADFunctorInterface.h
FN:27,_ZNK18ADFunctorInterface10isADObjectEv
FNDA:0,_ZNK18ADFunctorInterface10isADObjectEv
FNF:1
FNH:0
DA:27,0
LF:1
LH:0
end_of_record
SF:/usr/share/miniconda3/envs/moose/libmesh/include/libmesh/reference_counter.h
DA:152,0
LF:1
LH:0
end_of_record
SF:/usr/share/miniconda3/envs/moose/x86_64-conda-linux-gnu/include/c++/12.3.0/bits/stl_set.h
FN:281,_ZNSt3setIsSt4lessIsESaIsEED2Ev
FNDA:0,_ZNSt3setIsSt4lessIsESaIsEED2Ev
FN:281,_ZNSt3setItSt4lessItESaItEED2Ev
FNDA:0,_ZNSt3setItSt4lessItESaItEED2Ev
FNF:2
FNH:0
DA:281,0
DA:281,0
DA:281,0
DA:749,0
LF:4
LH:0
end_of_record
SF:/usr/share/miniconda3/envs/moose/libmesh/include/Eigen/src/Core/util/Memory.h
DA:203,0
LF:1
LH:0
end_of_record
SF:/usr/share/miniconda3/envs/moose/libmesh/include/libmesh/int_range.h
DA:64,0
DA:65,0
LF:2
LH:0
end_of_record
SF:/usr/share/miniconda3/envs/moose/x86_64-conda-linux-gnu/include/c++/12.3.0/bits/allocated_ptr.h
FN:71,_ZNSt15__allocated_ptrISaISt23_Sp_counted_ptr_inplaceI13RegistryEntryI29BVFVSinglePhaseTimeDerivativeESaIvELN9__gnu_cxx12_Lock_policyE2EEEED2Ev
FNDA:26,_ZNSt15__allocated_ptrISaISt23_Sp_counted_ptr_inplaceI13RegistryEntryI29BVFVSinglePhaseTimeDerivativeESaIvELN9__gnu_cxx12_Lock_policyE2EEEED2Ev
FN:71,_ZNSt15__allocated_ptrISaISt23_Sp_counted_ptr_inplaceI13RegistryEntryI35BVFVSinglePhaseSoluteTimeDerivativeESaIvELN9__gnu_cxx12_Lock_policyE2EEEED2Ev
FNDA:26,_ZNSt15__allocated_ptrISaISt23_Sp_counted_ptr_inplaceI13RegistryEntryI35BVFVSinglePhaseSoluteTimeDerivativeESaIvELN9__gnu_cxx12_Lock_policyE2EEEED2Ev
FN:71,_ZNSt15__allocated_ptrISaISt23_Sp_counted_ptr_inplaceI13RegistryEntryI26BVFVSinglePhaseSoluteDarcyESaIvELN9__gnu_cxx12_Lock_policyE2EEEED2Ev
FNDA:26,_ZNSt15__allocated_ptrISaISt23_Sp_counted_ptr_inplaceI13RegistryEntryI26BVFVSinglePhaseSoluteDarcyESaIvELN9__gnu_cxx12_Lock_policyE2EEEED2Ev
FN:71,_ZNSt15__allocated_ptrISaISt23_Sp_counted_ptr_inplaceI13RegistryEntryI20BVFVSinglePhaseDarcyESaIvELN9__gnu_cxx12_Lock_policyE2EEEED2Ev
FNDA:26,_ZNSt15__allocated_ptrISaISt23_Sp_counted_ptr_inplaceI13RegistryEntryI20BVFVSinglePhaseDarcyESaIvELN9__gnu_cxx12_Lock_policyE2EEEED2Ev
FN:71,_ZNSt15__allocated_ptrISaISt23_Sp_counted_ptr_inplaceI13RegistryEntryI38BVFVMultiPhaseSaturationTimeDerivativeESaIvELN9__gnu_cxx12_Lock_policyE2EEEED2Ev
FNDA:26,_ZNSt15__allocated_ptrISaISt23_Sp_counted_ptr_inplaceI13RegistryEntryI38BVFVMultiPhaseSaturationTimeDerivativeESaIvELN9__gnu_cxx12_Lock_policyE2EEEED2Ev
FN:71,_ZNSt15__allocated_ptrISaISt23_Sp_counted_ptr_inplaceI13RegistryEntryI29BVFVMultiPhaseSaturationDarcyESaIvELN9__gnu_cxx12_Lock_policyE2EEEED2Ev
FNDA:26,_ZNSt15__allocated_ptrISaISt23_Sp_counted_ptr_inplaceI13RegistryEntryI29BVFVMultiPhaseSaturationDarcyESaIvELN9__gnu_cxx12_Lock_policyE2EEEED2Ev
FN:71,_ZNSt15__allocated_ptrISaISt23_Sp_counted_ptr_inplaceI13RegistryEntryI36BVFVMultiPhasePressureTimeDerivativeESaIvELN9__gnu_cxx12_Lock_policyE2EEEED2Ev
FNDA:26,_ZNSt15__allocated_ptrISaISt23_Sp_counted_ptr_inplaceI13RegistryEntryI36BVFVMultiPhasePressureTimeDerivativeESaIvELN9__gnu_cxx12_Lock_policyE2EEEED2Ev
FN:71,_ZNSt15__allocated_ptrISaISt23_Sp_counted_ptr_inplaceI13RegistryEntryI27BVFVMultiPhasePressureDarcyESaIvELN9__gnu_cxx12_Lock_policyE2EEEED2Ev
FNDA:26,_ZNSt15__allocated_ptrISaISt23_Sp_counted_ptr_inplaceI13RegistryEntryI27BVFVMultiPhasePressureDarcyESaIvELN9__gnu_cxx12_Lock_policyE2EEEED2Ev
FN:71,_ZNSt15__allocated_ptrISaISt23_Sp_counted_ptr_inplaceINSt13__future_base13_State_baseV2ESaIvELN9__gnu_cxx12_Lock_policyE2EEEED2Ev
FNDA:0,_ZNSt15__allocated_ptrISaISt23_Sp_counted_ptr_inplaceINSt13__future_base13_State_baseV2ESaIvELN9__gnu_cxx12_Lock_policyE2EEEED2Ev
FN:71,_ZNSt15__allocated_ptrISaISt23_Sp_counted_ptr_inplaceISt5mutexSaIvELN9__gnu_cxx12_Lock_policyE2EEEED2Ev
FNDA:0,_ZNSt15__allocated_ptrISaISt23_Sp_counted_ptr_inplaceISt5mutexSaIvELN9__gnu_cxx12_Lock_policyE2EEEED2Ev
FNF:10
FNH:8
DA:53,0
DA:54,208
DA:71,26
DA:73,26
DA:75,26
DA:71,26
DA:73,26
DA:75,26
DA:71,26
DA:73,26
DA:75,26
DA:71,26
DA:73,26
DA:75,26
DA:71,26
DA:73,26
DA:75,26
DA:71,26
DA:73,26
DA:75,26
DA:71,26
DA:73,26
DA:75,26
DA:71,26
DA:73,26
DA:75,26
DA:71,0
DA:73,0
DA:75,0
DA:71,0
DA:73,0
DA:75,0
DA:81,208
LF:33
LH:26
end_of_record
SF:/home/runner/work/beaver/beaver/moose/framework/build/header_symlinks/MooseFunctor.h
FN:152,_ZN5Moose11FunctorBaseIdED2Ev
FNDA:0,_ZN5Moose11FunctorBaseIdED2Ev
FN:152,_ZN5Moose11FunctorBaseIdED0Ev
FNDA:0,_ZN5Moose11FunctorBaseIdED0Ev
FN:152,_ZN5Moose11FunctorBaseIN11MetaPhysicL10DualNumberIdNS1_28SemiDynamicSparseNumberArrayIdmNS1_8NWrapperILm64EEEEELb1EEEED2Ev
FNDA:0,_ZN5Moose11FunctorBaseIN11MetaPhysicL10DualNumberIdNS1_28SemiDynamicSparseNumberArrayIdmNS1_8NWrapperILm64EEEEELb1EEEED2Ev
FN:152,_ZN5Moose11FunctorBaseIN11MetaPhysicL10DualNumberIdNS1_28SemiDynamicSparseNumberArrayIdmNS1_8NWrapperILm64EEEEELb1EEEED0Ev
FNDA:0,_ZN5Moose11FunctorBaseIN11MetaPhysicL10DualNumberIdNS1_28SemiDynamicSparseNumberArrayIdmNS1_8NWrapperILm64EEEEELb1EEEED0Ev
FN:237,_ZNK5Moose11FunctorBaseIN11MetaPhysicL10DualNumberIdNS1_28SemiDynamicSparseNumberArrayIdmNS1_8NWrapperILm64EEEEELb1EEEE9hasBlocksEt
FNDA:0,_ZNK5Moose11FunctorBaseIN11MetaPhysicL10DualNumberIdNS1_28SemiDynamicSparseNumberArrayIdmNS1_8NWrapperILm64EEEEELb1EEEE9hasBlocksEt
FN:237,_ZNK5Moose11FunctorBaseIdE9hasBlocksEt
FNDA:0,_ZNK5Moose11FunctorBaseIdE9hasBlocksEt
FN:247,_ZNK5Moose11FunctorBaseIN11MetaPhysicL10DualNumberIdNS1_28SemiDynamicSparseNumberArrayIdmNS1_8NWrapperILm64EEEEELb1EEEE26isExtrapolatedBoundaryFaceERK8FaceInfoPKN7libMesh4ElemERKNS_8StateArgE
FNDA:0,_ZNK5Moose11FunctorBaseIN11MetaPhysicL10DualNumberIdNS1_28SemiDynamicSparseNumberArrayIdmNS1_8NWrapperILm64EEEEELb1EEEE26isExtrapolatedBoundaryFaceERK8FaceInfoPKN7libMesh4ElemERKNS_8StateArgE
FN:247,_ZNK5Moose11FunctorBaseIdE26isExtrapolatedBoundaryFaceERK8FaceInfoPKN7libMesh4ElemERKNS_8StateArgE
FNDA:0,_ZNK5Moose11FunctorBaseIdE26isExtrapolatedBoundaryFaceERK8FaceInfoPKN7libMesh4ElemERKNS_8StateArgE
FN:260,_ZNK5Moose11FunctorBaseIdE10isConstantEv
FNDA:0,_ZNK5Moose11FunctorBaseIdE10isConstantEv
FN:260,_ZNK5Moose11FunctorBaseIN11MetaPhysicL10DualNumberIdNS1_28SemiDynamicSparseNumberArrayIdmNS1_8NWrapperILm64EEEEELb1EEEE10isConstantEv
FNDA:0,_ZNK5Moose11FunctorBaseIN11MetaPhysicL10DualNumberIdNS1_28SemiDynamicSparseNumberArrayIdmNS1_8NWrapperILm64EEEEELb1EEEE10isConstantEv
FN:332,_ZNK5Moose11FunctorBaseIdE16evaluateGradientERKNS_7ElemArgERKNS_8StateArgE
FNDA:0,_ZNK5Moose11FunctorBaseIdE16evaluateGradientERKNS_7ElemArgERKNS_8StateArgE
FN:332,_ZNK5Moose11FunctorBaseIN11MetaPhysicL10DualNumberIdNS1_28SemiDynamicSparseNumberArrayIdmNS1_8NWrapperILm64EEEEELb1EEEE16evaluateGradientERKNS_7ElemArgERKNS_8StateArgE
FNDA:0,_ZNK5Moose11FunctorBaseIN11MetaPhysicL10DualNumberIdNS1_28SemiDynamicSparseNumberArrayIdmNS1_8NWrapperILm64EEEEELb1EEEE16evaluateGradientERKNS_7ElemArgERKNS_8StateArgE
FN:342,_ZNK5Moose11FunctorBaseIdE16evaluateGradientERKNS_7FaceArgERKNS_8StateArgE
FNDA:0,_ZNK5Moose11FunctorBaseIdE16evaluateGradientERKNS_7FaceArgERKNS_8StateArgE
FN:342,_ZNK5Moose11FunctorBaseIN11MetaPhysicL10DualNumberIdNS1_28SemiDynamicSparseNumberArrayIdmNS1_8NWrapperILm64EEEEELb1EEEE16evaluateGradientERKNS_7FaceArgERKNS_8StateArgE
FNDA:0,_ZNK5Moose11FunctorBaseIN11MetaPhysicL10DualNumberIdNS1_28SemiDynamicSparseNumberArrayIdmNS1_8NWrapperILm64EEEEELb1EEEE16evaluateGradientERKNS_7FaceArgERKNS_8StateArgE
FN:352,_ZNK5Moose11FunctorBaseIdE16evaluateGradientERKNS_9ElemQpArgERKNS_8StateArgE
FNDA:0,_ZNK5Moose11FunctorBaseIdE16evaluateGradientERKNS_9ElemQpArgERKNS_8StateArgE
FN:352,_ZNK5Moose11FunctorBaseIN11MetaPhysicL10DualNumberIdNS1_28SemiDynamicSparseNumberArrayIdmNS1_8NWrapperILm64EEEEELb1EEEE16evaluateGradientERKNS_9ElemQpArgERKNS_8StateArgE
FNDA:0,_ZNK5Moose11FunctorBaseIN11MetaPhysicL10DualNumberIdNS1_28SemiDynamicSparseNumberArrayIdmNS1_8NWrapperILm64EEEEELb1EEEE16evaluateGradientERKNS_9ElemQpArgERKNS_8StateArgE
FN:362,_ZNK5Moose11FunctorBaseIN11MetaPhysicL10DualNumberIdNS1_28SemiDynamicSparseNumberArrayIdmNS1_8NWrapperILm64EEEEELb1EEEE16evaluateGradientERKNS_13ElemSideQpArgERKNS_8StateArgE
FNDA:0,_ZNK5Moose11FunctorBaseIN11MetaPhysicL10DualNumberIdNS1_28SemiDynamicSparseNumberArrayIdmNS1_8NWrapperILm64EEEEELb1EEEE16evaluateGradientERKNS_13ElemSideQpArgERKNS_8StateArgE
FN:362,_ZNK5Moose11FunctorBaseIdE16evaluateGradientERKNS_13ElemSideQpArgERKNS_8StateArgE
FNDA:0,_ZNK5Moose11FunctorBaseIdE16evaluateGradientERKNS_13ElemSideQpArgERKNS_8StateArgE
FN:371,_ZNK5Moose11FunctorBaseIdE16evaluateGradientERKNS_12ElemPointArgERKNS_8StateArgE
FNDA:0,_ZNK5Moose11FunctorBaseIdE16evaluateGradientERKNS_12ElemPointArgERKNS_8StateArgE
FN:371,_ZNK5Moose11FunctorBaseIN11MetaPhysicL10DualNumberIdNS1_28SemiDynamicSparseNumberArrayIdmNS1_8NWrapperILm64EEEEELb1EEEE16evaluateGradientERKNS_12ElemPointArgERKNS_8StateArgE
FNDA:0,_ZNK5Moose11FunctorBaseIN11MetaPhysicL10DualNumberIdNS1_28SemiDynamicSparseNumberArrayIdmNS1_8NWrapperILm64EEEEELb1EEEE16evaluateGradientERKNS_12ElemPointArgERKNS_8StateArgE
FN:376,_ZNK5Moose11FunctorBaseIdE16evaluateGradientERKNS_7NodeArgERKNS_8StateArgE
FNDA:0,_ZNK5Moose11FunctorBaseIdE16evaluateGradientERKNS_7NodeArgERKNS_8StateArgE
FN:376,_ZNK5Moose11FunctorBaseIN11MetaPhysicL10DualNumberIdNS1_28SemiDynamicSparseNumberArrayIdmNS1_8NWrapperILm64EEEEELb1EEEE16evaluateGradientERKNS_7NodeArgERKNS_8StateArgE
FNDA:0,_ZNK5Moose11FunctorBaseIN11MetaPhysicL10DualNumberIdNS1_28SemiDynamicSparseNumberArrayIdmNS1_8NWrapperILm64EEEEELb1EEEE16evaluateGradientERKNS_7NodeArgERKNS_8StateArgE
FN:385,_ZNK5Moose11FunctorBaseIdE11evaluateDotERKNS_7ElemArgERKNS_8StateArgE
FNDA:0,_ZNK5Moose11FunctorBaseIdE11evaluateDotERKNS_7ElemArgERKNS_8StateArgE
FN:385,_ZNK5Moose11FunctorBaseIN11MetaPhysicL10DualNumberIdNS1_28SemiDynamicSparseNumberArrayIdmNS1_8NWrapperILm64EEEEELb1EEEE11evaluateDotERKNS_7ElemArgERKNS_8StateArgE
FNDA:0,_ZNK5Moose11FunctorBaseIN11MetaPhysicL10DualNumberIdNS1_28SemiDynamicSparseNumberArrayIdmNS1_8NWrapperILm64EEEEELb1EEEE11evaluateDotERKNS_7ElemArgERKNS_8StateArgE
FN:395,_ZNK5Moose11FunctorBaseIdE11evaluateDotERKNS_7FaceArgERKNS_8StateArgE
FNDA:0,_ZNK5Moose11FunctorBaseIdE11evaluateDotERKNS_7FaceArgERKNS_8StateArgE
FN:395,_ZNK5Moose11FunctorBaseIN11MetaPhysicL10DualNumberIdNS1_28SemiDynamicSparseNumberArrayIdmNS1_8NWrapperILm64EEEEELb1EEEE11evaluateDotERKNS_7FaceArgERKNS_8StateArgE
FNDA:0,_ZNK5Moose11FunctorBaseIN11MetaPhysicL10DualNumberIdNS1_28SemiDynamicSparseNumberArrayIdmNS1_8NWrapperILm64EEEEELb1EEEE11evaluateDotERKNS_7FaceArgERKNS_8StateArgE
FN:405,_ZNK5Moose11FunctorBaseIdE11evaluateDotERKNS_9ElemQpArgERKNS_8StateArgE
FNDA:0,_ZNK5Moose11FunctorBaseIdE11evaluateDotERKNS_9ElemQpArgERKNS_8StateArgE
FN:405,_ZNK5Moose11FunctorBaseIN11MetaPhysicL10DualNumberIdNS1_28SemiDynamicSparseNumberArrayIdmNS1_8NWrapperILm64EEEEELb1EEEE11evaluateDotERKNS_9ElemQpArgERKNS_8StateArgE
FNDA:0,_ZNK5Moose11FunctorBaseIN11MetaPhysicL10DualNumberIdNS1_28SemiDynamicSparseNumberArrayIdmNS1_8NWrapperILm64EEEEELb1EEEE11evaluateDotERKNS_9ElemQpArgERKNS_8StateArgE
FN:416,_ZNK5Moose11FunctorBaseIN11MetaPhysicL10DualNumberIdNS1_28SemiDynamicSparseNumberArrayIdmNS1_8NWrapperILm64EEEEELb1EEEE11evaluateDotERKNS_13ElemSideQpArgERKNS_8StateArgE
FNDA:0,_ZNK5Moose11FunctorBaseIN11MetaPhysicL10DualNumberIdNS1_28SemiDynamicSparseNumberArrayIdmNS1_8NWrapperILm64EEEEELb1EEEE11evaluateDotERKNS_13ElemSideQpArgERKNS_8StateArgE
FN:416,_ZNK5Moose11FunctorBaseIdE11evaluateDotERKNS_13ElemSideQpArgERKNS_8StateArgE
FNDA:0,_ZNK5Moose11FunctorBaseIdE11evaluateDotERKNS_13ElemSideQpArgERKNS_8StateArgE
FN:425,_ZNK5Moose11FunctorBaseIN11MetaPhysicL10DualNumberIdNS1_28SemiDynamicSparseNumberArrayIdmNS1_8NWrapperILm64EEEEELb1EEEE11evaluateDotERKNS_12ElemPointArgERKNS_8StateArgE
FNDA:0,_ZNK5Moose11FunctorBaseIN11MetaPhysicL10DualNumberIdNS1_28SemiDynamicSparseNumberArrayIdmNS1_8NWrapperILm64EEEEELb1EEEE11evaluateDotERKNS_12ElemPointArgERKNS_8StateArgE
FN:425,_ZNK5Moose11FunctorBaseIdE11evaluateDotERKNS_12ElemPointArgERKNS_8StateArgE
FNDA:0,_ZNK5Moose11FunctorBaseIdE11evaluateDotERKNS_12ElemPointArgERKNS_8StateArgE
FN:430,_ZNK5Moose11FunctorBaseIN11MetaPhysicL10DualNumberIdNS1_28SemiDynamicSparseNumberArrayIdmNS1_8NWrapperILm64EEEEELb1EEEE11evaluateDotERKNS_7NodeArgERKNS_8StateArgE
FNDA:0,_ZNK5Moose11FunctorBaseIN11MetaPhysicL10DualNumberIdNS1_28SemiDynamicSparseNumberArrayIdmNS1_8NWrapperILm64EEEEELb1EEEE11evaluateDotERKNS_7NodeArgERKNS_8StateArgE
FN:430,_ZNK5Moose11FunctorBaseIdE11evaluateDotERKNS_7NodeArgERKNS_8StateArgE
FNDA:0,_ZNK5Moose11FunctorBaseIdE11evaluateDotERKNS_7NodeArgERKNS_8StateArgE
FN:439,_ZNK5Moose11FunctorBaseIN11MetaPhysicL10DualNumberIdNS1_28SemiDynamicSparseNumberArrayIdmNS1_8NWrapperILm64EEEEELb1EEEE15evaluateGradDotERKNS_7ElemArgERKNS_8StateArgE
FNDA:0,_ZNK5Moose11FunctorBaseIN11MetaPhysicL10DualNumberIdNS1_28SemiDynamicSparseNumberArrayIdmNS1_8NWrapperILm64EEEEELb1EEEE15evaluateGradDotERKNS_7ElemArgERKNS_8StateArgE
FN:439,_ZNK5Moose11FunctorBaseIdE15evaluateGradDotERKNS_7ElemArgERKNS_8StateArgE
FNDA:0,_ZNK5Moose11FunctorBaseIdE15evaluateGradDotERKNS_7ElemArgERKNS_8StateArgE
FN:449,_ZNK5Moose11FunctorBaseIN11MetaPhysicL10DualNumberIdNS1_28SemiDynamicSparseNumberArrayIdmNS1_8NWrapperILm64EEEEELb1EEEE15evaluateGradDotERKNS_7FaceArgERKNS_8StateArgE
FNDA:0,_ZNK5Moose11FunctorBaseIN11MetaPhysicL10DualNumberIdNS1_28SemiDynamicSparseNumberArrayIdmNS1_8NWrapperILm64EEEEELb1EEEE15evaluateGradDotERKNS_7FaceArgERKNS_8StateArgE
FN:449,_ZNK5Moose11FunctorBaseIdE15evaluateGradDotERKNS_7FaceArgERKNS_8StateArgE
FNDA:0,_ZNK5Moose11FunctorBaseIdE15evaluateGradDotERKNS_7FaceArgERKNS_8StateArgE
FN:459,_ZNK5Moose11FunctorBaseIN11MetaPhysicL10DualNumberIdNS1_28SemiDynamicSparseNumberArrayIdmNS1_8NWrapperILm64EEEEELb1EEEE15evaluateGradDotERKNS_9ElemQpArgERKNS_8StateArgE
FNDA:0,_ZNK5Moose11FunctorBaseIN11MetaPhysicL10DualNumberIdNS1_28SemiDynamicSparseNumberArrayIdmNS1_8NWrapperILm64EEEEELb1EEEE15evaluateGradDotERKNS_9ElemQpArgERKNS_8StateArgE
FN:459,_ZNK5Moose11FunctorBaseIdE15evaluateGradDotERKNS_9ElemQpArgERKNS_8StateArgE
FNDA:0,_ZNK5Moose11FunctorBaseIdE15evaluateGradDotERKNS_9ElemQpArgERKNS_8StateArgE
FN:470,_ZNK5Moose11FunctorBaseIN11MetaPhysicL10DualNumberIdNS1_28SemiDynamicSparseNumberArrayIdmNS1_8NWrapperILm64EEEEELb1EEEE15evaluateGradDotERKNS_13ElemSideQpArgERKNS_8StateArgE
FNDA:0,_ZNK5Moose11FunctorBaseIN11MetaPhysicL10DualNumberIdNS1_28SemiDynamicSparseNumberArrayIdmNS1_8NWrapperILm64EEEEELb1EEEE15evaluateGradDotERKNS_13ElemSideQpArgERKNS_8StateArgE
FN:470,_ZNK5Moose11FunctorBaseIdE15evaluateGradDotERKNS_13ElemSideQpArgERKNS_8StateArgE
FNDA:0,_ZNK5Moose11FunctorBaseIdE15evaluateGradDotERKNS_13ElemSideQpArgERKNS_8StateArgE
FN:479,_ZNK5Moose11FunctorBaseIdE15evaluateGradDotERKNS_12ElemPointArgERKNS_8StateArgE
FNDA:0,_ZNK5Moose11FunctorBaseIdE15evaluateGradDotERKNS_12ElemPointArgERKNS_8StateArgE
FN:479,_ZNK5Moose11FunctorBaseIN11MetaPhysicL10DualNumberIdNS1_28SemiDynamicSparseNumberArrayIdmNS1_8NWrapperILm64EEEEELb1EEEE15evaluateGradDotERKNS_12ElemPointArgERKNS_8StateArgE
FNDA:0,_ZNK5Moose11FunctorBaseIN11MetaPhysicL10DualNumberIdNS1_28SemiDynamicSparseNumberArrayIdmNS1_8NWrapperILm64EEEEELb1EEEE15evaluateGradDotERKNS_12ElemPointArgERKNS_8StateArgE
FN:484,_ZNK5Moose11FunctorBaseIdE15evaluateGradDotERKNS_7NodeArgERKNS_8StateArgE
FNDA:0,_ZNK5Moose11FunctorBaseIdE15evaluateGradDotERKNS_7NodeArgERKNS_8StateArgE
FN:484,_ZNK5Moose11FunctorBaseIN11MetaPhysicL10DualNumberIdNS1_28SemiDynamicSparseNumberArrayIdmNS1_8NWrapperILm64EEEEELb1EEEE15evaluateGradDotERKNS_7NodeArgERKNS_8StateArgE
FNDA:0,_ZNK5Moose11FunctorBaseIN11MetaPhysicL10DualNumberIdNS1_28SemiDynamicSparseNumberArrayIdmNS1_8NWrapperILm64EEEEELb1EEEE15evaluateGradDotERKNS_7NodeArgERKNS_8StateArgE
FN:580,_ZNK5Moose11FunctorBaseIN11MetaPhysicL10DualNumberIdNS1_28SemiDynamicSparseNumberArrayIdmNS1_8NWrapperILm64EEEEELb1EEEE15queryFVArgCacheINS_7ElemArgEEES7_RSt3mapIT_S7_St4lessISC_ESaISt4pairIKSC_S7_EEERSG_
FNDA:0,_ZNK5Moose11FunctorBaseIN11MetaPhysicL10DualNumberIdNS1_28SemiDynamicSparseNumberArrayIdmNS1_8NWrapperILm64EEEEELb1EEEE15queryFVArgCacheINS_7ElemArgEEES7_RSt3mapIT_S7_St4lessISC_ESaISt4pairIKSC_S7_EEERSG_
FN:580,_ZNK5Moose11FunctorBaseIN11MetaPhysicL10DualNumberIdNS1_28SemiDynamicSparseNumberArrayIdmNS1_8NWrapperILm64EEEEELb1EEEE15queryFVArgCacheINS_7FaceArgEEES7_RSt3mapIT_S7_St4lessISC_ESaISt4pairIKSC_S7_EEERSG_
FNDA:0,_ZNK5Moose11FunctorBaseIN11MetaPhysicL10DualNumberIdNS1_28SemiDynamicSparseNumberArrayIdmNS1_8NWrapperILm64EEEEELb1EEEE15queryFVArgCacheINS_7FaceArgEEES7_RSt3mapIT_S7_St4lessISC_ESaISt4pairIKSC_S7_EEERSG_
FN:580,_ZNK5Moose11FunctorBaseIdE15queryFVArgCacheINS_7ElemArgEEEdRSt3mapIT_dSt4lessIS5_ESaISt4pairIKS5_dEEERS9_
FNDA:0,_ZNK5Moose11FunctorBaseIdE15queryFVArgCacheINS_7ElemArgEEEdRSt3mapIT_dSt4lessIS5_ESaISt4pairIKS5_dEEERS9_
FN:580,_ZNK5Moose11FunctorBaseIdE15queryFVArgCacheINS_7FaceArgEEEdRSt3mapIT_dSt4lessIS5_ESaISt4pairIKS5_dEEERS9_
FNDA:0,_ZNK5Moose11FunctorBaseIdE15queryFVArgCacheINS_7FaceArgEEEdRSt3mapIT_dSt4lessIS5_ESaISt4pairIKS5_dEEERS9_
FN:597,_ZNK5Moose11FunctorBaseIdEclERKNS_7ElemArgERKNS_8StateArgE
FNDA:0,_ZNK5Moose11FunctorBaseIdEclERKNS_7ElemArgERKNS_8StateArgE
FN:597,_ZNK5Moose11FunctorBaseIN11MetaPhysicL10DualNumberIdNS1_28SemiDynamicSparseNumberArrayIdmNS1_8NWrapperILm64EEEEELb1EEEEclERKNS_7ElemArgERKNS_8StateArgE
FNDA:0,_ZNK5Moose11FunctorBaseIN11MetaPhysicL10DualNumberIdNS1_28SemiDynamicSparseNumberArrayIdmNS1_8NWrapperILm64EEEEELb1EEEEclERKNS_7ElemArgERKNS_8StateArgE
FN:610,_ZNK5Moose11FunctorBaseIdEclERKNS_7FaceArgERKNS_8StateArgE
FNDA:0,_ZNK5Moose11FunctorBaseIdEclERKNS_7FaceArgERKNS_8StateArgE
FN:610,_ZNK5Moose11FunctorBaseIN11MetaPhysicL10DualNumberIdNS1_28SemiDynamicSparseNumberArrayIdmNS1_8NWrapperILm64EEEEELb1EEEEclERKNS_7FaceArgERKNS_8StateArgE
FNDA:0,_ZNK5Moose11FunctorBaseIN11MetaPhysicL10DualNumberIdNS1_28SemiDynamicSparseNumberArrayIdmNS1_8NWrapperILm64EEEEELb1EEEEclERKNS_7FaceArgERKNS_8StateArgE
FN:626,_ZNK5Moose11FunctorBaseIdE12queryQpCacheINS_9ElemQpArgENS_8StateArgEEEdjRKN7libMesh5QBaseERSt6vectorISt4pairIbdESaISB_EERKT_RKT0_
FNDA:0,_ZNK5Moose11FunctorBaseIdE12queryQpCacheINS_9ElemQpArgENS_8StateArgEEEdjRKN7libMesh5QBaseERSt6vectorISt4pairIbdESaISB_EERKT_RKT0_
FN:626,_ZNK5Moose11FunctorBaseIdE12queryQpCacheINS_13ElemSideQpArgENS_8StateArgEEEdjRKN7libMesh5QBaseERSt6vectorISt4pairIbdESaISB_EERKT_RKT0_
FNDA:0,_ZNK5Moose11FunctorBaseIdE12queryQpCacheINS_13ElemSideQpArgENS_8StateArgEEEdjRKN7libMesh5QBaseERSt6vectorISt4pairIbdESaISB_EERKT_RKT0_
FN:626,_ZNK5Moose11FunctorBaseIN11MetaPhysicL10DualNumberIdNS1_28SemiDynamicSparseNumberArrayIdmNS1_8NWrapperILm64EEEEELb1EEEE12queryQpCacheINS_13ElemSideQpArgENS_8StateArgEEES7_jRKN7libMesh5QBaseERSt6vectorISt4pairIbS7_ESaISI_EERKT_RKT0_
FNDA:0,_ZNK5Moose11FunctorBaseIN11MetaPhysicL10DualNumberIdNS1_28SemiDynamicSparseNumberArrayIdmNS1_8NWrapperILm64EEEEELb1EEEE12queryQpCacheINS_13ElemSideQpArgENS_8StateArgEEES7_jRKN7libMesh5QBaseERSt6vectorISt4pairIbS7_ESaISI_EERKT_RKT0_
FN:626,_ZNK5Moose11FunctorBaseIN11MetaPhysicL10DualNumberIdNS1_28SemiDynamicSparseNumberArrayIdmNS1_8NWrapperILm64EEEEELb1EEEE12queryQpCacheINS_9ElemQpArgENS_8StateArgEEES7_jRKN7libMesh5QBaseERSt6vectorISt4pairIbS7_ESaISI_EERKT_RKT0_
FNDA:0,_ZNK5Moose11FunctorBaseIN11MetaPhysicL10DualNumberIdNS1_28SemiDynamicSparseNumberArrayIdmNS1_8NWrapperILm64EEEEELb1EEEE12queryQpCacheINS_9ElemQpArgENS_8StateArgEEES7_jRKN7libMesh5QBaseERSt6vectorISt4pairIbS7_ESaISI_EERKT_RKT0_
FN:656,_ZNK5Moose11FunctorBaseIN11MetaPhysicL10DualNumberIdNS1_28SemiDynamicSparseNumberArrayIdmNS1_8NWrapperILm64EEEEELb1EEEEclERKNS_9ElemQpArgERKNS_8StateArgE
FNDA:0,_ZNK5Moose11FunctorBaseIN11MetaPhysicL10DualNumberIdNS1_28SemiDynamicSparseNumberArrayIdmNS1_8NWrapperILm64EEEEELb1EEEEclERKNS_9ElemQpArgERKNS_8StateArgE
FN:656,_ZNK5Moose11FunctorBaseIdEclERKNS_9ElemQpArgERKNS_8StateArgE
FNDA:0,_ZNK5Moose11FunctorBaseIdEclERKNS_9ElemQpArgERKNS_8StateArgE
FN:677,_ZNK5Moose11FunctorBaseIN11MetaPhysicL10DualNumberIdNS1_28SemiDynamicSparseNumberArrayIdmNS1_8NWrapperILm64EEEEELb1EEEEclERKNS_13ElemSideQpArgERKNS_8StateArgE
FNDA:0,_ZNK5Moose11FunctorBaseIN11MetaPhysicL10DualNumberIdNS1_28SemiDynamicSparseNumberArrayIdmNS1_8NWrapperILm64EEEEELb1EEEEclERKNS_13ElemSideQpArgERKNS_8StateArgE
FN:677,_ZNK5Moose11FunctorBaseIdEclERKNS_13ElemSideQpArgERKNS_8StateArgE
FNDA:0,_ZNK5Moose11FunctorBaseIdEclERKNS_13ElemSideQpArgERKNS_8StateArgE
FN:788,_ZN5Moose11FunctorBaseIN11MetaPhysicL10DualNumberIdNS1_28SemiDynamicSparseNumberArrayIdmNS1_8NWrapperILm64EEEEELb1EEEE14clearCacheDataEv
FNDA:0,_ZN5Moose11FunctorBaseIN11MetaPhysicL10DualNumberIdNS1_28SemiDynamicSparseNumberArrayIdmNS1_8NWrapperILm64EEEEELb1EEEE14clearCacheDataEv
FN:788,_ZN5Moose11FunctorBaseIdE14clearCacheDataEv
FNDA:0,_ZN5Moose11FunctorBaseIdE14clearCacheDataEv
FN:814,_ZN5Moose11FunctorBaseIdE13timestepSetupEv
FNDA:0,_ZN5Moose11FunctorBaseIdE13timestepSetupEv
FN:814,_ZN5Moose11FunctorBaseIN11MetaPhysicL10DualNumberIdNS1_28SemiDynamicSparseNumberArrayIdmNS1_8NWrapperILm64EEEEELb1EEEE13timestepSetupEv
FNDA:0,_ZN5Moose11FunctorBaseIN11MetaPhysicL10DualNumberIdNS1_28SemiDynamicSparseNumberArrayIdmNS1_8NWrapperILm64EEEEELb1EEEE13timestepSetupEv
FN:822,_ZN5Moose11FunctorBaseIdE13residualSetupEv
FNDA:0,_ZN5Moose11FunctorBaseIdE13residualSetupEv
FN:822,_ZN5Moose11FunctorBaseIN11MetaPhysicL10DualNumberIdNS1_28SemiDynamicSparseNumberArrayIdmNS1_8NWrapperILm64EEEEELb1EEEE13residualSetupEv
FNDA:0,_ZN5Moose11FunctorBaseIN11MetaPhysicL10DualNumberIdNS1_28SemiDynamicSparseNumberArrayIdmNS1_8NWrapperILm64EEEEELb1EEEE13residualSetupEv
FN:830,_ZN5Moose11FunctorBaseIdE13jacobianSetupEv
FNDA:0,_ZN5Moose11FunctorBaseIdE13jacobianSetupEv
FN:830,_ZN5Moose11FunctorBaseIN11MetaPhysicL10DualNumberIdNS1_28SemiDynamicSparseNumberArrayIdmNS1_8NWrapperILm64EEEEELb1EEEE13jacobianSetupEv
FNDA:0,_ZN5Moose11FunctorBaseIN11MetaPhysicL10DualNumberIdNS1_28SemiDynamicSparseNumberArrayIdmNS1_8NWrapperILm64EEEEELb1EEEE13jacobianSetupEv
FN:838,_ZN5Moose11FunctorBaseIdE11customSetupERK13MooseEnumItem
FNDA:0,_ZN5Moose11FunctorBaseIdE11customSetupERK13MooseEnumItem
FN:838,_ZN5Moose11FunctorBaseIN11MetaPhysicL10DualNumberIdNS1_28SemiDynamicSparseNumberArrayIdmNS1_8NWrapperILm64EEEEELb1EEEE11customSetupERK13MooseEnumItem
FNDA:0,_ZN5Moose11FunctorBaseIN11MetaPhysicL10DualNumberIdNS1_28SemiDynamicSparseNumberArrayIdmNS1_8NWrapperILm64EEEEELb1EEEE11customSetupERK13MooseEnumItem
FN:975,_ZNK5Moose11FunctorBaseIdE11hasFaceSideERK8FaceInfob
FNDA:0,_ZNK5Moose11FunctorBaseIdE11hasFaceSideERK8FaceInfob
FN:975,_ZNK5Moose11FunctorBaseIN11MetaPhysicL10DualNumberIdNS1_28SemiDynamicSparseNumberArrayIdmNS1_8NWrapperILm64EEEEELb1EEEE11hasFaceSideERK8FaceInfob
FNDA:0,_ZNK5Moose11FunctorBaseIN11MetaPhysicL10DualNumberIdNS1_28SemiDynamicSparseNumberArrayIdmNS1_8NWrapperILm64EEEEELb1EEEE11hasFaceSideERK8FaceInfob
FN:1104,_ZN5Moose15FunctorEnvelopeIN11MetaPhysicL10DualNumberIdNS1_28SemiDynamicSparseNumberArrayIdmNS1_8NWrapperILm64EEEEELb1EEEED0Ev
FNDA:0,_ZN5Moose15FunctorEnvelopeIN11MetaPhysicL10DualNumberIdNS1_28SemiDynamicSparseNumberArrayIdmNS1_8NWrapperILm64EEEEELb1EEEED0Ev
FN:1104,_ZN5Moose15FunctorEnvelopeIN11MetaPhysicL10DualNumberIdNS1_28SemiDynamicSparseNumberArrayIdmNS1_8NWrapperILm64EEEEELb1EEEED2Ev
FNDA:0,_ZN5Moose15FunctorEnvelopeIN11MetaPhysicL10DualNumberIdNS1_28SemiDynamicSparseNumberArrayIdmNS1_8NWrapperILm64EEEEELb1EEEED2Ev
FN:1104,_ZN5Moose15FunctorEnvelopeIdED0Ev
FNDA:0,_ZN5Moose15FunctorEnvelopeIdED0Ev
FN:1104,_ZN5Moose15FunctorEnvelopeIdED2Ev
FNDA:0,_ZN5Moose15FunctorEnvelopeIdED2Ev
FN:1109,_ZNK5Moose15FunctorEnvelopeIN11MetaPhysicL10DualNumberIdNS1_28SemiDynamicSparseNumberArrayIdmNS1_8NWrapperILm64EEEEELb1EEEE9wrapsNullEv
FNDA:0,_ZNK5Moose15FunctorEnvelopeIN11MetaPhysicL10DualNumberIdNS1_28SemiDynamicSparseNumberArrayIdmNS1_8NWrapperILm64EEEEELb1EEEE9wrapsNullEv
FN:1109,_ZNK5Moose15FunctorEnvelopeIdE9wrapsNullEv
FNDA:0,_ZNK5Moose15FunctorEnvelopeIdE9wrapsNullEv
FN:1114,_ZNK5Moose15FunctorEnvelopeIdE10returnTypeB5cxx11Ev
FNDA:0,_ZNK5Moose15FunctorEnvelopeIdE10returnTypeB5cxx11Ev
FN:1114,_ZNK5Moose15FunctorEnvelopeIN11MetaPhysicL10DualNumberIdNS1_28SemiDynamicSparseNumberArrayIdmNS1_8NWrapperILm64EEEEELb1EEEE10returnTypeB5cxx11Ev
FNDA:0,_ZNK5Moose15FunctorEnvelopeIN11MetaPhysicL10DualNumberIdNS1_28SemiDynamicSparseNumberArrayIdmNS1_8NWrapperILm64EEEEELb1EEEE10returnTypeB5cxx11Ev
FN:1116,_ZNK5Moose15FunctorEnvelopeIN11MetaPhysicL10DualNumberIdNS1_28SemiDynamicSparseNumberArrayIdmNS1_8NWrapperILm64EEEEELb1EEEE18ownsWrappedFunctorEv
FNDA:0,_ZNK5Moose15FunctorEnvelopeIN11MetaPhysicL10DualNumberIdNS1_28SemiDynamicSparseNumberArrayIdmNS1_8NWrapperILm64EEEEELb1EEEE18ownsWrappedFunctorEv
FN:1116,_ZNK5Moose15FunctorEnvelopeIdE18ownsWrappedFunctorEv
FNDA:0,_ZNK5Moose15FunctorEnvelopeIdE18ownsWrappedFunctorEv
FN:1122,_ZNK5Moose15FunctorEnvelopeIdE9wrapsTypeINS_11NullFunctorIdEEEEbv
FNDA:0,_ZNK5Moose15FunctorEnvelopeIdE9wrapsTypeINS_11NullFunctorIdEEEEbv
FN:1122,_ZNK5Moose15FunctorEnvelopeIN11MetaPhysicL10DualNumberIdNS1_28SemiDynamicSparseNumberArrayIdmNS1_8NWrapperILm64EEEEELb1EEEE9wrapsTypeINS_11NullFunctorIS7_EEEEbv
FNDA:0,_ZNK5Moose15FunctorEnvelopeIN11MetaPhysicL10DualNumberIdNS1_28SemiDynamicSparseNumberArrayIdmNS1_8NWrapperILm64EEEEELb1EEEE9wrapsTypeINS_11NullFunctorIS7_EEEEbv
FN:1127,_ZNK5Moose15FunctorEnvelopeIN11MetaPhysicL10DualNumberIdNS1_28SemiDynamicSparseNumberArrayIdmNS1_8NWrapperILm64EEEEELb1EEEE26isExtrapolatedBoundaryFaceERK8FaceInfoPKN7libMesh4ElemERKNS_8StateArgE
FNDA:0,_ZNK5Moose15FunctorEnvelopeIN11MetaPhysicL10DualNumberIdNS1_28SemiDynamicSparseNumberArrayIdmNS1_8NWrapperILm64EEEEELb1EEEE26isExtrapolatedBoundaryFaceERK8FaceInfoPKN7libMesh4ElemERKNS_8StateArgE
FN:1127,_ZNK5Moose15FunctorEnvelopeIdE26isExtrapolatedBoundaryFaceERK8FaceInfoPKN7libMesh4ElemERKNS_8StateArgE
FNDA:0,_ZNK5Moose15FunctorEnvelopeIdE26isExtrapolatedBoundaryFaceERK8FaceInfoPKN7libMesh4ElemERKNS_8StateArgE
FN:1133,_ZNK5Moose15FunctorEnvelopeIN11MetaPhysicL10DualNumberIdNS1_28SemiDynamicSparseNumberArrayIdmNS1_8NWrapperILm64EEEEELb1EEEE10isConstantEv
FNDA:0,_ZNK5Moose15FunctorEnvelopeIN11MetaPhysicL10DualNumberIdNS1_28SemiDynamicSparseNumberArrayIdmNS1_8NWrapperILm64EEEEELb1EEEE10isConstantEv
FN:1133,_ZNK5Moose15FunctorEnvelopeIdE10isConstantEv
FNDA:0,_ZNK5Moose15FunctorEnvelopeIdE10isConstantEv
FN:1134,_ZNK5Moose15FunctorEnvelopeIN11MetaPhysicL10DualNumberIdNS1_28SemiDynamicSparseNumberArrayIdmNS1_8NWrapperILm64EEEEELb1EEEE9hasBlocksEt
FNDA:0,_ZNK5Moose15FunctorEnvelopeIN11MetaPhysicL10DualNumberIdNS1_28SemiDynamicSparseNumberArrayIdmNS1_8NWrapperILm64EEEEELb1EEEE9hasBlocksEt
FN:1134,_ZNK5Moose15FunctorEnvelopeIdE9hasBlocksEt
FNDA:0,_ZNK5Moose15FunctorEnvelopeIdE9hasBlocksEt
FN:1135,_ZNK5Moose15FunctorEnvelopeIN11MetaPhysicL10DualNumberIdNS1_28SemiDynamicSparseNumberArrayIdmNS1_8NWrapperILm64EEEEELb1EEEE11hasFaceSideERK8FaceInfob
FNDA:0,_ZNK5Moose15FunctorEnvelopeIN11MetaPhysicL10DualNumberIdNS1_28SemiDynamicSparseNumberArrayIdmNS1_8NWrapperILm64EEEEELb1EEEE11hasFaceSideERK8FaceInfob
FN:1135,_ZNK5Moose15FunctorEnvelopeIdE11hasFaceSideERK8FaceInfob
FNDA:0,_ZNK5Moose15FunctorEnvelopeIdE11hasFaceSideERK8FaceInfob
FN:1140,_ZNK5Moose15FunctorEnvelopeIdE15supportsFaceArgEv
FNDA:0,_ZNK5Moose15FunctorEnvelopeIdE15supportsFaceArgEv
FN:1140,_ZNK5Moose15FunctorEnvelopeIN11MetaPhysicL10DualNumberIdNS1_28SemiDynamicSparseNumberArrayIdmNS1_8NWrapperILm64EEEEELb1EEEE15supportsFaceArgEv
FNDA:0,_ZNK5Moose15FunctorEnvelopeIN11MetaPhysicL10DualNumberIdNS1_28SemiDynamicSparseNumberArrayIdmNS1_8NWrapperILm64EEEEELb1EEEE15supportsFaceArgEv
FN:1141,_ZNK5Moose15FunctorEnvelopeIdE21supportsElemSideQpArgEv
FNDA:0,_ZNK5Moose15FunctorEnvelopeIdE21supportsElemSideQpArgEv
FN:1141,_ZNK5Moose15FunctorEnvelopeIN11MetaPhysicL10DualNumberIdNS1_28SemiDynamicSparseNumberArrayIdmNS1_8NWrapperILm64EEEEELb1EEEE21supportsElemSideQpArgEv
FNDA:0,_ZNK5Moose15FunctorEnvelopeIN11MetaPhysicL10DualNumberIdNS1_28SemiDynamicSparseNumberArrayIdmNS1_8NWrapperILm64EEEEELb1EEEE21supportsElemSideQpArgEv
FN:1148,_ZNK5Moose15FunctorEnvelopeIdE8evaluateERKNS_7ElemArgERKNS_8StateArgE
FNDA:0,_ZNK5Moose15FunctorEnvelopeIdE8evaluateERKNS_7ElemArgERKNS_8StateArgE
FN:1148,_ZNK5Moose15FunctorEnvelopeIN11MetaPhysicL10DualNumberIdNS1_28SemiDynamicSparseNumberArrayIdmNS1_8NWrapperILm64EEEEELb1EEEE8evaluateERKNS_7ElemArgERKNS_8StateArgE
FNDA:0,_ZNK5Moose15FunctorEnvelopeIN11MetaPhysicL10DualNumberIdNS1_28SemiDynamicSparseNumberArrayIdmNS1_8NWrapperILm64EEEEELb1EEEE8evaluateERKNS_7ElemArgERKNS_8StateArgE
FN:1152,_ZNK5Moose15FunctorEnvelopeIdE8evaluateERKNS_7FaceArgERKNS_8StateArgE
FNDA:0,_ZNK5Moose15FunctorEnvelopeIdE8evaluateERKNS_7FaceArgERKNS_8StateArgE
FN:1152,_ZNK5Moose15FunctorEnvelopeIN11MetaPhysicL10DualNumberIdNS1_28SemiDynamicSparseNumberArrayIdmNS1_8NWrapperILm64EEEEELb1EEEE8evaluateERKNS_7FaceArgERKNS_8StateArgE
FNDA:0,_ZNK5Moose15FunctorEnvelopeIN11MetaPhysicL10DualNumberIdNS1_28SemiDynamicSparseNumberArrayIdmNS1_8NWrapperILm64EEEEELb1EEEE8evaluateERKNS_7FaceArgERKNS_8StateArgE
FN:1156,_ZNK5Moose15FunctorEnvelopeIdE8evaluateERKNS_9ElemQpArgERKNS_8StateArgE
FNDA:0,_ZNK5Moose15FunctorEnvelopeIdE8evaluateERKNS_9ElemQpArgERKNS_8StateArgE
FN:1156,_ZNK5Moose15FunctorEnvelopeIN11MetaPhysicL10DualNumberIdNS1_28SemiDynamicSparseNumberArrayIdmNS1_8NWrapperILm64EEEEELb1EEEE8evaluateERKNS_9ElemQpArgERKNS_8StateArgE
FNDA:0,_ZNK5Moose15FunctorEnvelopeIN11MetaPhysicL10DualNumberIdNS1_28SemiDynamicSparseNumberArrayIdmNS1_8NWrapperILm64EEEEELb1EEEE8evaluateERKNS_9ElemQpArgERKNS_8StateArgE
FN:1160,_ZNK5Moose15FunctorEnvelopeIdE8evaluateERKNS_13ElemSideQpArgERKNS_8StateArgE
FNDA:0,_ZNK5Moose15FunctorEnvelopeIdE8evaluateERKNS_13ElemSideQpArgERKNS_8StateArgE
FN:1160,_ZNK5Moose15FunctorEnvelopeIN11MetaPhysicL10DualNumberIdNS1_28SemiDynamicSparseNumberArrayIdmNS1_8NWrapperILm64EEEEELb1EEEE8evaluateERKNS_13ElemSideQpArgERKNS_8StateArgE
FNDA:0,_ZNK5Moose15FunctorEnvelopeIN11MetaPhysicL10DualNumberIdNS1_28SemiDynamicSparseNumberArrayIdmNS1_8NWrapperILm64EEEEELb1EEEE8evaluateERKNS_13ElemSideQpArgERKNS_8StateArgE
FN:1164,_ZNK5Moose15FunctorEnvelopeIdE8evaluateERKNS_12ElemPointArgERKNS_8StateArgE
FNDA:0,_ZNK5Moose15FunctorEnvelopeIdE8evaluateERKNS_12ElemPointArgERKNS_8StateArgE
FN:1164,_ZNK5Moose15FunctorEnvelopeIN11MetaPhysicL10DualNumberIdNS1_28SemiDynamicSparseNumberArrayIdmNS1_8NWrapperILm64EEEEELb1EEEE8evaluateERKNS_12ElemPointArgERKNS_8StateArgE
FNDA:0,_ZNK5Moose15FunctorEnvelopeIN11MetaPhysicL10DualNumberIdNS1_28SemiDynamicSparseNumberArrayIdmNS1_8NWrapperILm64EEEEELb1EEEE8evaluateERKNS_12ElemPointArgERKNS_8StateArgE
FN:1168,_ZNK5Moose15FunctorEnvelopeIdE8evaluateERKNS_7NodeArgERKNS_8StateArgE
FNDA:0,_ZNK5Moose15FunctorEnvelopeIdE8evaluateERKNS_7NodeArgERKNS_8StateArgE
FN:1168,_ZNK5Moose15FunctorEnvelopeIN11MetaPhysicL10DualNumberIdNS1_28SemiDynamicSparseNumberArrayIdmNS1_8NWrapperILm64EEEEELb1EEEE8evaluateERKNS_7NodeArgERKNS_8StateArgE
FNDA:0,_ZNK5Moose15FunctorEnvelopeIN11MetaPhysicL10DualNumberIdNS1_28SemiDynamicSparseNumberArrayIdmNS1_8NWrapperILm64EEEEELb1EEEE8evaluateERKNS_7NodeArgERKNS_8StateArgE
FN:1173,_ZNK5Moose15FunctorEnvelopeIdE16evaluateGradientERKNS_7ElemArgERKNS_8StateArgE
FNDA:0,_ZNK5Moose15FunctorEnvelopeIdE16evaluateGradientERKNS_7ElemArgERKNS_8StateArgE
FN:1173,_ZNK5Moose15FunctorEnvelopeIN11MetaPhysicL10DualNumberIdNS1_28SemiDynamicSparseNumberArrayIdmNS1_8NWrapperILm64EEEEELb1EEEE16evaluateGradientERKNS_7ElemArgERKNS_8StateArgE
FNDA:0,_ZNK5Moose15FunctorEnvelopeIN11MetaPhysicL10DualNumberIdNS1_28SemiDynamicSparseNumberArrayIdmNS1_8NWrapperILm64EEEEELb1EEEE16evaluateGradientERKNS_7ElemArgERKNS_8StateArgE
FN:1177,_ZNK5Moose15FunctorEnvelopeIdE16evaluateGradientERKNS_7FaceArgERKNS_8StateArgE
FNDA:0,_ZNK5Moose15FunctorEnvelopeIdE16evaluateGradientERKNS_7FaceArgERKNS_8StateArgE
FN:1177,_ZNK5Moose15FunctorEnvelopeIN11MetaPhysicL10DualNumberIdNS1_28SemiDynamicSparseNumberArrayIdmNS1_8NWrapperILm64EEEEELb1EEEE16evaluateGradientERKNS_7FaceArgERKNS_8StateArgE
FNDA:0,_ZNK5Moose15FunctorEnvelopeIN11MetaPhysicL10DualNumberIdNS1_28SemiDynamicSparseNumberArrayIdmNS1_8NWrapperILm64EEEEELb1EEEE16evaluateGradientERKNS_7FaceArgERKNS_8StateArgE
FN:1181,_ZNK5Moose15FunctorEnvelopeIdE16evaluateGradientERKNS_9ElemQpArgERKNS_8StateArgE
FNDA:0,_ZNK5Moose15FunctorEnvelopeIdE16evaluateGradientERKNS_9ElemQpArgERKNS_8StateArgE
FN:1181,_ZNK5Moose15FunctorEnvelopeIN11MetaPhysicL10DualNumberIdNS1_28SemiDynamicSparseNumberArrayIdmNS1_8NWrapperILm64EEEEELb1EEEE16evaluateGradientERKNS_9ElemQpArgERKNS_8StateArgE
FNDA:0,_ZNK5Moose15FunctorEnvelopeIN11MetaPhysicL10DualNumberIdNS1_28SemiDynamicSparseNumberArrayIdmNS1_8NWrapperILm64EEEEELb1EEEE16evaluateGradientERKNS_9ElemQpArgERKNS_8StateArgE
FN:1185,_ZNK5Moose15FunctorEnvelopeIN11MetaPhysicL10DualNumberIdNS1_28SemiDynamicSparseNumberArrayIdmNS1_8NWrapperILm64EEEEELb1EEEE16evaluateGradientERKNS_13ElemSideQpArgERKNS_8StateArgE
FNDA:0,_ZNK5Moose15FunctorEnvelopeIN11MetaPhysicL10DualNumberIdNS1_28SemiDynamicSparseNumberArrayIdmNS1_8NWrapperILm64EEEEELb1EEEE16evaluateGradientERKNS_13ElemSideQpArgERKNS_8StateArgE
FN:1185,_ZNK5Moose15FunctorEnvelopeIdE16evaluateGradientERKNS_13ElemSideQpArgERKNS_8StateArgE
FNDA:0,_ZNK5Moose15FunctorEnvelopeIdE16evaluateGradientERKNS_13ElemSideQpArgERKNS_8StateArgE
FN:1190,_ZNK5Moose15FunctorEnvelopeIN11MetaPhysicL10DualNumberIdNS1_28SemiDynamicSparseNumberArrayIdmNS1_8NWrapperILm64EEEEELb1EEEE16evaluateGradientERKNS_12ElemPointArgERKNS_8StateArgE
FNDA:0,_ZNK5Moose15FunctorEnvelopeIN11MetaPhysicL10DualNumberIdNS1_28SemiDynamicSparseNumberArrayIdmNS1_8NWrapperILm64EEEEELb1EEEE16evaluateGradientERKNS_12ElemPointArgERKNS_8StateArgE
FN:1190,_ZNK5Moose15FunctorEnvelopeIdE16evaluateGradientERKNS_12ElemPointArgERKNS_8StateArgE
FNDA:0,_ZNK5Moose15FunctorEnvelopeIdE16evaluateGradientERKNS_12ElemPointArgERKNS_8StateArgE
FN:1195,_ZNK5Moose15FunctorEnvelopeIN11MetaPhysicL10DualNumberIdNS1_28SemiDynamicSparseNumberArrayIdmNS1_8NWrapperILm64EEEEELb1EEEE16evaluateGradientERKNS_7NodeArgERKNS_8StateArgE
FNDA:0,_ZNK5Moose15FunctorEnvelopeIN11MetaPhysicL10DualNumberIdNS1_28SemiDynamicSparseNumberArrayIdmNS1_8NWrapperILm64EEEEELb1EEEE16evaluateGradientERKNS_7NodeArgERKNS_8StateArgE
FN:1195,_ZNK5Moose15FunctorEnvelopeIdE16evaluateGradientERKNS_7NodeArgERKNS_8StateArgE
FNDA:0,_ZNK5Moose15FunctorEnvelopeIdE16evaluateGradientERKNS_7NodeArgERKNS_8StateArgE
FN:1200,_ZNK5Moose15FunctorEnvelopeIN11MetaPhysicL10DualNumberIdNS1_28SemiDynamicSparseNumberArrayIdmNS1_8NWrapperILm64EEEEELb1EEEE11evaluateDotERKNS_7ElemArgERKNS_8StateArgE
FNDA:0,_ZNK5Moose15FunctorEnvelopeIN11MetaPhysicL10DualNumberIdNS1_28SemiDynamicSparseNumberArrayIdmNS1_8NWrapperILm64EEEEELb1EEEE11evaluateDotERKNS_7ElemArgERKNS_8StateArgE
FN:1200,_ZNK5Moose15FunctorEnvelopeIdE11evaluateDotERKNS_7ElemArgERKNS_8StateArgE
FNDA:0,_ZNK5Moose15FunctorEnvelopeIdE11evaluateDotERKNS_7ElemArgERKNS_8StateArgE
FN:1204,_ZNK5Moose15FunctorEnvelopeIN11MetaPhysicL10DualNumberIdNS1_28SemiDynamicSparseNumberArrayIdmNS1_8NWrapperILm64EEEEELb1EEEE11evaluateDotERKNS_7FaceArgERKNS_8StateArgE
FNDA:0,_ZNK5Moose15FunctorEnvelopeIN11MetaPhysicL10DualNumberIdNS1_28SemiDynamicSparseNumberArrayIdmNS1_8NWrapperILm64EEEEELb1EEEE11evaluateDotERKNS_7FaceArgERKNS_8StateArgE
FN:1204,_ZNK5Moose15FunctorEnvelopeIdE11evaluateDotERKNS_7FaceArgERKNS_8StateArgE
FNDA:0,_ZNK5Moose15FunctorEnvelopeIdE11evaluateDotERKNS_7FaceArgERKNS_8StateArgE
FN:1208,_ZNK5Moose15FunctorEnvelopeIN11MetaPhysicL10DualNumberIdNS1_28SemiDynamicSparseNumberArrayIdmNS1_8NWrapperILm64EEEEELb1EEEE11evaluateDotERKNS_9ElemQpArgERKNS_8StateArgE
FNDA:0,_ZNK5Moose15FunctorEnvelopeIN11MetaPhysicL10DualNumberIdNS1_28SemiDynamicSparseNumberArrayIdmNS1_8NWrapperILm64EEEEELb1EEEE11evaluateDotERKNS_9ElemQpArgERKNS_8StateArgE
FN:1208,_ZNK5Moose15FunctorEnvelopeIdE11evaluateDotERKNS_9ElemQpArgERKNS_8StateArgE
FNDA:0,_ZNK5Moose15FunctorEnvelopeIdE11evaluateDotERKNS_9ElemQpArgERKNS_8StateArgE
FN:1212,_ZNK5Moose15FunctorEnvelopeIN11MetaPhysicL10DualNumberIdNS1_28SemiDynamicSparseNumberArrayIdmNS1_8NWrapperILm64EEEEELb1EEEE11evaluateDotERKNS_13ElemSideQpArgERKNS_8StateArgE
FNDA:0,_ZNK5Moose15FunctorEnvelopeIN11MetaPhysicL10DualNumberIdNS1_28SemiDynamicSparseNumberArrayIdmNS1_8NWrapperILm64EEEEELb1EEEE11evaluateDotERKNS_13ElemSideQpArgERKNS_8StateArgE
FN:1212,_ZNK5Moose15FunctorEnvelopeIdE11evaluateDotERKNS_13ElemSideQpArgERKNS_8StateArgE
FNDA:0,_ZNK5Moose15FunctorEnvelopeIdE11evaluateDotERKNS_13ElemSideQpArgERKNS_8StateArgE
FN:1216,_ZNK5Moose15FunctorEnvelopeIdE11evaluateDotERKNS_12ElemPointArgERKNS_8StateArgE
FNDA:0,_ZNK5Moose15FunctorEnvelopeIdE11evaluateDotERKNS_12ElemPointArgERKNS_8StateArgE
FN:1216,_ZNK5Moose15FunctorEnvelopeIN11MetaPhysicL10DualNumberIdNS1_28SemiDynamicSparseNumberArrayIdmNS1_8NWrapperILm64EEEEELb1EEEE11evaluateDotERKNS_12ElemPointArgERKNS_8StateArgE
FNDA:0,_ZNK5Moose15FunctorEnvelopeIN11MetaPhysicL10DualNumberIdNS1_28SemiDynamicSparseNumberArrayIdmNS1_8NWrapperILm64EEEEELb1EEEE11evaluateDotERKNS_12ElemPointArgERKNS_8StateArgE
FN:1221,_ZNK5Moose15FunctorEnvelopeIdE11evaluateDotERKNS_7NodeArgERKNS_8StateArgE
FNDA:0,_ZNK5Moose15FunctorEnvelopeIdE11evaluateDotERKNS_7NodeArgERKNS_8StateArgE
FN:1221,_ZNK5Moose15FunctorEnvelopeIN11MetaPhysicL10DualNumberIdNS1_28SemiDynamicSparseNumberArrayIdmNS1_8NWrapperILm64EEEEELb1EEEE11evaluateDotERKNS_7NodeArgERKNS_8StateArgE
FNDA:0,_ZNK5Moose15FunctorEnvelopeIN11MetaPhysicL10DualNumberIdNS1_28SemiDynamicSparseNumberArrayIdmNS1_8NWrapperILm64EEEEELb1EEEE11evaluateDotERKNS_7NodeArgERKNS_8StateArgE
FN:1226,_ZNK5Moose15FunctorEnvelopeIdE15evaluateGradDotERKNS_7ElemArgERKNS_8StateArgE
FNDA:0,_ZNK5Moose15FunctorEnvelopeIdE15evaluateGradDotERKNS_7ElemArgERKNS_8StateArgE
FN:1226,_ZNK5Moose15FunctorEnvelopeIN11MetaPhysicL10DualNumberIdNS1_28SemiDynamicSparseNumberArrayIdmNS1_8NWrapperILm64EEEEELb1EEEE15evaluateGradDotERKNS_7ElemArgERKNS_8StateArgE
FNDA:0,_ZNK5Moose15FunctorEnvelopeIN11MetaPhysicL10DualNumberIdNS1_28SemiDynamicSparseNumberArrayIdmNS1_8NWrapperILm64EEEEELb1EEEE15evaluateGradDotERKNS_7ElemArgERKNS_8StateArgE
FN:1230,_ZNK5Moose15FunctorEnvelopeIdE15evaluateGradDotERKNS_7FaceArgERKNS_8StateArgE
FNDA:0,_ZNK5Moose15FunctorEnvelopeIdE15evaluateGradDotERKNS_7FaceArgERKNS_8StateArgE
FN:1230,_ZNK5Moose15FunctorEnvelopeIN11MetaPhysicL10DualNumberIdNS1_28SemiDynamicSparseNumberArrayIdmNS1_8NWrapperILm64EEEEELb1EEEE15evaluateGradDotERKNS_7FaceArgERKNS_8StateArgE
FNDA:0,_ZNK5Moose15FunctorEnvelopeIN11MetaPhysicL10DualNumberIdNS1_28SemiDynamicSparseNumberArrayIdmNS1_8NWrapperILm64EEEEELb1EEEE15evaluateGradDotERKNS_7FaceArgERKNS_8StateArgE
FN:1234,_ZNK5Moose15FunctorEnvelopeIN11MetaPhysicL10DualNumberIdNS1_28SemiDynamicSparseNumberArrayIdmNS1_8NWrapperILm64EEEEELb1EEEE15evaluateGradDotERKNS_9ElemQpArgERKNS_8StateArgE
FNDA:0,_ZNK5Moose15FunctorEnvelopeIN11MetaPhysicL10DualNumberIdNS1_28SemiDynamicSparseNumberArrayIdmNS1_8NWrapperILm64EEEEELb1EEEE15evaluateGradDotERKNS_9ElemQpArgERKNS_8StateArgE
FN:1234,_ZNK5Moose15FunctorEnvelopeIdE15evaluateGradDotERKNS_9ElemQpArgERKNS_8StateArgE
FNDA:0,_ZNK5Moose15FunctorEnvelopeIdE15evaluateGradDotERKNS_9ElemQpArgERKNS_8StateArgE
FN:1238,_ZNK5Moose15FunctorEnvelopeIN11MetaPhysicL10DualNumberIdNS1_28SemiDynamicSparseNumberArrayIdmNS1_8NWrapperILm64EEEEELb1EEEE15evaluateGradDotERKNS_13ElemSideQpArgERKNS_8StateArgE
FNDA:0,_ZNK5Moose15FunctorEnvelopeIN11MetaPhysicL10DualNumberIdNS1_28SemiDynamicSparseNumberArrayIdmNS1_8NWrapperILm64EEEEELb1EEEE15evaluateGradDotERKNS_13ElemSideQpArgERKNS_8StateArgE
FN:1238,_ZNK5Moose15FunctorEnvelopeIdE15evaluateGradDotERKNS_13ElemSideQpArgERKNS_8StateArgE
FNDA:0,_ZNK5Moose15FunctorEnvelopeIdE15evaluateGradDotERKNS_13ElemSideQpArgERKNS_8StateArgE
FN:1243,_ZNK5Moose15FunctorEnvelopeIN11MetaPhysicL10DualNumberIdNS1_28SemiDynamicSparseNumberArrayIdmNS1_8NWrapperILm64EEEEELb1EEEE15evaluateGradDotERKNS_12ElemPointArgERKNS_8StateArgE
FNDA:0,_ZNK5Moose15FunctorEnvelopeIN11MetaPhysicL10DualNumberIdNS1_28SemiDynamicSparseNumberArrayIdmNS1_8NWrapperILm64EEEEELb1EEEE15evaluateGradDotERKNS_12ElemPointArgERKNS_8StateArgE
FN:1243,_ZNK5Moose15FunctorEnvelopeIdE15evaluateGradDotERKNS_12ElemPointArgERKNS_8StateArgE
FNDA:0,_ZNK5Moose15FunctorEnvelopeIdE15evaluateGradDotERKNS_12ElemPointArgERKNS_8StateArgE
FN:1248,_ZNK5Moose15FunctorEnvelopeIN11MetaPhysicL10DualNumberIdNS1_28SemiDynamicSparseNumberArrayIdmNS1_8NWrapperILm64EEEEELb1EEEE15evaluateGradDotERKNS_7NodeArgERKNS_8StateArgE
FNDA:0,_ZNK5Moose15FunctorEnvelopeIN11MetaPhysicL10DualNumberIdNS1_28SemiDynamicSparseNumberArrayIdmNS1_8NWrapperILm64EEEEELb1EEEE15evaluateGradDotERKNS_7NodeArgERKNS_8StateArgE
FN:1248,_ZNK5Moose15FunctorEnvelopeIdE15evaluateGradDotERKNS_7NodeArgERKNS_8StateArgE
FNDA:0,_ZNK5Moose15FunctorEnvelopeIdE15evaluateGradDotERKNS_7NodeArgERKNS_8StateArgE
FNF:146
FNH:0
DA:152,0
DA:152,0
DA:152,0
DA:152,0
DA:237,0
DA:239,0
DA:237,0
DA:239,0
DA:247,0
DA:249,0
DA:247,0
DA:249,0
DA:260,0
DA:260,0
DA:332,0
DA:334,0
DA:332,0
DA:334,0
DA:342,0
DA:344,0
DA:342,0
DA:344,0
DA:352,0
DA:354,0
DA:352,0
DA:354,0
DA:362,0
DA:364,0
DA:362,0
DA:364,0
DA:371,0
DA:373,0
DA:371,0
DA:373,0
DA:376,0
DA:378,0
DA:376,0
DA:378,0
DA:385,0
DA:387,0
DA:385,0
DA:387,0
DA:395,0
DA:397,0
DA:395,0
DA:397,0
DA:405,0
DA:407,0
DA:405,0
DA:407,0
DA:416,0
DA:418,0
DA:416,0
DA:418,0
DA:425,0
DA:427,0
DA:425,0
DA:427,0
DA:430,0
DA:432,0
DA:430,0
DA:432,0
DA:439,0
DA:441,0
DA:439,0
DA:441,0
DA:449,0
DA:451,0
DA:449,0
DA:451,0
DA:459,0
DA:461,0
DA:459,0
DA:461,0
DA:470,0
DA:472,0
DA:470,0
DA:472,0
DA:479,0
DA:481,0
DA:479,0
DA:481,0
DA:484,0
DA:486,0
DA:484,0
DA:486,0
DA:580,0
DA:584,0
DA:587,0
DA:590,0
DA:592,0
DA:580,0
DA:584,0
DA:587,0
DA:590,0
DA:592,0
DA:580,0
DA:584,0
DA:585,0
DA:587,0
DA:590,0
DA:592,0
DA:580,0
DA:584,0
DA:585,0
DA:587,0
DA:590,0
DA:592,0
DA:597,0
DA:599,0
DA:600,0
DA:605,0
DA:597,0
DA:599,0
DA:600,0
DA:605,0
DA:610,0
DA:614,0
DA:615,0
DA:620,0
DA:610,0
DA:614,0
DA:615,0
DA:620,0
DA:626,0
DA:634,0
DA:636,0
DA:638,0
DA:639,0
DA:640,0
DA:645,0
DA:646,0
DA:649,0
DA:650,0
DA:651,0
DA:626,0
DA:634,0
DA:636,0
DA:638,0
DA:639,0
DA:640,0
DA:645,0
DA:646,0
DA:649,0
DA:650,0
DA:651,0
DA:626,0
DA:634,0
DA:636,0
DA:638,0
DA:639,0
DA:640,0
DA:645,0
DA:646,0
DA:649,0
DA:650,0
DA:651,0
DA:626,0
DA:634,0
DA:636,0
DA:638,0
DA:639,0
DA:640,0
DA:645,0
DA:646,0
DA:649,0
DA:650,0
DA:651,0
DA:656,0
DA:658,0
DA:659,0
DA:661,0
DA:662,0
DA:664,0
DA:665,0
DA:667,0
DA:668,0
DA:669,0
DA:672,0
DA:656,0
DA:658,0
DA:659,0
DA:661,0
DA:662,0
DA:664,0
DA:665,0
DA:667,0
DA:668,0
DA:669,0
DA:672,0
DA:677,0
DA:679,0
DA:680,0
DA:682,0
DA:684,0
DA:685,0
DA:687,0
DA:688,0
DA:690,0
DA:691,0
DA:692,0
DA:693,0
DA:697,0
DA:698,0
DA:702,0
DA:677,0
DA:679,0
DA:680,0
DA:682,0
DA:684,0
DA:685,0
DA:687,0
DA:688,0
DA:690,0
DA:691,0
DA:692,0
DA:693,0
DA:697,0
DA:698,0
DA:702,0
DA:709,0
DA:726,0
DA:788,0
DA:790,0
DA:791,0
DA:792,0
DA:794,0
DA:797,0
DA:798,0
DA:799,0
DA:802,0
DA:803,0
DA:804,0
DA:805,0
DA:810,0
DA:788,0
DA:790,0
DA:791,0
DA:792,0
DA:794,0
DA:797,0
DA:798,0
DA:799,0
DA:802,0
DA:803,0
DA:804,0
DA:805,0
DA:810,0
DA:814,0
DA:817,0
DA:818,0
DA:814,0
DA:817,0
DA:818,0
DA:822,0
DA:825,0
DA:826,0
DA:822,0
DA:825,0
DA:826,0
DA:830,0
DA:833,0
DA:834,0
DA:830,0
DA:833,0
DA:834,0
DA:838,0
DA:841,0
DA:842,0
DA:838,0
DA:841,0
DA:842,0
DA:848,0
DA:856,0
DA:863,0
DA:870,0
DA:877,0
DA:884,0
DA:891,0
DA:899,0
DA:906,0
DA:913,0
DA:920,0
DA:927,0
DA:934,0
DA:942,0
DA:949,0
DA:956,0
DA:963,0
DA:970,0
DA:975,0
DA:977,0
DA:978,0
DA:980,0
DA:975,0
DA:977,0
DA:978,0
DA:980,0
DA:1006,0
DA:1104,0
DA:1104,0
DA:1104,0
DA:1104,0
DA:1109,0
DA:1109,0
DA:1114,0
DA:1114,0
DA:1116,0
DA:1116,0
DA:1122,0
DA:1124,0
DA:1122,0
DA:1124,0
DA:1127,0
DA:1131,0
DA:1127,0
DA:1131,0
DA:1133,0
DA:1133,0
DA:1134,0
DA:1134,0
DA:1135,0
DA:1137,0
DA:1135,0
DA:1137,0
DA:1140,0
DA:1140,0
DA:1141,0
DA:1141,0
DA:1148,0
DA:1150,0
DA:1148,0
DA:1150,0
DA:1152,0
DA:1154,0
DA:1152,0
DA:1154,0
DA:1156,0
DA:1158,0
DA:1156,0
DA:1158,0
DA:1160,0
DA:1162,0
DA:1160,0
DA:1162,0
DA:1164,0
DA:1166,0
DA:1164,0
DA:1166,0
DA:1168,0
DA:1170,0
DA:1168,0
DA:1170,0
DA:1173,0
DA:1175,0
DA:1173,0
DA:1175,0
DA:1177,0
DA:1179,0
DA:1177,0
DA:1179,0
DA:1181,0
DA:1183,0
DA:1181,0
DA:1183,0
DA:1185,0
DA:1188,0
DA:1185,0
DA:1188,0
DA:1190,0
DA:1193,0
DA:1190,0
DA:1193,0
DA:1195,0
DA:1197,0
DA:1195,0
DA:1197,0
DA:1200,0
DA:1202,0
DA:1200,0
DA:1202,0
DA:1204,0
DA:1206,0
DA:1204,0
DA:1206,0
DA:1208,0
DA:1210,0
DA:1208,0
DA:1210,0
DA:1212,0
DA:1214,0
DA:1212,0
DA:1214,0
DA:1216,0
DA:1219,0
DA:1216,0
DA:1219,0
DA:1221,0
DA:1223,0
DA:1221,0
DA:1223,0
DA:1226,0
DA:1228,0
DA:1226,0
DA:1228,0
DA:1230,0
DA:1232,0
DA:1230,0
DA:1232,0
DA:1234,0
DA:1236,0
DA:1234,0
DA:1236,0
DA:1238,0
DA:1241,0
DA:1238,0
DA:1241,0
DA:1243,0
DA:1246,0
DA:1243,0
DA:1246,0
DA:1248,0
DA:1250,0
DA:1248,0
DA:1250,0
LF:425
LH:0
end_of_record
SF:/home/runner/work/beaver/beaver/moose/framework/build/header_symlinks/MooseVariableDependencyInterface.h
LF:0
LH:0
end_of_record
SF:/usr/share/miniconda3/envs/moose/libmesh/include/metaphysicl/semidynamicsparsenumberarray.h
DA:84,0
DA:85,0
LF:2
LH:0
end_of_record
SF:/usr/share/miniconda3/envs/moose/x86_64-conda-linux-gnu/include/c++/12.3.0/streambuf
LF:0
LH:0
end_of_record
SF:/home/runner/work/beaver/beaver/moose/framework/build/header_symlinks/DataIO.h
DA:895,0
DA:987,0
LF:2
LH:0
end_of_record
SF:/usr/share/miniconda3/envs/moose/x86_64-conda-linux-gnu/include/c++/12.3.0/bits/char_traits.h
DA:358,0
DA:376,0
DA:389,0
DA:399,5706
LF:4
LH:1
end_of_record
SF:/home/runner/work/beaver/beaver/moose/framework/build/header_symlinks/NeighborCoupleable.h
LF:0
LH:0
end_of_record
SF:/home/runner/work/beaver/beaver/moose/framework/build/header_symlinks/FVKernel.h
LF:0
LH:0
end_of_record
SF:/home/runner/work/beaver/beaver/moose/framework/build/header_symlinks/TwoMaterialPropertyInterface.h
DA:41,3
LF:1
LH:1
end_of_record
SF:/usr/share/miniconda3/envs/moose/x86_64-conda-linux-gnu/include/c++/12.3.0/typeinfo
FN:193,_ZNKSt9type_infoeqERKS_
FNDA:0,_ZNKSt9type_infoeqERKS_
FNF:1
FNH:0
DA:104,0
DA:193,0
DA:198,0
DA:206,0
LF:4
LH:0
end_of_record
SF:/home/runner/work/beaver/beaver/moose/framework/build/header_symlinks/FaceInfo.h
DA:80,0
DA:83,0
DA:131,21146
LF:3
LH:1
end_of_record
SF:/usr/share/miniconda3/envs/moose/libmesh/include/Eigen/src/Core/DenseStorage.h
DA:621,0
LF:1
LH:0
end_of_record
SF:/usr/share/miniconda3/envs/moose/libmesh/include/libmesh/vector_value.h
DA:47,0
DA:150,0
DA:151,0
DA:209,21614
LF:4
LH:1
end_of_record
SF:/usr/share/miniconda3/envs/moose/x86_64-conda-linux-gnu/include/c++/12.3.0/bits/ios_base.h
DA:167,0
LF:1
LH:0
end_of_record
SF:/home/runner/work/beaver/beaver/moose/framework/build/header_symlinks/TransientInterface.h
DA:85,21614
LF:1
LH:1
end_of_record
SF:/usr/share/miniconda3/envs/moose/x86_64-conda-linux-gnu/include/c++/12.3.0/bits/move.h
DA:204,0
DA:205,0
DA:206,0
LF:3
LH:0
end_of_record
SF:/usr/share/miniconda3/envs/moose/libmesh/include/metaphysicl/dualnumber_decl.h
DA:59,44310
DA:178,42292
DA:181,21614
LF:3
LH:3
end_of_record
SF:/home/runner/work/beaver/beaver/moose/framework/build/header_symlinks/InfixIterator.h
FN:46,_ZN22infix_ostream_iteratorINSt7__cxx1112basic_stringIcSt11char_traitsIcESaIcEEEcS3_EaSERKS5_
FNDA:0,_ZN22infix_ostream_iteratorINSt7__cxx1112basic_stringIcSt11char_traitsIcESaIcEEEcS3_EaSERKS5_
FNF:1
FNH:0
DA:46,0
DA:50,0
DA:51,0
DA:52,0
DA:53,0
DA:54,0
LF:6
LH:0
end_of_record
SF:/usr/share/miniconda3/envs/moose/libmesh/include/libmesh/threads_pthread.h
FN:147,_ZN7libMesh7Threads10spin_mutexD2Ev
FNDA:0,_ZN7libMesh7Threads10spin_mutexD2Ev
FN:502,_ZN7libMesh7Threads6atomicIjEppEv
FNDA:0,_ZN7libMesh7Threads6atomicIjEppEv
FN:516,_ZN7libMesh7Threads6atomicIjEmmEv
FNDA:0,_ZN7libMesh7Threads6atomicIjEmmEv
FNF:3
FNH:0
DA:147,0
DA:149,0
DA:150,0
DA:502,0
DA:505,0
DA:506,0
DA:516,0
DA:519,0
DA:520,0
LF:9
LH:0
end_of_record
SF:/usr/share/miniconda3/envs/moose/x86_64-conda-linux-gnu/include/c++/12.3.0/ext/aligned_buffer.h
DA:65,0
DA:69,0
DA:104,208
LF:3
LH:1
end_of_record
SF:/home/runner/work/beaver/beaver/moose/framework/build/header_symlinks/MooseObject.h
FN:35,_ZN11MooseObjectD0Ev
FNDA:0,_ZN11MooseObjectD0Ev
FN:35,_ZN11MooseObjectD2Ev
FNDA:0,_ZN11MooseObjectD2Ev
FN:40,_ZNK11MooseObject7enabledEv
FNDA:0,_ZNK11MooseObject7enabledEv
FNF:3
FNH:0
DA:35,0
DA:35,0
DA:40,0
LF:3
LH:0
end_of_record
SF:/home/runner/work/beaver/beaver/moose/framework/build/header_symlinks/PostprocessorInterface.h
FN:141,_ZNK22PostprocessorInterface32addPostprocessorDependencyHelperERK17PostprocessorName
FNDA:0,_ZNK22PostprocessorInterface32addPostprocessorDependencyHelperERK17PostprocessorName
FNF:1
FNH:0
DA:141,0
LF:1
LH:0
end_of_record
SF:/usr/share/miniconda3/envs/moose/x86_64-conda-linux-gnu/include/c++/12.3.0/istream
DA:219,0
LF:1
LH:0
end_of_record
SF:/home/runner/work/beaver/beaver/moose/framework/build/header_symlinks/FVTimeKernel.h
LF:0
LH:0
end_of_record
SF:/usr/share/miniconda3/envs/moose/x86_64-conda-linux-gnu/include/c++/12.3.0/bits/basic_ios.h
DA:138,0
LF:1
LH:0
end_of_record
SF:/usr/share/miniconda3/envs/moose/x86_64-conda-linux-gnu/include/c++/12.3.0/bits/stl_tree.h
FN:592,_ZNSt8_Rb_treeINSt7__cxx1112basic_stringIcSt11char_traitsIcESaIcEEESt4pairIKS5_St6vectorISt10shared_ptrI17RegistryEntryBaseESaISB_EEESt10_Select1stISE_ESt4lessIS5_ESaISE_EE17_M_construct_nodeIJRKSt21piecewise_construct_tSt5tupleIJRS7_EESP_IJEEEEEvPSt13_Rb_tree_nodeISE_EDpOT_
FNDA:0,_ZNSt8_Rb_treeINSt7__cxx1112basic_stringIcSt11char_traitsIcESaIcEEESt4pairIKS5_St6vectorISt10shared_ptrI17RegistryEntryBaseESaISB_EEESt10_Select1stISE_ESt4lessIS5_ESaISE_EE17_M_construct_nodeIJRKSt21piecewise_construct_tSt5tupleIJRS7_EESP_IJEEEEEvPSt13_Rb_tree_nodeISE_EDpOT_
FN:592,_ZNSt8_Rb_treeINSt7__cxx1112basic_stringIcSt11char_traitsIcESaIcEEESt4pairIKS5_St10unique_ptrIN7libMesh10Parameters5ValueESt14default_deleteISB_EEESt10_Select1stISF_ESt4lessIvESaISF_EE17_M_construct_nodeIJRKSt21piecewise_construct_tSt5tupleIJRS7_EESQ_IJEEEEEvPSt13_Rb_tree_nodeISF_EDpOT_
FNDA:0,_ZNSt8_Rb_treeINSt7__cxx1112basic_stringIcSt11char_traitsIcESaIcEEESt4pairIKS5_St10unique_ptrIN7libMesh10Parameters5ValueESt14default_deleteISB_EEESt10_Select1stISF_ESt4lessIvESaISF_EE17_M_construct_nodeIJRKSt21piecewise_construct_tSt5tupleIJRS7_EESQ_IJEEEEEvPSt13_Rb_tree_nodeISF_EDpOT_
FN:592,_ZNSt8_Rb_treeINSt7__cxx1112basic_stringIcSt11char_traitsIcESaIcEEESt4pairIKS5_N15InputParameters8MetadataEESt10_Select1stISA_ESt4lessIS5_ESaISA_EE17_M_construct_nodeIJRKSt21piecewise_construct_tSt5tupleIJRS7_EESL_IJEEEEEvPSt13_Rb_tree_nodeISA_EDpOT_
FNDA:0,_ZNSt8_Rb_treeINSt7__cxx1112basic_stringIcSt11char_traitsIcESaIcEEESt4pairIKS5_N15InputParameters8MetadataEESt10_Select1stISA_ESt4lessIS5_ESaISA_EE17_M_construct_nodeIJRKSt21piecewise_construct_tSt5tupleIJRS7_EESL_IJEEEEEvPSt13_Rb_tree_nodeISA_EDpOT_
FN:611,_ZNSt8_Rb_treeIN5Moose7FaceArgESt4pairIKS1_dESt10_Select1stIS4_ESt4lessIS1_ESaIS4_EE14_M_create_nodeIJRKSt21piecewise_construct_tSt5tupleIJRS3_EESF_IJOdEEEEEPSt13_Rb_tree_nodeIS4_EDpOT_
FNDA:0,_ZNSt8_Rb_treeIN5Moose7FaceArgESt4pairIKS1_dESt10_Select1stIS4_ESt4lessIS1_ESaIS4_EE14_M_create_nodeIJRKSt21piecewise_construct_tSt5tupleIJRS3_EESF_IJOdEEEEEPSt13_Rb_tree_nodeIS4_EDpOT_
FN:611,_ZNSt8_Rb_treeINSt7__cxx1112basic_stringIcSt11char_traitsIcESaIcEEESt4pairIKS5_N15InputParameters8MetadataEESt10_Select1stISA_ESt4lessIS5_ESaISA_EE14_M_create_nodeIJRKSt21piecewise_construct_tSt5tupleIJRS7_EESL_IJEEEEEPSt13_Rb_tree_nodeISA_EDpOT_
FNDA:0,_ZNSt8_Rb_treeINSt7__cxx1112basic_stringIcSt11char_traitsIcESaIcEEESt4pairIKS5_N15InputParameters8MetadataEESt10_Select1stISA_ESt4lessIS5_ESaISA_EE14_M_create_nodeIJRKSt21piecewise_construct_tSt5tupleIJRS7_EESL_IJEEEEEPSt13_Rb_tree_nodeISA_EDpOT_
FN:611,_ZNSt8_Rb_treeIN5Moose7FaceArgESt4pairIKS1_N11MetaPhysicL10DualNumberIdNS4_28SemiDynamicSparseNumberArrayIdmNS4_8NWrapperILm64EEEEELb1EEEESt10_Select1stISB_ESt4lessIS1_ESaISB_EE14_M_create_nodeIJRKSt21piecewise_construct_tSt5tupleIJRS3_EESM_IJOSA_EEEEEPSt13_Rb_tree_nodeISB_EDpOT_
FNDA:0,_ZNSt8_Rb_treeIN5Moose7FaceArgESt4pairIKS1_N11MetaPhysicL10DualNumberIdNS4_28SemiDynamicSparseNumberArrayIdmNS4_8NWrapperILm64EEEEELb1EEEESt10_Select1stISB_ESt4lessIS1_ESaISB_EE14_M_create_nodeIJRKSt21piecewise_construct_tSt5tupleIJRS3_EESM_IJOSA_EEEEEPSt13_Rb_tree_nodeISB_EDpOT_
FN:611,_ZNSt8_Rb_treeIN5Moose7ElemArgESt4pairIKS1_dESt10_Select1stIS4_ESt4lessIS1_ESaIS4_EE14_M_create_nodeIJRKSt21piecewise_construct_tSt5tupleIJRS3_EESF_IJOdEEEEEPSt13_Rb_tree_nodeIS4_EDpOT_
FNDA:0,_ZNSt8_Rb_treeIN5Moose7ElemArgESt4pairIKS1_dESt10_Select1stIS4_ESt4lessIS1_ESaIS4_EE14_M_create_nodeIJRKSt21piecewise_construct_tSt5tupleIJRS3_EESF_IJOdEEEEEPSt13_Rb_tree_nodeIS4_EDpOT_
FN:611,_ZNSt8_Rb_treeINSt7__cxx1112basic_stringIcSt11char_traitsIcESaIcEEESt4pairIKS5_St10unique_ptrIN7libMesh10Parameters5ValueESt14default_deleteISB_EEESt10_Select1stISF_ESt4lessIvESaISF_EE14_M_create_nodeIJRKSt21piecewise_construct_tSt5tupleIJRS7_EESQ_IJEEEEEPSt13_Rb_tree_nodeISF_EDpOT_
FNDA:0,_ZNSt8_Rb_treeINSt7__cxx1112basic_stringIcSt11char_traitsIcESaIcEEESt4pairIKS5_St10unique_ptrIN7libMesh10Parameters5ValueESt14default_deleteISB_EEESt10_Select1stISF_ESt4lessIvESaISF_EE14_M_create_nodeIJRKSt21piecewise_construct_tSt5tupleIJRS7_EESQ_IJEEEEEPSt13_Rb_tree_nodeISF_EDpOT_
FN:611,_ZNSt8_Rb_treeIN5Moose7ElemArgESt4pairIKS1_N11MetaPhysicL10DualNumberIdNS4_28SemiDynamicSparseNumberArrayIdmNS4_8NWrapperILm64EEEEELb1EEEESt10_Select1stISB_ESt4lessIS1_ESaISB_EE14_M_create_nodeIJRKSt21piecewise_construct_tSt5tupleIJRS3_EESM_IJOSA_EEEEEPSt13_Rb_tree_nodeISB_EDpOT_
FNDA:0,_ZNSt8_Rb_treeIN5Moose7ElemArgESt4pairIKS1_N11MetaPhysicL10DualNumberIdNS4_28SemiDynamicSparseNumberArrayIdmNS4_8NWrapperILm64EEEEELb1EEEESt10_Select1stISB_ESt4lessIS1_ESaISB_EE14_M_create_nodeIJRKSt21piecewise_construct_tSt5tupleIJRS3_EESM_IJOSA_EEEEEPSt13_Rb_tree_nodeISB_EDpOT_
FN:611,_ZNSt8_Rb_treeINSt7__cxx1112basic_stringIcSt11char_traitsIcESaIcEEESt4pairIKS5_St6vectorISt10shared_ptrI17RegistryEntryBaseESaISB_EEESt10_Select1stISE_ESt4lessIS5_ESaISE_EE14_M_create_nodeIJRKSt21piecewise_construct_tSt5tupleIJRS7_EESP_IJEEEEEPSt13_Rb_tree_nodeISE_EDpOT_
FNDA:0,_ZNSt8_Rb_treeINSt7__cxx1112basic_stringIcSt11char_traitsIcESaIcEEESt4pairIKS5_St6vectorISt10shared_ptrI17RegistryEntryBaseESaISB_EEESt10_Select1stISE_ESt4lessIS5_ESaISE_EE14_M_create_nodeIJRKSt21piecewise_construct_tSt5tupleIJRS7_EESP_IJEEEEEPSt13_Rb_tree_nodeISE_EDpOT_
FN:611,_ZNSt8_Rb_treeINSt7__cxx1112basic_stringIcSt11char_traitsIcESaIcEEESt4pairIKS5_S5_ESt10_Select1stIS8_ESt4lessIS5_ESaIS8_EE14_M_create_nodeIJRKSt21piecewise_construct_tSt5tupleIJOS5_EESJ_IJEEEEEPSt13_Rb_tree_nodeIS8_EDpOT_
FNDA:0,_ZNSt8_Rb_treeINSt7__cxx1112basic_stringIcSt11char_traitsIcESaIcEEESt4pairIKS5_S5_ESt10_Select1stIS8_ESt4lessIS5_ESaIS8_EE14_M_create_nodeIJRKSt21piecewise_construct_tSt5tupleIJOS5_EESJ_IJEEEEEPSt13_Rb_tree_nodeIS8_EDpOT_
FN:631,_ZNSt8_Rb_treeI17PostprocessorNameSt4pairIKS0_St10unique_ptrIdSt14default_deleteIdEEESt10_Select1stIS7_ESt4lessIS0_ESaIS7_EE12_M_drop_nodeEPSt13_Rb_tree_nodeIS7_E
FNDA:0,_ZNSt8_Rb_treeI17PostprocessorNameSt4pairIKS0_St10unique_ptrIdSt14default_deleteIdEEESt10_Select1stIS7_ESt4lessIS0_ESaIS7_EE12_M_drop_nodeEPSt13_Rb_tree_nodeIS7_E
FN:631,_ZNSt8_Rb_treeINSt7__cxx1112basic_stringIcSt11char_traitsIcESaIcEEESt4pairIKS5_St10unique_ptrIN7libMesh10Parameters5ValueESt14default_deleteISB_EEESt10_Select1stISF_ESt4lessIvESaISF_EE12_M_drop_nodeEPSt13_Rb_tree_nodeISF_E
FNDA:0,_ZNSt8_Rb_treeINSt7__cxx1112basic_stringIcSt11char_traitsIcESaIcEEESt4pairIKS5_St10unique_ptrIN7libMesh10Parameters5ValueESt14default_deleteISB_EEESt10_Select1stISF_ESt4lessIvESaISF_EE12_M_drop_nodeEPSt13_Rb_tree_nodeISF_E
FN:631,_ZNSt8_Rb_treeINSt7__cxx1112basic_stringIcSt11char_traitsIcESaIcEEESt4pairIKS5_St6vectorISt10shared_ptrI17RegistryEntryBaseESaISB_EEESt10_Select1stISE_ESt4lessIS5_ESaISE_EE12_M_drop_nodeEPSt13_Rb_tree_nodeISE_E
FNDA:0,_ZNSt8_Rb_treeINSt7__cxx1112basic_stringIcSt11char_traitsIcESaIcEEESt4pairIKS5_St6vectorISt10shared_ptrI17RegistryEntryBaseESaISB_EEESt10_Select1stISE_ESt4lessIS5_ESaISE_EE12_M_drop_nodeEPSt13_Rb_tree_nodeISE_E
FN:631,_ZNSt8_Rb_treeINSt7__cxx1112basic_stringIcSt11char_traitsIcESaIcEEESt4pairIKS5_S5_ESt10_Select1stIS8_ESt4lessIS5_ESaIS8_EE12_M_drop_nodeEPSt13_Rb_tree_nodeIS8_E
FNDA:0,_ZNSt8_Rb_treeINSt7__cxx1112basic_stringIcSt11char_traitsIcESaIcEEESt4pairIKS5_S5_ESt10_Select1stIS8_ESt4lessIS5_ESaIS8_EE12_M_drop_nodeEPSt13_Rb_tree_nodeIS8_E
FN:631,_ZNSt8_Rb_treeI13MooseEnumItemS0_St9_IdentityIS0_ESt4lessIS0_ESaIS0_EE12_M_drop_nodeEPSt13_Rb_tree_nodeIS0_E
FNDA:0,_ZNSt8_Rb_treeI13MooseEnumItemS0_St9_IdentityIS0_ESt4lessIS0_ESaIS0_EE12_M_drop_nodeEPSt13_Rb_tree_nodeIS0_E
FN:631,_ZNSt8_Rb_treeINSt7__cxx1112basic_stringIcSt11char_traitsIcESaIcEEESt4pairIKS5_N15InputParameters8MetadataEESt10_Select1stISA_ESt4lessIS5_ESaISA_EE12_M_drop_nodeEPSt13_Rb_tree_nodeISA_E
FNDA:0,_ZNSt8_Rb_treeINSt7__cxx1112basic_stringIcSt11char_traitsIcESaIcEEESt4pairIKS5_N15InputParameters8MetadataEESt10_Select1stISA_ESt4lessIS5_ESaISA_EE12_M_drop_nodeEPSt13_Rb_tree_nodeISA_E
FN:1254,_ZNSt8_Rb_treeIN5Moose7NodeArgESt4pairIKS1_N11MetaPhysicL10DualNumberIdNS4_28SemiDynamicSparseNumberArrayIdmNS4_8NWrapperILm64EEEEELb1EEEESt10_Select1stISB_ESt4lessIS1_ESaISB_EE5clearEv
FNDA:0,_ZNSt8_Rb_treeIN5Moose7NodeArgESt4pairIKS1_N11MetaPhysicL10DualNumberIdNS4_28SemiDynamicSparseNumberArrayIdmNS4_8NWrapperILm64EEEEELb1EEEESt10_Select1stISB_ESt4lessIS1_ESaISB_EE5clearEv
FN:1254,_ZNSt8_Rb_treeIN5Moose7FaceArgESt4pairIKS1_dESt10_Select1stIS4_ESt4lessIS1_ESaIS4_EE5clearEv
FNDA:0,_ZNSt8_Rb_treeIN5Moose7FaceArgESt4pairIKS1_dESt10_Select1stIS4_ESt4lessIS1_ESaIS4_EE5clearEv
FN:1254,_ZNSt8_Rb_treeIN5Moose7ElemArgESt4pairIKS1_dESt10_Select1stIS4_ESt4lessIS1_ESaIS4_EE5clearEv
FNDA:0,_ZNSt8_Rb_treeIN5Moose7ElemArgESt4pairIKS1_dESt10_Select1stIS4_ESt4lessIS1_ESaIS4_EE5clearEv
FN:1254,_ZNSt8_Rb_treeIN5Moose7NodeArgESt4pairIKS1_dESt10_Select1stIS4_ESt4lessIS1_ESaIS4_EE5clearEv
FNDA:0,_ZNSt8_Rb_treeIN5Moose7NodeArgESt4pairIKS1_dESt10_Select1stIS4_ESt4lessIS1_ESaIS4_EE5clearEv
FN:1254,_ZNSt8_Rb_treeIN5Moose7FaceArgESt4pairIKS1_N11MetaPhysicL10DualNumberIdNS4_28SemiDynamicSparseNumberArrayIdmNS4_8NWrapperILm64EEEEELb1EEEESt10_Select1stISB_ESt4lessIS1_ESaISB_EE5clearEv
FNDA:0,_ZNSt8_Rb_treeIN5Moose7FaceArgESt4pairIKS1_N11MetaPhysicL10DualNumberIdNS4_28SemiDynamicSparseNumberArrayIdmNS4_8NWrapperILm64EEEEELb1EEEESt10_Select1stISB_ESt4lessIS1_ESaISB_EE5clearEv
FN:1254,_ZNSt8_Rb_treeIN5Moose7ElemArgESt4pairIKS1_N11MetaPhysicL10DualNumberIdNS4_28SemiDynamicSparseNumberArrayIdmNS4_8NWrapperILm64EEEEELb1EEEESt10_Select1stISB_ESt4lessIS1_ESaISB_EE5clearEv
FNDA:0,_ZNSt8_Rb_treeIN5Moose7ElemArgESt4pairIKS1_N11MetaPhysicL10DualNumberIdNS4_28SemiDynamicSparseNumberArrayIdmNS4_8NWrapperILm64EEEEELb1EEEESt10_Select1stISB_ESt4lessIS1_ESaISB_EE5clearEv
FN:1254,_ZNSt8_Rb_treeINSt7__cxx1112basic_stringIcSt11char_traitsIcESaIcEEESt4pairIKS5_St10unique_ptrIN7libMesh10Parameters5ValueESt14default_deleteISB_EEESt10_Select1stISF_ESt4lessIvESaISF_EE5clearEv
FNDA:0,_ZNSt8_Rb_treeINSt7__cxx1112basic_stringIcSt11char_traitsIcESaIcEEESt4pairIKS5_St10unique_ptrIN7libMesh10Parameters5ValueESt14default_deleteISB_EEESt10_Select1stISF_ESt4lessIvESaISF_EE5clearEv
FN:1305,_ZNKSt8_Rb_treeINSt7__cxx1112basic_stringIcSt11char_traitsIcESaIcEEESt4pairIKS5_St10unique_ptrIN7libMesh10Parameters5ValueESt14default_deleteISB_EEESt10_Select1stISF_ESt4lessIvESaISF_EE10_M_find_trISt17basic_string_viewIcS3_EvEESt23_Rb_tree_const_iteratorISF_ERKT_
FNDA:0,_ZNKSt8_Rb_treeINSt7__cxx1112basic_stringIcSt11char_traitsIcESaIcEEESt4pairIKS5_St10unique_ptrIN7libMesh10Parameters5ValueESt14default_deleteISB_EEESt10_Select1stISF_ESt4lessIvESaISF_EE10_M_find_trISt17basic_string_viewIcS3_EvEESt23_Rb_tree_const_iteratorISF_ERKT_
FN:1334,_ZNKSt8_Rb_treeINSt7__cxx1112basic_stringIcSt11char_traitsIcESaIcEEESt4pairIKS5_St10unique_ptrIN7libMesh10Parameters5ValueESt14default_deleteISB_EEESt10_Select1stISF_ESt4lessIvESaISF_EE17_M_lower_bound_trISt17basic_string_viewIcS3_EvEESt23_Rb_tree_const_iteratorISF_ERKT_
FNDA:0,_ZNKSt8_Rb_treeINSt7__cxx1112basic_stringIcSt11char_traitsIcESaIcEEESt4pairIKS5_St10unique_ptrIN7libMesh10Parameters5ValueESt14default_deleteISB_EEESt10_Select1stISF_ESt4lessIvESaISF_EE17_M_lower_bound_trISt17basic_string_viewIcS3_EvEESt23_Rb_tree_const_iteratorISF_ERKT_
FN:1641,_ZNSt8_Rb_treeINSt7__cxx1112basic_stringIcSt11char_traitsIcESaIcEEESt4pairIKS5_St10unique_ptrIN7libMesh10Parameters5ValueESt14default_deleteISB_EEESt10_Select1stISF_ESt4lessIvESaISF_EE10_Auto_nodeD2Ev
FNDA:0,_ZNSt8_Rb_treeINSt7__cxx1112basic_stringIcSt11char_traitsIcESaIcEEESt4pairIKS5_St10unique_ptrIN7libMesh10Parameters5ValueESt14default_deleteISB_EEESt10_Select1stISF_ESt4lessIvESaISF_EE10_Auto_nodeD2Ev
FN:1641,_ZNSt8_Rb_treeIN5Moose7ElemArgESt4pairIKS1_dESt10_Select1stIS4_ESt4lessIS1_ESaIS4_EE10_Auto_nodeD2Ev
FNDA:0,_ZNSt8_Rb_treeIN5Moose7ElemArgESt4pairIKS1_dESt10_Select1stIS4_ESt4lessIS1_ESaIS4_EE10_Auto_nodeD2Ev
FN:1641,_ZNSt8_Rb_treeIN5Moose7FaceArgESt4pairIKS1_N11MetaPhysicL10DualNumberIdNS4_28SemiDynamicSparseNumberArrayIdmNS4_8NWrapperILm64EEEEELb1EEEESt10_Select1stISB_ESt4lessIS1_ESaISB_EE10_Auto_nodeD2Ev
FNDA:0,_ZNSt8_Rb_treeIN5Moose7FaceArgESt4pairIKS1_N11MetaPhysicL10DualNumberIdNS4_28SemiDynamicSparseNumberArrayIdmNS4_8NWrapperILm64EEEEELb1EEEESt10_Select1stISB_ESt4lessIS1_ESaISB_EE10_Auto_nodeD2Ev
FN:1641,_ZNSt8_Rb_treeINSt7__cxx1112basic_stringIcSt11char_traitsIcESaIcEEESt4pairIKS5_N15InputParameters8MetadataEESt10_Select1stISA_ESt4lessIS5_ESaISA_EE10_Auto_nodeD2Ev
FNDA:0,_ZNSt8_Rb_treeINSt7__cxx1112basic_stringIcSt11char_traitsIcESaIcEEESt4pairIKS5_N15InputParameters8MetadataEESt10_Select1stISA_ESt4lessIS5_ESaISA_EE10_Auto_nodeD2Ev
FN:1641,_ZNSt8_Rb_treeINSt7__cxx1112basic_stringIcSt11char_traitsIcESaIcEEESt4pairIKS5_St6vectorISt10shared_ptrI17RegistryEntryBaseESaISB_EEESt10_Select1stISE_ESt4lessIS5_ESaISE_EE10_Auto_nodeD2Ev
FNDA:0,_ZNSt8_Rb_treeINSt7__cxx1112basic_stringIcSt11char_traitsIcESaIcEEESt4pairIKS5_St6vectorISt10shared_ptrI17RegistryEntryBaseESaISB_EEESt10_Select1stISE_ESt4lessIS5_ESaISE_EE10_Auto_nodeD2Ev
FN:1641,_ZNSt8_Rb_treeIN5Moose7FaceArgESt4pairIKS1_dESt10_Select1stIS4_ESt4lessIS1_ESaIS4_EE10_Auto_nodeD2Ev
FNDA:0,_ZNSt8_Rb_treeIN5Moose7FaceArgESt4pairIKS1_dESt10_Select1stIS4_ESt4lessIS1_ESaIS4_EE10_Auto_nodeD2Ev
FN:1641,_ZNSt8_Rb_treeINSt7__cxx1112basic_stringIcSt11char_traitsIcESaIcEEESt4pairIKS5_S5_ESt10_Select1stIS8_ESt4lessIS5_ESaIS8_EE10_Auto_nodeD2Ev
FNDA:0,_ZNSt8_Rb_treeINSt7__cxx1112basic_stringIcSt11char_traitsIcESaIcEEESt4pairIKS5_S5_ESt10_Select1stIS8_ESt4lessIS5_ESaIS8_EE10_Auto_nodeD2Ev
FN:1641,_ZNSt8_Rb_treeIN5Moose7ElemArgESt4pairIKS1_N11MetaPhysicL10DualNumberIdNS4_28SemiDynamicSparseNumberArrayIdmNS4_8NWrapperILm64EEEEELb1EEEESt10_Select1stISB_ESt4lessIS1_ESaISB_EE10_Auto_nodeD2Ev
FNDA:0,_ZNSt8_Rb_treeIN5Moose7ElemArgESt4pairIKS1_N11MetaPhysicL10DualNumberIdNS4_28SemiDynamicSparseNumberArrayIdmNS4_8NWrapperILm64EEEEELb1EEEESt10_Select1stISB_ESt4lessIS1_ESaISB_EE10_Auto_nodeD2Ev
FN:1656,_ZNSt8_Rb_treeIN5Moose7ElemArgESt4pairIKS1_dESt10_Select1stIS4_ESt4lessIS1_ESaIS4_EE10_Auto_node9_M_insertES2_IPSt18_Rb_tree_node_baseSD_E
FNDA:0,_ZNSt8_Rb_treeIN5Moose7ElemArgESt4pairIKS1_dESt10_Select1stIS4_ESt4lessIS1_ESaIS4_EE10_Auto_node9_M_insertES2_IPSt18_Rb_tree_node_baseSD_E
FN:1656,_ZNSt8_Rb_treeINSt7__cxx1112basic_stringIcSt11char_traitsIcESaIcEEESt4pairIKS5_N15InputParameters8MetadataEESt10_Select1stISA_ESt4lessIS5_ESaISA_EE10_Auto_node9_M_insertES6_IPSt18_Rb_tree_node_baseSJ_E
FNDA:0,_ZNSt8_Rb_treeINSt7__cxx1112basic_stringIcSt11char_traitsIcESaIcEEESt4pairIKS5_N15InputParameters8MetadataEESt10_Select1stISA_ESt4lessIS5_ESaISA_EE10_Auto_node9_M_insertES6_IPSt18_Rb_tree_node_baseSJ_E
FN:1656,_ZNSt8_Rb_treeIN5Moose7FaceArgESt4pairIKS1_N11MetaPhysicL10DualNumberIdNS4_28SemiDynamicSparseNumberArrayIdmNS4_8NWrapperILm64EEEEELb1EEEESt10_Select1stISB_ESt4lessIS1_ESaISB_EE10_Auto_node9_M_insertES2_IPSt18_Rb_tree_node_baseSK_E
FNDA:0,_ZNSt8_Rb_treeIN5Moose7FaceArgESt4pairIKS1_N11MetaPhysicL10DualNumberIdNS4_28SemiDynamicSparseNumberArrayIdmNS4_8NWrapperILm64EEEEELb1EEEESt10_Select1stISB_ESt4lessIS1_ESaISB_EE10_Auto_node9_M_insertES2_IPSt18_Rb_tree_node_baseSK_E
FN:1656,_ZNSt8_Rb_treeIN5Moose7ElemArgESt4pairIKS1_N11MetaPhysicL10DualNumberIdNS4_28SemiDynamicSparseNumberArrayIdmNS4_8NWrapperILm64EEEEELb1EEEESt10_Select1stISB_ESt4lessIS1_ESaISB_EE10_Auto_node9_M_insertES2_IPSt18_Rb_tree_node_baseSK_E
FNDA:0,_ZNSt8_Rb_treeIN5Moose7ElemArgESt4pairIKS1_N11MetaPhysicL10DualNumberIdNS4_28SemiDynamicSparseNumberArrayIdmNS4_8NWrapperILm64EEEEELb1EEEESt10_Select1stISB_ESt4lessIS1_ESaISB_EE10_Auto_node9_M_insertES2_IPSt18_Rb_tree_node_baseSK_E
FN:1656,_ZNSt8_Rb_treeINSt7__cxx1112basic_stringIcSt11char_traitsIcESaIcEEESt4pairIKS5_S5_ESt10_Select1stIS8_ESt4lessIS5_ESaIS8_EE10_Auto_node9_M_insertES6_IPSt18_Rb_tree_node_baseSH_E
FNDA:0,_ZNSt8_Rb_treeINSt7__cxx1112basic_stringIcSt11char_traitsIcESaIcEEESt4pairIKS5_S5_ESt10_Select1stIS8_ESt4lessIS5_ESaIS8_EE10_Auto_node9_M_insertES6_IPSt18_Rb_tree_node_baseSH_E
FN:1656,_ZNSt8_Rb_treeINSt7__cxx1112basic_stringIcSt11char_traitsIcESaIcEEESt4pairIKS5_St6vectorISt10shared_ptrI17RegistryEntryBaseESaISB_EEESt10_Select1stISE_ESt4lessIS5_ESaISE_EE10_Auto_node9_M_insertES6_IPSt18_Rb_tree_node_baseSN_E
FNDA:0,_ZNSt8_Rb_treeINSt7__cxx1112basic_stringIcSt11char_traitsIcESaIcEEESt4pairIKS5_St6vectorISt10shared_ptrI17RegistryEntryBaseESaISB_EEESt10_Select1stISE_ESt4lessIS5_ESaISE_EE10_Auto_node9_M_insertES6_IPSt18_Rb_tree_node_baseSN_E
FN:1656,_ZNSt8_Rb_treeIN5Moose7FaceArgESt4pairIKS1_dESt10_Select1stIS4_ESt4lessIS1_ESaIS4_EE10_Auto_node9_M_insertES2_IPSt18_Rb_tree_node_baseSD_E
FNDA:0,_ZNSt8_Rb_treeIN5Moose7FaceArgESt4pairIKS1_dESt10_Select1stIS4_ESt4lessIS1_ESaIS4_EE10_Auto_node9_M_insertES2_IPSt18_Rb_tree_node_baseSD_E
FN:1656,_ZNSt8_Rb_treeINSt7__cxx1112basic_stringIcSt11char_traitsIcESaIcEEESt4pairIKS5_St10unique_ptrIN7libMesh10Parameters5ValueESt14default_deleteISB_EEESt10_Select1stISF_ESt4lessIvESaISF_EE10_Auto_node9_M_insertES6_IPSt18_Rb_tree_node_baseSO_E
FNDA:0,_ZNSt8_Rb_treeINSt7__cxx1112basic_stringIcSt11char_traitsIcESaIcEEESt4pairIKS5_St10unique_ptrIN7libMesh10Parameters5ValueESt14default_deleteISB_EEESt10_Select1stISF_ESt4lessIvESaISF_EE10_Auto_node9_M_insertES6_IPSt18_Rb_tree_node_baseSO_E
FN:1931,_ZNSt8_Rb_treeI13MooseEnumItemSt4pairIKS0_NSt7__cxx1112basic_stringIcSt11char_traitsIcESaIcEEEESt10_Select1stIS9_ESt4lessIS0_ESaIS9_EE8_M_eraseEPSt13_Rb_tree_nodeIS9_E
FNDA:0,_ZNSt8_Rb_treeI13MooseEnumItemSt4pairIKS0_NSt7__cxx1112basic_stringIcSt11char_traitsIcESaIcEEEESt10_Select1stIS9_ESt4lessIS0_ESaIS9_EE8_M_eraseEPSt13_Rb_tree_nodeIS9_E
FN:1931,_ZNSt8_Rb_treeINSt7__cxx1112basic_stringIcSt11char_traitsIcESaIcEEESt4pairIKS5_S5_ESt10_Select1stIS8_ESt4lessIS5_ESaIS8_EE8_M_eraseEPSt13_Rb_tree_nodeIS8_E
FNDA:0,_ZNSt8_Rb_treeINSt7__cxx1112basic_stringIcSt11char_traitsIcESaIcEEESt4pairIKS5_S5_ESt10_Select1stIS8_ESt4lessIS5_ESaIS8_EE8_M_eraseEPSt13_Rb_tree_nodeIS8_E
FN:1931,_ZNSt8_Rb_treeI13MooseEnumItemSt4pairIKS0_S0_ESt10_Select1stIS3_ESt4lessIS0_ESaIS3_EE8_M_eraseEPSt13_Rb_tree_nodeIS3_E
FNDA:0,_ZNSt8_Rb_treeI13MooseEnumItemSt4pairIKS0_S0_ESt10_Select1stIS3_ESt4lessIS0_ESaIS3_EE8_M_eraseEPSt13_Rb_tree_nodeIS3_E
FN:1931,_ZNSt8_Rb_treeINSt7__cxx1112basic_stringIcSt11char_traitsIcESaIcEEES5_St9_IdentityIS5_ESt4lessIS5_ESaIS5_EE8_M_eraseEPSt13_Rb_tree_nodeIS5_E
FNDA:0,_ZNSt8_Rb_treeINSt7__cxx1112basic_stringIcSt11char_traitsIcESaIcEEES5_St9_IdentityIS5_ESt4lessIS5_ESaIS5_EE8_M_eraseEPSt13_Rb_tree_nodeIS5_E
FN:1931,_ZNSt8_Rb_treeIssSt9_IdentityIsESt4lessIsESaIsEE8_M_eraseEPSt13_Rb_tree_nodeIsE
FNDA:0,_ZNSt8_Rb_treeIssSt9_IdentityIsESt4lessIsESaIsEE8_M_eraseEPSt13_Rb_tree_nodeIsE
FN:1931,_ZNSt8_Rb_treeI13MooseEnumItemS0_St9_IdentityIS0_ESt4lessIS0_ESaIS0_EE8_M_eraseEPSt13_Rb_tree_nodeIS0_E
FNDA:0,_ZNSt8_Rb_treeI13MooseEnumItemS0_St9_IdentityIS0_ESt4lessIS0_ESaIS0_EE8_M_eraseEPSt13_Rb_tree_nodeIS0_E
FN:1931,_ZNSt8_Rb_treeIttSt9_IdentityItESt4lessItESaItEE8_M_eraseEPSt13_Rb_tree_nodeItE
FNDA:0,_ZNSt8_Rb_treeIttSt9_IdentityItESt4lessItESaItEE8_M_eraseEPSt13_Rb_tree_nodeItE
FN:1931,_ZNSt8_Rb_treeINSt7__cxx1112basic_stringIcSt11char_traitsIcESaIcEEESt4pairIKS5_St10unique_ptrIN7libMesh10Parameters5ValueESt14default_deleteISB_EEESt10_Select1stISF_ESt4lessIvESaISF_EE8_M_eraseEPSt13_Rb_tree_nodeISF_E
FNDA:0,_ZNSt8_Rb_treeINSt7__cxx1112basic_stringIcSt11char_traitsIcESaIcEEESt4pairIKS5_St10unique_ptrIN7libMesh10Parameters5ValueESt14default_deleteISB_EEESt10_Select1stISF_ESt4lessIvESaISF_EE8_M_eraseEPSt13_Rb_tree_nodeISF_E
FN:1931,_ZNSt8_Rb_treeI17PostprocessorNameSt4pairIKS0_St10unique_ptrIdSt14default_deleteIdEEESt10_Select1stIS7_ESt4lessIS0_ESaIS7_EE8_M_eraseEPSt13_Rb_tree_nodeIS7_E
FNDA:88,_ZNSt8_Rb_treeI17PostprocessorNameSt4pairIKS0_St10unique_ptrIdSt14default_deleteIdEEESt10_Select1stIS7_ESt4lessIS0_ESaIS7_EE8_M_eraseEPSt13_Rb_tree_nodeIS7_E
FN:1931,_ZNSt8_Rb_treeINSt7__cxx1112basic_stringIcSt11char_traitsIcESaIcEEESt4pairIKS5_S6_IS5_S5_EESt10_Select1stIS9_ESt4lessIS5_ESaIS9_EE8_M_eraseEPSt13_Rb_tree_nodeIS9_E
FNDA:0,_ZNSt8_Rb_treeINSt7__cxx1112basic_stringIcSt11char_traitsIcESaIcEEESt4pairIKS5_S6_IS5_S5_EESt10_Select1stIS9_ESt4lessIS5_ESaIS9_EE8_M_eraseEPSt13_Rb_tree_nodeIS9_E
FN:1931,_ZNSt8_Rb_treeIP22MooseVariableFieldBaseS1_St9_IdentityIS1_ESt4lessIS1_ESaIS1_EE8_M_eraseEPSt13_Rb_tree_nodeIS1_E
FNDA:8,_ZNSt8_Rb_treeIP22MooseVariableFieldBaseS1_St9_IdentityIS1_ESt4lessIS1_ESaIS1_EE8_M_eraseEPSt13_Rb_tree_nodeIS1_E
FN:1931,_ZNSt8_Rb_treeINSt7__cxx1112basic_stringIcSt11char_traitsIcESaIcEEESt4pairIKS5_N15InputParameters8MetadataEESt10_Select1stISA_ESt4lessIS5_ESaISA_EE8_M_eraseEPSt13_Rb_tree_nodeISA_E
FNDA:0,_ZNSt8_Rb_treeINSt7__cxx1112basic_stringIcSt11char_traitsIcESaIcEEESt4pairIKS5_N15InputParameters8MetadataEESt10_Select1stISA_ESt4lessIS5_ESaISA_EE8_M_eraseEPSt13_Rb_tree_nodeISA_E
FN:1931,_ZNSt8_Rb_treeIN5Moose7NodeArgESt4pairIKS1_N11MetaPhysicL10DualNumberIdNS4_28SemiDynamicSparseNumberArrayIdmNS4_8NWrapperILm64EEEEELb1EEEESt10_Select1stISB_ESt4lessIS1_ESaISB_EE8_M_eraseEPSt13_Rb_tree_nodeISB_E
FNDA:0,_ZNSt8_Rb_treeIN5Moose7NodeArgESt4pairIKS1_N11MetaPhysicL10DualNumberIdNS4_28SemiDynamicSparseNumberArrayIdmNS4_8NWrapperILm64EEEEELb1EEEESt10_Select1stISB_ESt4lessIS1_ESaISB_EE8_M_eraseEPSt13_Rb_tree_nodeISB_E
FN:1931,_ZNSt8_Rb_treeIN5Moose7FaceArgESt4pairIKS1_N11MetaPhysicL10DualNumberIdNS4_28SemiDynamicSparseNumberArrayIdmNS4_8NWrapperILm64EEEEELb1EEEESt10_Select1stISB_ESt4lessIS1_ESaISB_EE8_M_eraseEPSt13_Rb_tree_nodeISB_E
FNDA:0,_ZNSt8_Rb_treeIN5Moose7FaceArgESt4pairIKS1_N11MetaPhysicL10DualNumberIdNS4_28SemiDynamicSparseNumberArrayIdmNS4_8NWrapperILm64EEEEELb1EEEESt10_Select1stISB_ESt4lessIS1_ESaISB_EE8_M_eraseEPSt13_Rb_tree_nodeISB_E
FN:1931,_ZNSt8_Rb_treeIN5Moose7ElemArgESt4pairIKS1_N11MetaPhysicL10DualNumberIdNS4_28SemiDynamicSparseNumberArrayIdmNS4_8NWrapperILm64EEEEELb1EEEESt10_Select1stISB_ESt4lessIS1_ESaISB_EE8_M_eraseEPSt13_Rb_tree_nodeISB_E
FNDA:0,_ZNSt8_Rb_treeIN5Moose7ElemArgESt4pairIKS1_N11MetaPhysicL10DualNumberIdNS4_28SemiDynamicSparseNumberArrayIdmNS4_8NWrapperILm64EEEEELb1EEEESt10_Select1stISB_ESt4lessIS1_ESaISB_EE8_M_eraseEPSt13_Rb_tree_nodeISB_E
FN:1931,_ZNSt8_Rb_treeIN5Moose7NodeArgESt4pairIKS1_dESt10_Select1stIS4_ESt4lessIS1_ESaIS4_EE8_M_eraseEPSt13_Rb_tree_nodeIS4_E
FNDA:0,_ZNSt8_Rb_treeIN5Moose7NodeArgESt4pairIKS1_dESt10_Select1stIS4_ESt4lessIS1_ESaIS4_EE8_M_eraseEPSt13_Rb_tree_nodeIS4_E
FN:1931,_ZNSt8_Rb_treeIN5Moose7FaceArgESt4pairIKS1_dESt10_Select1stIS4_ESt4lessIS1_ESaIS4_EE8_M_eraseEPSt13_Rb_tree_nodeIS4_E
FNDA:0,_ZNSt8_Rb_treeIN5Moose7FaceArgESt4pairIKS1_dESt10_Select1stIS4_ESt4lessIS1_ESaIS4_EE8_M_eraseEPSt13_Rb_tree_nodeIS4_E
FN:1931,_ZNSt8_Rb_treeIN5Moose7ElemArgESt4pairIKS1_dESt10_Select1stIS4_ESt4lessIS1_ESaIS4_EE8_M_eraseEPSt13_Rb_tree_nodeIS4_E
FNDA:0,_ZNSt8_Rb_treeIN5Moose7ElemArgESt4pairIKS1_dESt10_Select1stIS4_ESt4lessIS1_ESaIS4_EE8_M_eraseEPSt13_Rb_tree_nodeIS4_E
FN:1931,_ZNSt8_Rb_treeIjjSt9_IdentityIjESt4lessIjESaIjEE8_M_eraseEPSt13_Rb_tree_nodeIjE
FNDA:0,_ZNSt8_Rb_treeIjjSt9_IdentityIjESt4lessIjESaIjEE8_M_eraseEPSt13_Rb_tree_nodeIjE
FN:1931,_ZNSt8_Rb_treeIP18MooseVariableFieldIdES2_St9_IdentityIS2_ESt4lessIS2_ESaIS2_EE8_M_eraseEPSt13_Rb_tree_nodeIS2_E
FNDA:0,_ZNSt8_Rb_treeIP18MooseVariableFieldIdES2_St9_IdentityIS2_ESt4lessIS2_ESaIS2_EE8_M_eraseEPSt13_Rb_tree_nodeIS2_E
FN:1948,_ZNSt8_Rb_treeIN5Moose7ElemArgESt4pairIKS1_dESt10_Select1stIS4_ESt4lessIS1_ESaIS4_EE14_M_lower_boundEPSt13_Rb_tree_nodeIS4_EPSt18_Rb_tree_node_baseRS3_
FNDA:0,_ZNSt8_Rb_treeIN5Moose7ElemArgESt4pairIKS1_dESt10_Select1stIS4_ESt4lessIS1_ESaIS4_EE14_M_lower_boundEPSt13_Rb_tree_nodeIS4_EPSt18_Rb_tree_node_baseRS3_
FN:1948,_ZNSt8_Rb_treeINSt7__cxx1112basic_stringIcSt11char_traitsIcESaIcEEESt4pairIKS5_St6vectorISt10shared_ptrI17RegistryEntryBaseESaISB_EEESt10_Select1stISE_ESt4lessIS5_ESaISE_EE14_M_lower_boundEPSt13_Rb_tree_nodeISE_EPSt18_Rb_tree_node_baseRS7_
FNDA:0,_ZNSt8_Rb_treeINSt7__cxx1112basic_stringIcSt11char_traitsIcESaIcEEESt4pairIKS5_St6vectorISt10shared_ptrI17RegistryEntryBaseESaISB_EEESt10_Select1stISE_ESt4lessIS5_ESaISE_EE14_M_lower_boundEPSt13_Rb_tree_nodeISE_EPSt18_Rb_tree_node_baseRS7_
FN:1948,_ZNSt8_Rb_treeIN5Moose7FaceArgESt4pairIKS1_dESt10_Select1stIS4_ESt4lessIS1_ESaIS4_EE14_M_lower_boundEPSt13_Rb_tree_nodeIS4_EPSt18_Rb_tree_node_baseRS3_
FNDA:0,_ZNSt8_Rb_treeIN5Moose7FaceArgESt4pairIKS1_dESt10_Select1stIS4_ESt4lessIS1_ESaIS4_EE14_M_lower_boundEPSt13_Rb_tree_nodeIS4_EPSt18_Rb_tree_node_baseRS3_
FN:1948,_ZNSt8_Rb_treeIN5Moose7FaceArgESt4pairIKS1_N11MetaPhysicL10DualNumberIdNS4_28SemiDynamicSparseNumberArrayIdmNS4_8NWrapperILm64EEEEELb1EEEESt10_Select1stISB_ESt4lessIS1_ESaISB_EE14_M_lower_boundEPSt13_Rb_tree_nodeISB_EPSt18_Rb_tree_node_baseRS3_
FNDA:0,_ZNSt8_Rb_treeIN5Moose7FaceArgESt4pairIKS1_N11MetaPhysicL10DualNumberIdNS4_28SemiDynamicSparseNumberArrayIdmNS4_8NWrapperILm64EEEEELb1EEEESt10_Select1stISB_ESt4lessIS1_ESaISB_EE14_M_lower_boundEPSt13_Rb_tree_nodeISB_EPSt18_Rb_tree_node_baseRS3_
FN:1948,_ZNSt8_Rb_treeINSt7__cxx1112basic_stringIcSt11char_traitsIcESaIcEEESt4pairIKS5_St10unique_ptrIN7libMesh10Parameters5ValueESt14default_deleteISB_EEESt10_Select1stISF_ESt4lessIvESaISF_EE14_M_lower_boundEPSt13_Rb_tree_nodeISF_EPSt18_Rb_tree_node_baseRS7_
FNDA:0,_ZNSt8_Rb_treeINSt7__cxx1112basic_stringIcSt11char_traitsIcESaIcEEESt4pairIKS5_St10unique_ptrIN7libMesh10Parameters5ValueESt14default_deleteISB_EEESt10_Select1stISF_ESt4lessIvESaISF_EE14_M_lower_boundEPSt13_Rb_tree_nodeISF_EPSt18_Rb_tree_node_baseRS7_
FN:1948,_ZNSt8_Rb_treeIN5Moose7ElemArgESt4pairIKS1_N11MetaPhysicL10DualNumberIdNS4_28SemiDynamicSparseNumberArrayIdmNS4_8NWrapperILm64EEEEELb1EEEESt10_Select1stISB_ESt4lessIS1_ESaISB_EE14_M_lower_boundEPSt13_Rb_tree_nodeISB_EPSt18_Rb_tree_node_baseRS3_
