TN:
SF:/home/runner/work/beaver/beaver/src/actions/BVPressureAction.C
FN:22,_ZN16BVPressureAction11validParamsEv
FN:36,_ZN16BVPressureActionC2ERK15InputParameters
FN:39,_ZN16BVPressureAction3actEv
FNDA:8,_ZN16BVPressureActionC2ERK15InputParameters
FNDA:10,_ZN16BVPressureAction11validParamsEv
FNDA:8,_ZN16BVPressureAction3actEv
FNF:3
FNH:3
DA:22,10
DA:24,10
DA:25,10
DA:26,20
DA:28,20
DA:31,20
DA:32,20
DA:33,10
DA:34,0
DA:36,8
DA:39,8
DA:41,8
DA:44,16
DA:47,30
DA:50,66
DA:52,22
DA:53,22
DA:54,22
DA:55,22
DA:56,22
DA:58,22
DA:59,22
DA:60,16
LF:23
LH:22
end_of_record
TN:
SF:/home/runner/work/beaver/beaver/src/actions/BVShearTractionAction.C
FN:22,_ZN21BVShearTractionAction11validParamsEv
FN:37,_ZN21BVShearTractionActionC2ERK15InputParameters
FN:40,_ZN21BVShearTractionAction3actEv
FNDA:4,_ZN21BVShearTractionAction11validParamsEv
FNDA:2,_ZN21BVShearTractionActionC2ERK15InputParameters
FNDA:2,_ZN21BVShearTractionAction3actEv
FNF:3
FNH:3
DA:22,4
DA:24,4
DA:25,4
DA:26,8
DA:29,8
DA:32,8
DA:33,8
DA:34,4
DA:35,0
DA:37,2
DA:40,2
DA:42,2
DA:45,4
DA:48,6
DA:51,12
DA:53,4
DA:54,4
DA:55,4
DA:56,4
DA:57,4
DA:59,4
DA:60,4
DA:61,4
LF:23
LH:22
end_of_record
TN:
SF:/home/runner/work/beaver/beaver/src/auxkernels/BVDarcyVelocityAux.C
FN:20,_ZN18BVDarcyVelocityAux11validParamsEv
FN:31,_ZN18BVDarcyVelocityAuxC2ERK15InputParameters
FN:44,_ZN18BVDarcyVelocityAux12computeValueEv
FNDA:41590,_ZN18BVDarcyVelocityAux12computeValueEv
FNDA:8,_ZN18BVDarcyVelocityAuxC2ERK15InputParameters
FNDA:148,_ZN18BVDarcyVelocityAux11validParamsEv
FNF:3
FNH:3
DA:20,148
DA:22,148
DA:23,148
DA:24,296
DA:25,296
DA:27,296
DA:28,148
DA:29,148
DA:31,8
DA:33,8
DA:34,16
DA:35,8
DA:36,8
DA:37,24
DA:39,8
DA:40,0
DA:41,8
DA:44,41590
DA:46,41590
DA:47,41590
DA:49,41590
LF:21
LH:20
end_of_record
TN:
SF:/home/runner/work/beaver/beaver/src/auxkernels/BVEqvStrainAux.C
FN:19,_ZN14BVEqvStrainAux11validParamsEv
FN:26,_ZN14BVEqvStrainAuxC2ERK15InputParameters
FN:32,_ZN14BVEqvStrainAux12computeValueEv
FNDA:2,_ZN14BVEqvStrainAuxC2ERK15InputParameters
FNDA:136,_ZN14BVEqvStrainAux11validParamsEv
FNDA:20480,_ZN14BVEqvStrainAux12computeValueEv
FNF:3
FNH:3
DA:19,136
DA:21,136
DA:22,136
DA:23,136
DA:24,0
DA:26,2
DA:27,2
DA:29,2
DA:32,20480
DA:34,20480
DA:35,20480
LF:11
LH:10
end_of_record
TN:
SF:/home/runner/work/beaver/beaver/src/auxkernels/BVEqvStrainRateAux.C
FN:19,_ZN18BVEqvStrainRateAux11validParamsEv
FN:26,_ZN18BVEqvStrainRateAuxC2ERK15InputParameters
FN:32,_ZN18BVEqvStrainRateAux12computeValueEv
FNDA:2,_ZN18BVEqvStrainRateAuxC2ERK15InputParameters
FNDA:20480,_ZN18BVEqvStrainRateAux12computeValueEv
FNDA:136,_ZN18BVEqvStrainRateAux11validParamsEv
FNF:3
FNH:3
DA:19,136
DA:21,136
DA:22,136
DA:23,136
DA:24,0
DA:26,2
DA:27,2
DA:29,2
DA:32,20480
DA:34,20480
DA:35,20480
LF:11
LH:10
end_of_record
TN:
SF:/home/runner/work/beaver/beaver/src/auxkernels/BVFaultNormalStressAux.C
FN:19,_ZN22BVFaultNormalStressAux11validParamsEv
FN:26,_ZN22BVFaultNormalStressAuxC2ERK15InputParameters
FN:32,_ZN22BVFaultNormalStressAux12computeValueEv
FNDA:3,_ZN22BVFaultNormalStressAuxC2ERK15InputParameters
FNDA:138,_ZN22BVFaultNormalStressAux11validParamsEv
FNDA:2992,_ZN22BVFaultNormalStressAux12computeValueEv
FNF:3
FNH:3
DA:19,138
DA:21,138
DA:22,138
DA:23,138
DA:24,0
DA:26,3
DA:27,3
DA:29,3
DA:32,2992
DA:34,2992
DA:35,2992
DA:37,2992
LF:12
LH:11
end_of_record
TN:
SF:/home/runner/work/beaver/beaver/src/auxkernels/BVFaultShearStressAux.C
FN:19,_ZN21BVFaultShearStressAux11validParamsEv
FN:26,_ZN21BVFaultShearStressAuxC2ERK15InputParameters
FN:32,_ZN21BVFaultShearStressAux12computeValueEv
FNDA:2992,_ZN21BVFaultShearStressAux12computeValueEv
FNDA:3,_ZN21BVFaultShearStressAuxC2ERK15InputParameters
FNDA:138,_ZN21BVFaultShearStressAux11validParamsEv
FNF:3
FNH:3
DA:19,138
DA:21,138
DA:22,138
DA:23,138
DA:24,0
DA:26,3
DA:27,3
DA:29,3
DA:32,2992
DA:34,2992
DA:35,2992
DA:36,5984
DA:37,2992
LF:13
LH:12
end_of_record
TN:
SF:/home/runner/work/beaver/beaver/src/auxkernels/BVFaultStressAuxBase.C
FN:18,_ZN20BVFaultStressAuxBase11validParamsEv
FN:26,_ZN20BVFaultStressAuxBaseC2ERK15InputParameters
FN:40,_ZN20BVFaultStressAuxBase19computeNormalVectorEv
FN:49,_ZN20BVFaultStressAuxBase20computeFaultTractionEv
FNDA:11968,_ZN20BVFaultStressAuxBase19computeNormalVectorEv
FNDA:6,_ZN20BVFaultStressAuxBaseC2ERK15InputParameters
FNDA:276,_ZN20BVFaultStressAuxBase11validParamsEv
FNDA:5984,_ZN20BVFaultStressAuxBase20computeFaultTractionEv
FNF:4
FNH:4
DA:18,276
DA:20,276
DA:21,276
DA:22,552
DA:23,276
DA:24,0
DA:26,6
DA:27,6
DA:29,18
DA:31,4
DA:32,2
DA:33,0
DA:35,12
DA:36,0
DA:37,6
DA:40,11968
DA:42,11968
DA:43,3200
DA:45,8768
DA:49,5984
DA:51,5984
DA:53,5984
LF:22
LH:19
end_of_record
TN:
SF:/home/runner/work/beaver/beaver/src/auxkernels/BVMisesStressAux.C
FN:19,_ZN16BVMisesStressAux11validParamsEv
FN:26,_ZN16BVMisesStressAuxC2ERK15InputParameters
FN:31,_ZN16BVMisesStressAux12computeValueEv
FNDA:140,_ZN16BVMisesStressAux11validParamsEv
FNDA:4,_ZN16BVMisesStressAuxC2ERK15InputParameters
FNDA:24352,_ZN16BVMisesStressAux12computeValueEv
FNF:3
FNH:3
DA:19,140
DA:21,140
DA:22,140
DA:23,140
DA:24,0
DA:26,4
DA:28,4
DA:31,24352
DA:33,24352
DA:34,24352
LF:10
LH:9
end_of_record
TN:
SF:/home/runner/work/beaver/beaver/src/auxkernels/BVPressureAux.C
FN:19,_ZN13BVPressureAux11validParamsEv
FN:26,_ZN13BVPressureAuxC2ERK15InputParameters
FN:29,_ZN13BVPressureAux12computeValueEv
FNDA:136,_ZN13BVPressureAux11validParamsEv
FNDA:2,_ZN13BVPressureAuxC2ERK15InputParameters
FNDA:3872,_ZN13BVPressureAux12computeValueEv
FNF:3
FNH:3
DA:19,136
DA:21,136
DA:22,136
DA:23,136
DA:24,0
DA:26,2
DA:29,3872
DA:31,3872
LF:8
LH:7
end_of_record
TN:
SF:/home/runner/work/beaver/beaver/src/auxkernels/BVStrainAuxBase.C
FN:17,_ZN15BVStrainAuxBase11validParamsEv
FN:24,_ZN15BVStrainAuxBaseC2ERK15InputParameters
FNDA:14,_ZN15BVStrainAuxBaseC2ERK15InputParameters
FNDA:424,_ZN15BVStrainAuxBase11validParamsEv
FNF:2
FNH:2
DA:17,424
DA:19,424
DA:20,424
DA:21,424
DA:22,0
DA:24,14
DA:26,28
DA:28,14
LF:8
LH:7
end_of_record
TN:
SF:/home/runner/work/beaver/beaver/src/auxkernels/BVStrainComponentAux.C
FN:19,_ZN20BVStrainComponentAux11validParamsEv
FN:31,_ZN20BVStrainComponentAuxC2ERK15InputParameters
FN:40,_ZN20BVStrainComponentAux12computeValueEv
FNDA:152,_ZN20BVStrainComponentAux11validParamsEv
FNDA:61982,_ZN20BVStrainComponentAux12computeValueEv
FNDA:10,_ZN20BVStrainComponentAuxC2ERK15InputParameters
FNF:3
FNH:3
DA:19,152
DA:21,152
DA:22,152
DA:23,304
DA:24,304
DA:26,304
DA:28,152
DA:29,152
DA:31,10
DA:33,20
DA:34,20
DA:35,30
DA:37,10
DA:40,61982
DA:42,61982
LF:15
LH:15
end_of_record
TN:
SF:/home/runner/work/beaver/beaver/src/auxkernels/BVStressAuxBase.C
FN:17,_ZN15BVStressAuxBase11validParamsEv
FN:24,_ZN15BVStressAuxBaseC2ERK15InputParameters
FNDA:25,_ZN15BVStressAuxBaseC2ERK15InputParameters
FNDA:710,_ZN15BVStressAuxBase11validParamsEv
FNF:2
FNH:2
DA:17,710
DA:19,710
DA:20,710
DA:21,710
DA:22,0
DA:24,25
DA:25,50
DA:27,25
LF:8
LH:7
end_of_record
TN:
SF:/home/runner/work/beaver/beaver/src/auxkernels/BVStressComponentAux.C
FN:19,_ZN20BVStressComponentAux11validParamsEv
FN:31,_ZN20BVStressComponentAuxC2ERK15InputParameters
FN:39,_ZN20BVStressComponentAux12computeValueEv
FNDA:158,_ZN20BVStressComponentAux11validParamsEv
FNDA:53322,_ZN20BVStressComponentAux12computeValueEv
FNDA:13,_ZN20BVStressComponentAuxC2ERK15InputParameters
FNF:3
FNH:3
DA:19,158
DA:21,158
DA:22,158
DA:23,316
DA:24,316
DA:26,316
DA:28,158
DA:29,158
DA:31,13
DA:33,13
DA:34,39
DA:36,13
DA:39,53322
DA:41,53322
LF:14
LH:14
end_of_record
TN:
SF:/home/runner/work/beaver/beaver/src/base/BeaverApp.C
FN:21,_ZN9BeaverApp11validParamsEv
FN:31,_ZN9BeaverAppC2E15InputParameters
FN:36,_ZN9BeaverAppD0Ev
FN:36,_ZN9BeaverAppD2Ev
FN:39,_ZN9BeaverApp11registerAllER7FactoryR13ActionFactoryR6Syntax
FN:53,_ZN9BeaverApp12registerAppsEv
FN:62,BeaverApp__registerAll
FN:67,BeaverApp__registerApps
FNDA:0,_ZN9BeaverAppD0Ev
FNDA:0,_ZN9BeaverAppC2E15InputParameters
FNDA:26,_ZN9BeaverApp11registerAllER7FactoryR13ActionFactoryR6Syntax
FNDA:0,BeaverApp__registerApps
FNDA:0,_ZN9BeaverApp12registerAppsEv
FNDA:0,_ZN9BeaverAppD2Ev
FNDA:0,BeaverApp__registerAll
FNDA:26,_ZN9BeaverApp11validParamsEv
FNF:8
FNH:2
DA:21,26
DA:23,26
DA:26,26
DA:27,26
DA:28,26
DA:29,0
DA:31,0
DA:33,0
DA:34,0
DA:36,0
DA:39,26
DA:42,78
DA:43,78
DA:46,52
DA:47,52
DA:48,52
DA:49,52
DA:50,104
DA:53,0
DA:55,0
DA:56,0
DA:62,0
DA:64,0
DA:65,0
DA:67,0
DA:69,0
DA:70,0
LF:27
LH:13
end_of_record
TN:
SF:/home/runner/work/beaver/beaver/src/bcs/BVPressureBC.C
FN:20,_ZN12BVPressureBC11validParamsEv
FN:31,_ZN12BVPressureBCC2ERK15InputParameters
FN:42,_ZN12BVPressureBC17computeQpResidualEv
FNDA:363456,_ZN12BVPressureBC17computeQpResidualEv
FNDA:22,_ZN12BVPressureBCC2ERK15InputParameters
FNDA:176,_ZN12BVPressureBC11validParamsEv
FNF:3
FNH:3
DA:20,176
DA:22,176
DA:23,176
DA:24,352
DA:25,352
DA:26,352
DA:27,176
DA:28,176
DA:29,0
DA:31,22
DA:33,22
DA:34,44
DA:35,66
DA:37,22
DA:38,0
DA:39,22
DA:42,363456
DA:44,363456
DA:46,363456
DA:47,0
DA:49,363456
LF:21
LH:18
end_of_record
TN:
SF:/home/runner/work/beaver/beaver/src/bcs/BVShearTractionBC.C
FN:20,_ZN17BVShearTractionBC11validParamsEv
FN:31,_ZN17BVShearTractionBCC2ERK15InputParameters
FN:42,_ZN17BVShearTractionBC17computeQpResidualEv
FNDA:960,_ZN17BVShearTractionBC17computeQpResidualEv
FNDA:140,_ZN17BVShearTractionBC11validParamsEv
FNDA:4,_ZN17BVShearTractionBCC2ERK15InputParameters
FNF:3
FNH:3
DA:20,140
DA:22,140
DA:23,140
DA:24,280
DA:25,280
DA:26,280
DA:27,140
DA:28,140
DA:29,0
DA:31,4
DA:33,4
DA:34,8
DA:35,12
DA:37,4
DA:38,0
DA:39,4
DA:42,960
DA:45,960
DA:47,960
DA:49,960
DA:50,0
DA:52,960
LF:22
LH:19
end_of_record
TN:
SF:/home/runner/work/beaver/beaver/src/fvkernels/BVFVFluxKernelBase.C
FN:17,_ZN18BVFVFluxKernelBase11validParamsEv
FN:24,_ZN18BVFVFluxKernelBaseC2ERK15InputParameters
FN:27,_ZNK18BVFVFluxKernelBase16transmissibilityERKN11MetaPhysicL10DualNumberIdNS0_28SemiDynamicSparseNumberArrayIdmNS0_8NWrapperILm64EEEEELb1EEES8_
FN:51,_ZNK18BVFVFluxKernelBase13diffusiveFluxERKN11MetaPhysicL10DualNumberIdNS0_28SemiDynamicSparseNumberArrayIdmNS0_8NWrapperILm64EEEEELb1EEES8_RK15MooseVariableFVIdE
FN:64,_ZNK18BVFVFluxKernelBase21advectiveFluxVariableERKN7libMesh11VectorValueIN11MetaPhysicL10DualNumberIdNS2_28SemiDynamicSparseNumberArrayIdmNS2_8NWrapperILm64EEEEELb1EEEEE
FN:78,_ZNK18BVFVFluxKernelBase21advectiveFluxMaterialERKN11MetaPhysicL10DualNumberIdNS0_28SemiDynamicSparseNumberArrayIdmNS0_8NWrapperILm64EEEEELb1EEES8_RKN7libMesh11VectorValueIS6_EE
FNDA:21614,_ZNK18BVFVFluxKernelBase16transmissibilityERKN11MetaPhysicL10DualNumberIdNS0_28SemiDynamicSparseNumberArrayIdmNS0_8NWrapperILm64EEEEELb1EEES8_
FNDA:0,_ZNK18BVFVFluxKernelBase21advectiveFluxMaterialERKN11MetaPhysicL10DualNumberIdNS0_28SemiDynamicSparseNumberArrayIdmNS0_8NWrapperILm64EEEEELb1EEES8_RKN7libMesh11VectorValueIS6_EE
FNDA:534,_ZN18BVFVFluxKernelBase11validParamsEv
FNDA:21614,_ZNK18BVFVFluxKernelBase13diffusiveFluxERKN11MetaPhysicL10DualNumberIdNS0_28SemiDynamicSparseNumberArrayIdmNS0_8NWrapperILm64EEEEELb1EEES8_RK15MooseVariableFVIdE
FNDA:0,_ZNK18BVFVFluxKernelBase21advectiveFluxVariableERKN7libMesh11VectorValueIN11MetaPhysicL10DualNumberIdNS2_28SemiDynamicSparseNumberArrayIdmNS2_8NWrapperILm64EEEEELb1EEEEE
FNDA:3,_ZN18BVFVFluxKernelBaseC2ERK15InputParameters
FNF:6
FNH:4
DA:17,534
DA:19,534
DA:20,534
DA:21,534
DA:22,0
DA:24,3
DA:27,21614
DA:33,21614
DA:34,468
DA:40,21146
DA:41,0
DA:43,21146
DA:44,21146
DA:47,21614
DA:51,21614
DA:55,21614
DA:57,43228
DA:58,21614
DA:60,21614
DA:64,0
DA:66,0
DA:68,0
DA:71,0
DA:72,0
DA:74,0
DA:78,0
DA:84,0
DA:85,0
DA:87,0
DA:92,0
DA:93,0
DA:95,0
LF:32
LH:17
end_of_record
TN:
SF:/home/runner/work/beaver/beaver/src/fvkernels/BVFVMultiPhasePressureDarcy.C
FN:19,_ZN27BVFVMultiPhasePressureDarcy11validParamsEv
FN:28,_ZN27BVFVMultiPhasePressureDarcyC2ERK15InputParameters
FN:39,_ZN27BVFVMultiPhasePressureDarcy17computeQpResidualEv
FNDA:0,_ZN27BVFVMultiPhasePressureDarcyC2ERK15InputParameters
FNDA:132,_ZN27BVFVMultiPhasePressureDarcy11validParamsEv
FNDA:0,_ZN27BVFVMultiPhasePressureDarcy17computeQpResidualEv
FNF:3
FNH:1
DA:19,132
DA:21,132
DA:22,132
DA:24,132
DA:25,132
DA:26,0
DA:28,0
DA:30,0
DA:31,0
DA:33,0
DA:34,0
DA:35,0
DA:36,0
DA:39,0
DA:42,0
DA:44,0
LF:16
LH:5
end_of_record
TN:
SF:/home/runner/work/beaver/beaver/src/fvkernels/BVFVMultiPhasePressureTimeDerivative.C
FN:19,_ZN36BVFVMultiPhasePressureTimeDerivative11validParamsEv
FN:28,_ZN36BVFVMultiPhasePressureTimeDerivativeC2ERK15InputParameters
FN:41,_ZN36BVFVMultiPhasePressureTimeDerivative17computeQpResidualEv
FNDA:132,_ZN36BVFVMultiPhasePressureTimeDerivative11validParamsEv
FNDA:0,_ZN36BVFVMultiPhasePressureTimeDerivativeC2ERK15InputParameters
FNDA:0,_ZN36BVFVMultiPhasePressureTimeDerivative17computeQpResidualEv
FNF:3
FNH:1
DA:19,132
DA:21,132
DA:22,132
DA:23,264
DA:24,264
DA:25,132
DA:26,0
DA:28,0
DA:30,0
DA:31,0
DA:32,0
DA:33,0
DA:34,0
DA:35,0
DA:36,0
DA:38,0
DA:41,0
DA:43,0
DA:44,0
DA:45,0
DA:46,0
LF:21
LH:6
end_of_record
TN:
SF:/home/runner/work/beaver/beaver/src/fvkernels/BVFVMultiPhaseSaturationDarcy.C
FN:19,_ZN29BVFVMultiPhaseSaturationDarcy11validParamsEv
FN:30,_ZN29BVFVMultiPhaseSaturationDarcyC2ERK15InputParameters
FN:49,_ZN29BVFVMultiPhaseSaturationDarcy17computeQpResidualEv
FNDA:132,_ZN29BVFVMultiPhaseSaturationDarcy11validParamsEv
FNDA:0,_ZN29BVFVMultiPhaseSaturationDarcy17computeQpResidualEv
FNDA:0,_ZN29BVFVMultiPhaseSaturationDarcyC2ERK15InputParameters
FNF:3
FNH:1
DA:19,132
DA:21,132
DA:22,132
DA:23,264
DA:24,264
DA:26,264
DA:27,132
DA:28,132
DA:30,0
DA:32,0
DA:33,0
DA:34,0
DA:35,0
DA:36,0
DA:37,0
DA:38,0
DA:39,0
DA:40,0
DA:41,0
DA:43,0
DA:44,0
DA:45,0
DA:46,0
DA:49,0
DA:52,0
DA:56,0
DA:58,0
DA:59,0
DA:60,0
DA:61,0
DA:62,0
DA:63,0
DA:64,0
DA:65,0
DA:69,0
DA:71,0
LF:36
LH:8
end_of_record
TN:
SF:/home/runner/work/beaver/beaver/src/fvkernels/BVFVMultiPhaseSaturationTimeDerivative.C
FN:19,_ZN38BVFVMultiPhaseSaturationTimeDerivative11validParamsEv
FN:29,_ZN38BVFVMultiPhaseSaturationTimeDerivativeC2ERK15InputParameters
FN:40,_ZN38BVFVMultiPhaseSaturationTimeDerivative9phase_extB5cxx11Ev
FN:54,_ZN38BVFVMultiPhaseSaturationTimeDerivative17computeQpResidualEv
FNDA:0,_ZN38BVFVMultiPhaseSaturationTimeDerivativeC2ERK15InputParameters
FNDA:132,_ZN38BVFVMultiPhaseSaturationTimeDerivative11validParamsEv
FNDA:0,_ZN38BVFVMultiPhaseSaturationTimeDerivative17computeQpResidualEv
FNDA:0,_ZN38BVFVMultiPhaseSaturationTimeDerivative9phase_extB5cxx11Ev
FNF:4
FNH:1
DA:19,132
DA:21,132
DA:22,132
DA:23,264
DA:24,264
DA:26,132
DA:27,132
DA:29,0
DA:31,0
DA:32,0
DA:33,0
DA:34,0
DA:35,0
DA:37,0
DA:40,0
DA:42,0
DA:45,0
DA:47,0
DA:48,0
DA:49,0
DA:54,0
DA:56,0
DA:57,0
LF:23
LH:7
end_of_record
TN:
SF:/home/runner/work/beaver/beaver/src/fvkernels/BVFVSinglePhaseDarcy.C
FN:19,_ZN20BVFVSinglePhaseDarcy11validParamsEv
FN:28,_ZN20BVFVSinglePhaseDarcyC2ERK15InputParameters
FN:39,_ZN20BVFVSinglePhaseDarcy17computeQpResidualEv
FNDA:21614,_ZN20BVFVSinglePhaseDarcy17computeQpResidualEv
FNDA:3,_ZN20BVFVSinglePhaseDarcyC2ERK15InputParameters
FNDA:138,_ZN20BVFVSinglePhaseDarcy11validParamsEv
FNF:3
FNH:3
DA:19,138
DA:21,138
DA:22,138
DA:24,138
DA:25,138
DA:26,0
DA:28,3
DA:30,3
DA:31,9
DA:33,3
DA:34,0
DA:35,0
DA:36,3
DA:39,21614
DA:42,21614
DA:43,21614
LF:16
LH:13
end_of_record
TN:
SF:/home/runner/work/beaver/beaver/src/fvkernels/BVFVSinglePhaseSoluteDarcy.C
FN:19,_ZN26BVFVSinglePhaseSoluteDarcy11validParamsEv
FN:28,_ZN26BVFVSinglePhaseSoluteDarcyC2ERK15InputParameters
FN:39,_ZN26BVFVSinglePhaseSoluteDarcy17computeQpResidualEv
FNDA:0,_ZN26BVFVSinglePhaseSoluteDarcyC2ERK15InputParameters
FNDA:132,_ZN26BVFVSinglePhaseSoluteDarcy11validParamsEv
FNDA:0,_ZN26BVFVSinglePhaseSoluteDarcy17computeQpResidualEv
FNF:3
FNH:1
DA:19,132
DA:21,132
DA:22,132
DA:24,264
DA:25,132
DA:26,0
DA:28,0
DA:30,0
DA:31,0
DA:32,0
DA:33,0
DA:34,0
DA:36,0
DA:39,0
DA:43,0
DA:46,0
DA:49,0
DA:51,0
LF:18
LH:5
end_of_record
TN:
SF:/home/runner/work/beaver/beaver/src/fvkernels/BVFVSinglePhaseSoluteTimeDerivative.C
FN:19,_ZN35BVFVSinglePhaseSoluteTimeDerivative11validParamsEv
FN:27,_ZN35BVFVSinglePhaseSoluteTimeDerivativeC2ERK15InputParameters
FN:34,_ZN35BVFVSinglePhaseSoluteTimeDerivative17computeQpResidualEv
FNDA:0,_ZN35BVFVSinglePhaseSoluteTimeDerivativeC2ERK15InputParameters
FNDA:132,_ZN35BVFVSinglePhaseSoluteTimeDerivative11validParamsEv
FNDA:0,_ZN35BVFVSinglePhaseSoluteTimeDerivative17computeQpResidualEv
FNF:3
FNH:1
DA:19,132
DA:21,132
DA:22,132
DA:24,132
DA:25,0
DA:27,0
DA:28,0
DA:29,0
DA:31,0
DA:34,0
DA:36,0
LF:11
LH:4
end_of_record
TN:
SF:/home/runner/work/beaver/beaver/src/fvkernels/BVFVSinglePhaseTimeDerivative.C
FN:19,_ZN29BVFVSinglePhaseTimeDerivative11validParamsEv
FN:26,_ZN29BVFVSinglePhaseTimeDerivativeC2ERK15InputParameters
FN:38,_ZN29BVFVSinglePhaseTimeDerivative17computeQpResidualEv
FNDA:1550,_ZN29BVFVSinglePhaseTimeDerivative17computeQpResidualEv
FNDA:1,_ZN29BVFVSinglePhaseTimeDerivativeC2ERK15InputParameters
FNDA:134,_ZN29BVFVSinglePhaseTimeDerivative11validParamsEv
FNF:3
FNH:3
DA:19,134
DA:21,134
DA:22,134
DA:23,134
DA:24,0
DA:26,1
DA:28,1
DA:29,2
DA:30,2
DA:31,1
DA:32,1
DA:33,2
DA:35,1
DA:38,1550
DA:41,1550
DA:44,1550
DA:45,0
DA:47,1550
LF:18
LH:16
end_of_record
TN:
SF:/home/runner/work/beaver/beaver/src/interfacekernels/BVMechanicalInterface.C
FN:19,_ZN21BVMechanicalInterface11validParamsEv
FN:32,_ZN21BVMechanicalInterfaceC2ERK15InputParameters
FN:40,_ZN21BVMechanicalInterface17computeQpResidualEN5Moose14DGResidualTypeE
FNDA:152,_ZN21BVMechanicalInterface11validParamsEv
FNDA:1003776,_ZN21BVMechanicalInterface17computeQpResidualEN5Moose14DGResidualTypeE
FNDA:10,_ZN21BVMechanicalInterfaceC2ERK15InputParameters
FNF:3
FNH:3
DA:19,152
DA:21,152
DA:22,152
DA:23,152
DA:24,304
DA:25,304
DA:29,152
DA:30,152
DA:32,10
DA:34,10
DA:35,30
DA:37,10
DA:40,1003776
DA:42,1003776
DA:44,1003776
DA:47,501888
DA:48,501888
DA:49,501888
DA:50,501888
DA:51,501888
DA:55,1003776
LF:21
LH:21
end_of_record
TN:
SF:/home/runner/work/beaver/beaver/src/kernels/BVSinglePhaseDarcy.C
FN:19,_ZN18BVSinglePhaseDarcy11validParamsEv
FN:27,_ZN18BVSinglePhaseDarcyC2ERK15InputParameters
FN:33,_ZN18BVSinglePhaseDarcy20precomputeQpResidualEv
FNDA:5,_ZN18BVSinglePhaseDarcyC2ERK15InputParameters
FNDA:402464,_ZN18BVSinglePhaseDarcy20precomputeQpResidualEv
FNDA:142,_ZN18BVSinglePhaseDarcy11validParamsEv
FNF:3
FNH:3
DA:19,142
DA:21,142
DA:22,142
DA:24,142
DA:25,0
DA:27,5
DA:28,10
DA:30,5
DA:33,402464
DA:35,402464
LF:10
LH:9
end_of_record
TN:
SF:/home/runner/work/beaver/beaver/src/kernels/BVSinglePhaseTimeDerivative.C
FN:19,_ZN27BVSinglePhaseTimeDerivative11validParamsEv
FN:26,_ZN27BVSinglePhaseTimeDerivativeC2ERK15InputParameters
FN:38,_ZN27BVSinglePhaseTimeDerivative20precomputeQpResidualEv
FNDA:138,_ZN27BVSinglePhaseTimeDerivative11validParamsEv
FNDA:3,_ZN27BVSinglePhaseTimeDerivativeC2ERK15InputParameters
FNDA:341984,_ZN27BVSinglePhaseTimeDerivative20precomputeQpResidualEv
FNF:3
FNH:3
DA:19,138
DA:21,138
DA:22,138
DA:23,138
DA:24,0
DA:26,3
DA:28,3
DA:29,6
DA:30,6
DA:31,3
DA:32,5
DA:33,8
DA:35,3
DA:38,341984
DA:41,341984
DA:44,341984
DA:45,520768
DA:47,341984
LF:18
LH:17
end_of_record
TN:
SF:/home/runner/work/beaver/beaver/src/kernels/BVStressDivergence.C
FN:19,_ZN18BVStressDivergence11validParamsEv
FN:36,_ZN18BVStressDivergenceC2ERK15InputParameters
FN:49,_ZN18BVStressDivergence17computeQpResidualEv
FNDA:218,_ZN18BVStressDivergence11validParamsEv
FNDA:43,_ZN18BVStressDivergenceC2ERK15InputParameters
FNDA:10675464,_ZN18BVStressDivergence17computeQpResidualEv
FNF:3
FNH:3
DA:19,218
DA:21,218
DA:22,218
DA:23,436
DA:24,218
DA:25,436
DA:26,436
DA:33,218
DA:34,218
DA:36,43
DA:38,43
DA:39,43
DA:40,86
DA:43,86
DA:44,90
DA:46,43
DA:49,10675464
DA:53,10675464
DA:54,10675464
DA:55,4166144
DA:57,10675464
LF:21
LH:21
end_of_record
TN:
SF:/home/runner/work/beaver/beaver/src/main.C
FN:18,main
FNDA:26,main
FNF:1
FNH:1
DA:18,26
DA:20,26
LF:2
LH:2
end_of_record
TN:
SF:/home/runner/work/beaver/beaver/src/materials/BVBurgerModelUpdate.C
FN:19,_ZN19BVBurgerModelUpdate11validParamsEv
FN:30,_ZN19BVBurgerModelUpdateC2ERK15InputParameters
FN:42,_ZN19BVBurgerModelUpdate24initQpStatefulPropertiesEv
FN:48,_ZN19BVBurgerModelUpdate9creepRateERKSt6vectorIN11MetaPhysicL10DualNumberIdNS1_28SemiDynamicSparseNumberArrayIdmNS1_8NWrapperILm64EEEEELb1EEESaIS7_EEj
FN:59,_ZN19BVBurgerModelUpdate16creepRateMaxwellERKSt6vectorIN11MetaPhysicL10DualNumberIdNS1_28SemiDynamicSparseNumberArrayIdmNS1_8NWrapperILm64EEEEELb1EEESaIS7_EE
FN:67,_ZN19BVBurgerModelUpdate15creepRateKelvinERKSt6vectorIN11MetaPhysicL10DualNumberIdNS1_28SemiDynamicSparseNumberArrayIdmNS1_8NWrapperILm64EEEEELb1EEESaIS7_EE
FN:75,_ZN19BVBurgerModelUpdate19creepRateDerivativeERKSt6vectorIN11MetaPhysicL10DualNumberIdNS1_28SemiDynamicSparseNumberArrayIdmNS1_8NWrapperILm64EEEEELb1EEESaIS7_EEjj
FN:89,_ZN19BVBurgerModelUpdate26creepRateMaxwellDerivativeERKSt6vectorIN11MetaPhysicL10DualNumberIdNS1_28SemiDynamicSparseNumberArrayIdmNS1_8NWrapperILm64EEEEELb1EEESaIS7_EEj
FN:98,_ZN19BVBurgerModelUpdate25creepRateKelvinDerivativeERKSt6vectorIN11MetaPhysicL10DualNumberIdNS1_28SemiDynamicSparseNumberArrayIdmNS1_8NWrapperILm64EEEEELb1EEESaIS7_EEj
FN:120,_ZN19BVBurgerModelUpdate16viscosityMaxwellERKSt6vectorIN11MetaPhysicL10DualNumberIdNS1_28SemiDynamicSparseNumberArrayIdmNS1_8NWrapperILm64EEEEELb1EEESaIS7_EE
FN:126,_ZN19BVBurgerModelUpdate15viscosityKelvinERKSt6vectorIN11MetaPhysicL10DualNumberIdNS1_28SemiDynamicSparseNumberArrayIdmNS1_8NWrapperILm64EEEEELb1EEESaIS7_EE
FN:132,_ZN19BVBurgerModelUpdate26viscosityMaxwellDerivativeERKSt6vectorIN11MetaPhysicL10DualNumberIdNS1_28SemiDynamicSparseNumberArrayIdmNS1_8NWrapperILm64EEEEELb1EEESaIS7_EEj
FN:139,_ZN19BVBurgerModelUpdate25viscosityKelvinDerivativeERKSt6vectorIN11MetaPhysicL10DualNumberIdNS1_28SemiDynamicSparseNumberArrayIdmNS1_8NWrapperILm64EEEEELb1EEESaIS7_EEj
FN:146,_ZN19BVBurgerModelUpdate18shearModulusKelvinERKSt6vectorIN11MetaPhysicL10DualNumberIdNS1_28SemiDynamicSparseNumberArrayIdmNS1_8NWrapperILm64EEEEELb1EEESaIS7_EE
FN:152,_ZN19BVBurgerModelUpdate28shearModulusKelvinDerivativeERKSt6vectorIN11MetaPhysicL10DualNumberIdNS1_28SemiDynamicSparseNumberArrayIdmNS1_8NWrapperILm64EEEEELb1EEESaIS7_EEj
FN:159,_ZN19BVBurgerModelUpdate17kelvinCreepStrainERKSt6vectorIN11MetaPhysicL10DualNumberIdNS1_28SemiDynamicSparseNumberArrayIdmNS1_8NWrapperILm64EEEEELb1EEESaIS7_EE
FN:165,_ZN19BVBurgerModelUpdate12preReturnMapEv
FN:171,_ZN19BVBurgerModelUpdate13postReturnMapERKSt6vectorIN11MetaPhysicL10DualNumberIdNS1_28SemiDynamicSparseNumberArrayIdmNS1_8NWrapperILm64EEEEELb1EEESaIS7_EE
FNDA:4608,_ZN19BVBurgerModelUpdate24initQpStatefulPropertiesEv
FNDA:1298688,_ZN19BVBurgerModelUpdate16creepRateMaxwellERKSt6vectorIN11MetaPhysicL10DualNumberIdNS1_28SemiDynamicSparseNumberArrayIdmNS1_8NWrapperILm64EEEEELb1EEESaIS7_EE
FNDA:6,_ZN19BVBurgerModelUpdateC2ERK15InputParameters
FNDA:2597376,_ZN19BVBurgerModelUpdate26creepRateMaxwellDerivativeERKSt6vectorIN11MetaPhysicL10DualNumberIdNS1_28SemiDynamicSparseNumberArrayIdmNS1_8NWrapperILm64EEEEELb1EEESaIS7_EEj
FNDA:271360,_ZN19BVBurgerModelUpdate18shearModulusKelvinERKSt6vectorIN11MetaPhysicL10DualNumberIdNS1_28SemiDynamicSparseNumberArrayIdmNS1_8NWrapperILm64EEEEELb1EEESaIS7_EE
FNDA:1298688,_ZN19BVBurgerModelUpdate15creepRateKelvinERKSt6vectorIN11MetaPhysicL10DualNumberIdNS1_28SemiDynamicSparseNumberArrayIdmNS1_8NWrapperILm64EEEEELb1EEESaIS7_EE
FNDA:2597376,_ZN19BVBurgerModelUpdate9creepRateERKSt6vectorIN11MetaPhysicL10DualNumberIdNS1_28SemiDynamicSparseNumberArrayIdmNS1_8NWrapperILm64EEEEELb1EEESaIS7_EEj
FNDA:5194752,_ZN19BVBurgerModelUpdate19creepRateDerivativeERKSt6vectorIN11MetaPhysicL10DualNumberIdNS1_28SemiDynamicSparseNumberArrayIdmNS1_8NWrapperILm64EEEEELb1EEESaIS7_EEjj
FNDA:678400,_ZN19BVBurgerModelUpdate16viscosityMaxwellERKSt6vectorIN11MetaPhysicL10DualNumberIdNS1_28SemiDynamicSparseNumberArrayIdmNS1_8NWrapperILm64EEEEELb1EEESaIS7_EE
FNDA:158720,_ZN19BVBurgerModelUpdate12preReturnMapEv
FNDA:2597376,_ZN19BVBurgerModelUpdate25creepRateKelvinDerivativeERKSt6vectorIN11MetaPhysicL10DualNumberIdNS1_28SemiDynamicSparseNumberArrayIdmNS1_8NWrapperILm64EEEEELb1EEESaIS7_EEj
FNDA:678400,_ZN19BVBurgerModelUpdate15viscosityKelvinERKSt6vectorIN11MetaPhysicL10DualNumberIdNS1_28SemiDynamicSparseNumberArrayIdmNS1_8NWrapperILm64EEEEELb1EEESaIS7_EE
FNDA:271360,_ZN19BVBurgerModelUpdate25viscosityKelvinDerivativeERKSt6vectorIN11MetaPhysicL10DualNumberIdNS1_28SemiDynamicSparseNumberArrayIdmNS1_8NWrapperILm64EEEEELb1EEESaIS7_EEj
FNDA:271360,_ZN19BVBurgerModelUpdate28shearModulusKelvinDerivativeERKSt6vectorIN11MetaPhysicL10DualNumberIdNS1_28SemiDynamicSparseNumberArrayIdmNS1_8NWrapperILm64EEEEELb1EEESaIS7_EEj
FNDA:158720,_ZN19BVBurgerModelUpdate13postReturnMapERKSt6vectorIN11MetaPhysicL10DualNumberIdNS1_28SemiDynamicSparseNumberArrayIdmNS1_8NWrapperILm64EEEEELb1EEESaIS7_EE
FNDA:272,_ZN19BVBurgerModelUpdate11validParamsEv
FNDA:4054784,_ZN19BVBurgerModelUpdate17kelvinCreepStrainERKSt6vectorIN11MetaPhysicL10DualNumberIdNS1_28SemiDynamicSparseNumberArrayIdmNS1_8NWrapperILm64EEEEELb1EEESaIS7_EE
FNDA:271360,_ZN19BVBurgerModelUpdate26viscosityMaxwellDerivativeERKSt6vectorIN11MetaPhysicL10DualNumberIdNS1_28SemiDynamicSparseNumberArrayIdmNS1_8NWrapperILm64EEEEELb1EEESaIS7_EEj
FNF:18
FNH:18
DA:19,272
DA:21,272
DA:22,272
DA:23,544
DA:24,544
DA:25,544
DA:27,272
DA:28,0
DA:30,6
DA:32,6
DA:33,12
DA:34,12
DA:36,6
DA:37,18
DA:39,6
DA:42,4608
DA:44,4608
DA:45,4608
DA:48,2597376
DA:50,2597376
DA:51,1298688
DA:52,1298688
DA:53,1298688
DA:55,0
DA:59,1298688
DA:62,2597376
DA:63,1298688
DA:67,1298688
DA:69,2597376
DA:70,1298688
DA:71,1298688
DA:75,5194752
DA:79,5194752
DA:80,2597376
DA:81,2597376
DA:82,2597376
DA:84,0
DA:85,0
DA:89,2597376
DA:92,2597376
DA:93,5194752
DA:94,2597376
DA:98,2597376
DA:101,2597376
DA:102,3896064
DA:103,1298688
DA:104,1298688
DA:105,2597376
DA:106,2597376
DA:107,1298688
DA:108,2597376
DA:109,1298688
DA:110,1298688
DA:111,1298688
DA:112,2597376
DA:113,2597376
DA:115,0
DA:116,0
DA:120,678400
DA:122,678400
DA:126,678400
DA:128,678400
DA:132,271360
DA:135,271360
DA:139,271360
DA:142,271360
DA:146,271360
DA:148,271360
DA:152,271360
DA:155,271360
DA:159,4054784
DA:161,4054784
DA:165,158720
DA:167,158720
DA:168,158720
DA:171,158720
DA:173,158720
DA:174,158720
LF:78
LH:72
end_of_record
TN:
SF:/home/runner/work/beaver/beaver/src/materials/BVCapillaryPressureBase.C
FN:17,_ZN23BVCapillaryPressureBase11validParamsEv
FN:25,_ZN23BVCapillaryPressureBaseC2ERK15InputParameters
FNDA:132,_ZN23BVCapillaryPressureBase11validParamsEv
FNDA:0,_ZN23BVCapillaryPressureBaseC2ERK15InputParameters
FNF:2
FNH:1
DA:17,132
DA:19,132
DA:20,132
DA:21,264
DA:22,132
DA:23,0
DA:25,0
DA:27,0
DA:28,0
DA:29,0
DA:31,0
LF:11
LH:5
end_of_record
TN:
SF:/home/runner/work/beaver/beaver/src/materials/BVCapillaryPressurePowerLaw.C
FN:19,_ZN27BVCapillaryPressurePowerLaw11validParamsEv
FN:28,_ZN27BVCapillaryPressurePowerLawC2ERK15InputParameters
FN:36,_ZN27BVCapillaryPressurePowerLaw19computeQpPropertiesEv
FNDA:0,_ZN27BVCapillaryPressurePowerLawC2ERK15InputParameters
FNDA:0,_ZN27BVCapillaryPressurePowerLaw19computeQpPropertiesEv
FNDA:132,_ZN27BVCapillaryPressurePowerLaw11validParamsEv
FNF:3
FNH:1
DA:19,132
DA:21,132
DA:22,132
DA:23,264
DA:24,264
DA:25,132
DA:26,0
DA:28,0
DA:30,0
DA:31,0
DA:33,0
DA:36,0
DA:39,0
DA:40,0
DA:41,0
LF:15
LH:6
end_of_record
TN:
SF:/home/runner/work/beaver/beaver/src/materials/BVConstantDispersion.C
FN:19,_ZN20BVConstantDispersion11validParamsEv
FN:28,_ZN20BVConstantDispersionC2ERK15InputParameters
FN:34,_ZN20BVConstantDispersion19computeQpPropertiesEv
FNDA:132,_ZN20BVConstantDispersion11validParamsEv
FNDA:0,_ZN20BVConstantDispersionC2ERK15InputParameters
FNDA:0,_ZN20BVConstantDispersion19computeQpPropertiesEv
FNF:3
FNH:1
DA:19,132
DA:21,132
DA:22,132
DA:23,264
DA:25,132
DA:26,0
DA:28,0
DA:29,0
DA:31,0
DA:34,0
DA:36,0
DA:37,0
LF:12
LH:5
end_of_record
TN:
SF:/home/runner/work/beaver/beaver/src/materials/BVConstantFrictionUpdate.C
FN:19,_ZN24BVConstantFrictionUpdate11validParamsEv
FN:28,_ZN24BVConstantFrictionUpdateC2ERK15InputParameters
FN:34,_ZN24BVConstantFrictionUpdate18frictionalStrengthERKN11MetaPhysicL10DualNumberIdNS0_28SemiDynamicSparseNumberArrayIdmNS0_8NWrapperILm64EEEEELb1EEE
FN:40,_ZN24BVConstantFrictionUpdate23frictionalStrengthDerivERKN11MetaPhysicL10DualNumberIdNS0_28SemiDynamicSparseNumberArrayIdmNS0_8NWrapperILm64EEEEELb1EEE
FNDA:140,_ZN24BVConstantFrictionUpdate11validParamsEv
FNDA:93388,_ZN24BVConstantFrictionUpdate18frictionalStrengthERKN11MetaPhysicL10DualNumberIdNS0_28SemiDynamicSparseNumberArrayIdmNS0_8NWrapperILm64EEEEELb1EEE
FNDA:6,_ZN24BVConstantFrictionUpdateC2ERK15InputParameters
FNDA:54212,_ZN24BVConstantFrictionUpdate23frictionalStrengthDerivERKN11MetaPhysicL10DualNumberIdNS0_28SemiDynamicSparseNumberArrayIdmNS0_8NWrapperILm64EEEEELb1EEE
FNF:4
FNH:4
DA:19,140
DA:21,140
DA:22,140
DA:23,280
DA:25,140
DA:26,0
DA:28,6
DA:29,12
DA:31,6
DA:34,93388
DA:36,93388
DA:40,54212
DA:42,54212
LF:13
LH:12
end_of_record
TN:
SF:/home/runner/work/beaver/beaver/src/materials/BVConstantPermeability.C
FN:19,_ZN22BVConstantPermeability11validParamsEv
FN:28,_ZN22BVConstantPermeabilityC2ERK15InputParameters
FN:34,_ZN22BVConstantPermeability19computeQpPropertiesEv
FNDA:172,_ZN22BVConstantPermeability11validParamsEv
FNDA:30,_ZN22BVConstantPermeabilityC2ERK15InputParameters
FNDA:512684,_ZN22BVConstantPermeability19computeQpPropertiesEv
FNF:3
FNH:3
DA:19,172
DA:21,172
DA:22,172
DA:23,344
DA:25,172
DA:26,0
DA:28,30
DA:29,60
DA:31,30
DA:34,512684
DA:36,512684
DA:37,512684
LF:12
LH:11
end_of_record
TN:
SF:/home/runner/work/beaver/beaver/src/materials/BVConstantPorosity.C
FN:19,_ZN18BVConstantPorosity11validParamsEv
FN:28,_ZN18BVConstantPorosityC2ERK15InputParameters
FN:34,_ZN18BVConstantPorosity24initQpStatefulPropertiesEv
FN:40,_ZN18BVConstantPorosity19computeQpPropertiesEv
FNDA:389404,_ZN18BVConstantPorosity19computeQpPropertiesEv
FNDA:0,_ZN18BVConstantPorosity24initQpStatefulPropertiesEv
FNDA:12,_ZN18BVConstantPorosityC2ERK15InputParameters
FNDA:148,_ZN18BVConstantPorosity11validParamsEv
FNF:4
FNH:3
DA:19,148
DA:21,148
DA:22,148
DA:23,296
DA:25,148
DA:26,0
DA:28,12
DA:29,24
DA:31,12
DA:34,0
DA:36,0
DA:37,0
DA:40,389404
DA:42,389404
DA:43,389404
LF:15
LH:11
end_of_record
TN:
SF:/home/runner/work/beaver/beaver/src/materials/BVCreepUpdateBase.C
FN:18,_ZN17BVCreepUpdateBase11validParamsEv
FN:30,_ZN17BVCreepUpdateBaseC2ERK15InputParameters
FN:38,_ZN17BVCreepUpdateBase15inelasticUpdateER18RankTwoTensorTemplIN11MetaPhysicL10DualNumberIdNS1_28SemiDynamicSparseNumberArrayIdmNS1_8NWrapperILm64EEEEELb1EEEERK19RankFourTensorTemplIdE
FN:68,_ZN17BVCreepUpdateBase9returnMapEv
FN:95,_ZN17BVCreepUpdateBase8residualERKN11MetaPhysicL10DualNumberIdNS0_28SemiDynamicSparseNumberArrayIdmNS0_8NWrapperILm64EEEEELb1EEE
FN:101,_ZN17BVCreepUpdateBase8jacobianERKN11MetaPhysicL10DualNumberIdNS0_28SemiDynamicSparseNumberArrayIdmNS0_8NWrapperILm64EEEEELb1EEE
FN:107,_ZN17BVCreepUpdateBase25reformPlasticStrainTensorERKN11MetaPhysicL10DualNumberIdNS0_28SemiDynamicSparseNumberArrayIdmNS0_8NWrapperILm64EEEEELb1EEE
FN:116,_ZN17BVCreepUpdateBase12preReturnMapEv
FN:121,_ZN17BVCreepUpdateBase13postReturnMapERKN11MetaPhysicL10DualNumberIdNS0_28SemiDynamicSparseNumberArrayIdmNS0_8NWrapperILm64EEEEELb1EEE
FNDA:131328,_ZN17BVCreepUpdateBase25reformPlasticStrainTensorERKN11MetaPhysicL10DualNumberIdNS0_28SemiDynamicSparseNumberArrayIdmNS0_8NWrapperILm64EEEEELb1EEE
FNDA:272,_ZN17BVCreepUpdateBase11validParamsEv
FNDA:262656,_ZN17BVCreepUpdateBase8residualERKN11MetaPhysicL10DualNumberIdNS0_28SemiDynamicSparseNumberArrayIdmNS0_8NWrapperILm64EEEEELb1EEE
FNDA:63488,_ZN17BVCreepUpdateBase12preReturnMapEv
FNDA:262656,_ZN17BVCreepUpdateBase8jacobianERKN11MetaPhysicL10DualNumberIdNS0_28SemiDynamicSparseNumberArrayIdmNS0_8NWrapperILm64EEEEELb1EEE
FNDA:6,_ZN17BVCreepUpdateBaseC2ERK15InputParameters
FNDA:131328,_ZN17BVCreepUpdateBase15inelasticUpdateER18RankTwoTensorTemplIN11MetaPhysicL10DualNumberIdNS1_28SemiDynamicSparseNumberArrayIdmNS1_8NWrapperILm64EEEEELb1EEEERK19RankFourTensorTemplIdE
FNDA:131328,_ZN17BVCreepUpdateBase9returnMapEv
FNDA:63488,_ZN17BVCreepUpdateBase13postReturnMapERKN11MetaPhysicL10DualNumberIdNS0_28SemiDynamicSparseNumberArrayIdmNS0_8NWrapperILm64EEEEELb1EEE
FNF:9
FNH:9
DA:18,272
DA:20,272
DA:21,272
DA:22,544
DA:27,272
DA:28,0
DA:30,6
DA:32,6
DA:33,12
DA:35,6
DA:38,131328
DA:46,131328
DA:48,262656
DA:50,131328
DA:53,131328
DA:56,131328
DA:59,131328
DA:62,131328
DA:63,262656
DA:64,131328
DA:65,131328
DA:68,131328
DA:71,131328
DA:74,131328
DA:76,131328
DA:77,131328
DA:80,131328
DA:82,131328
DA:84,131328
DA:85,131328
DA:88,131328
DA:89,131328
DA:91,0
DA:95,262656
DA:97,262656
DA:101,262656
DA:103,262656
DA:107,131328
DA:110,131328
DA:112,262656
DA:116,63488
DA:118,63488
DA:121,63488
DA:123,63488
LF:44
LH:42
end_of_record
TN:
SF:/home/runner/work/beaver/beaver/src/materials/BVDispersionBase.C
FN:17,_ZN16BVDispersionBase11validParamsEv
FN:25,_ZN16BVDispersionBaseC2ERK15InputParameters
FNDA:132,_ZN16BVDispersionBase11validParamsEv
FNDA:0,_ZN16BVDispersionBaseC2ERK15InputParameters
FNF:2
FNH:1
DA:17,132
DA:19,132
DA:20,132
DA:22,132
DA:23,0
DA:25,0
DA:26,0
DA:28,0
LF:8
LH:4
end_of_record
TN:
SF:/home/runner/work/beaver/beaver/src/materials/BVFluidProperties.C
FN:19,_ZN17BVFluidProperties11validParamsEv
FN:34,_ZN17BVFluidPropertiesC2ERK15InputParameters
FN:47,_ZN17BVFluidProperties9phase_extB5cxx11Ev
FN:63,_ZN17BVFluidProperties24initQpStatefulPropertiesEv
FN:70,_ZN17BVFluidProperties19computeQpPropertiesEv
FNDA:3508,_ZN17BVFluidProperties24initQpStatefulPropertiesEv
FNDA:512684,_ZN17BVFluidProperties19computeQpPropertiesEv
FNDA:24,_ZN17BVFluidPropertiesC2ERK15InputParameters
FNDA:164,_ZN17BVFluidProperties11validParamsEv
FNDA:24,_ZN17BVFluidProperties9phase_extB5cxx11Ev
FNF:5
FNH:5
DA:19,164
DA:21,164
DA:22,164
DA:24,328
DA:25,328
DA:26,328
DA:28,328
DA:29,328
DA:31,164
DA:32,164
DA:34,24
DA:36,24
DA:37,24
DA:38,48
DA:39,24
DA:40,24
DA:41,24
DA:42,48
DA:44,24
DA:47,24
DA:49,24
DA:52,0
DA:54,0
DA:56,24
DA:57,0
DA:58,0
DA:63,3508
DA:65,3508
DA:66,3508
DA:67,3508
DA:70,512684
DA:72,512684
DA:73,512684
DA:74,512684
LF:34
LH:30
end_of_record
TN:
SF:/home/runner/work/beaver/beaver/src/materials/BVFrictionUpdateBase.C
FN:17,_ZN20BVFrictionUpdateBase11validParamsEv
FN:41,_ZN20BVFrictionUpdateBaseC2ERK15InputParameters
FN:50,_ZN20BVFrictionUpdateBase5setQpEj
FN:56,_ZN20BVFrictionUpdateBase14frictionUpdateERN7libMesh11VectorValueIN11MetaPhysicL10DualNumberIdNS2_28SemiDynamicSparseNumberArrayIdmNS2_8NWrapperILm64EEEEELb1EEEEERK18RankTwoTensorTemplIdE
FN:82,_ZN20BVFrictionUpdateBase9returnMapEv
FN:110,_ZN20BVFrictionUpdateBase8residualERKN11MetaPhysicL10DualNumberIdNS0_28SemiDynamicSparseNumberArrayIdmNS0_8NWrapperILm64EEEEELb1EEE
FN:116,_ZN20BVFrictionUpdateBase8jacobianERKN11MetaPhysicL10DualNumberIdNS0_28SemiDynamicSparseNumberArrayIdmNS0_8NWrapperILm64EEEEELb1EEE
FN:122,_ZN20BVFrictionUpdateBase16reformSlipVectorERKN11MetaPhysicL10DualNumberIdNS0_28SemiDynamicSparseNumberArrayIdmNS0_8NWrapperILm64EEEEELb1EEE
FN:128,_ZN20BVFrictionUpdateBase12preReturnMapEv
FN:133,_ZN20BVFrictionUpdateBase13postReturnMapERKN11MetaPhysicL10DualNumberIdNS0_28SemiDynamicSparseNumberArrayIdmNS0_8NWrapperILm64EEEEELb1EEE
FNDA:6,_ZN20BVFrictionUpdateBaseC2ERK15InputParameters
FNDA:27106,_ZN20BVFrictionUpdateBase13postReturnMapERKN11MetaPhysicL10DualNumberIdNS0_28SemiDynamicSparseNumberArrayIdmNS0_8NWrapperILm64EEEEELb1EEE
FNDA:39176,_ZN20BVFrictionUpdateBase5setQpEj
FNDA:39176,_ZN20BVFrictionUpdateBase12preReturnMapEv
FNDA:140,_ZN20BVFrictionUpdateBase11validParamsEv
FNDA:27106,_ZN20BVFrictionUpdateBase16reformSlipVectorERKN11MetaPhysicL10DualNumberIdNS0_28SemiDynamicSparseNumberArrayIdmNS0_8NWrapperILm64EEEEELb1EEE
FNDA:54212,_ZN20BVFrictionUpdateBase8jacobianERKN11MetaPhysicL10DualNumberIdNS0_28SemiDynamicSparseNumberArrayIdmNS0_8NWrapperILm64EEEEELb1EEE
FNDA:54212,_ZN20BVFrictionUpdateBase8residualERKN11MetaPhysicL10DualNumberIdNS0_28SemiDynamicSparseNumberArrayIdmNS0_8NWrapperILm64EEEEELb1EEE
FNDA:27106,_ZN20BVFrictionUpdateBase9returnMapEv
FNDA:39176,_ZN20BVFrictionUpdateBase14frictionUpdateERN7libMesh11VectorValueIN11MetaPhysicL10DualNumberIdNS2_28SemiDynamicSparseNumberArrayIdmNS2_8NWrapperILm64EEEEELb1EEEEERK18RankTwoTensorTemplIdE
FNF:10
FNH:10
DA:17,140
DA:19,140
DA:20,140
DA:22,420
DA:23,280
DA:26,420
DA:27,280
DA:30,420
DA:32,280
DA:36,140
DA:37,140
DA:38,140
DA:39,0
DA:41,6
DA:43,6
DA:44,12
DA:45,18
DA:47,6
DA:50,39176
DA:52,39176
DA:53,39176
DA:56,39176
DA:59,39176
DA:61,39176
DA:62,39176
DA:65,39176
DA:68,39176
DA:70,78352
DA:71,12070
DA:73,27106
DA:76,27106
DA:77,27106
DA:78,27106
DA:82,27106
DA:85,27106
DA:88,27106
DA:90,27106
DA:91,27106
DA:94,27106
DA:96,27106
DA:98,27106
DA:99,27106
DA:102,27106
DA:103,27106
DA:105,0
DA:106,0
DA:110,54212
DA:112,162636
DA:116,54212
DA:118,54212
DA:122,27106
DA:124,81318
DA:128,39176
DA:130,39176
DA:133,27106
DA:135,27106
LF:56
LH:53
end_of_record
TN:
SF:/home/runner/work/beaver/beaver/src/materials/BVInelasticUpdateBase.C
FN:17,_ZN21BVInelasticUpdateBase11validParamsEv
FN:41,_ZN21BVInelasticUpdateBaseC2ERK15InputParameters
FN:50,_ZN21BVInelasticUpdateBase5setQpEj
FNDA:12,_ZN21BVInelasticUpdateBaseC2ERK15InputParameters
FNDA:676,_ZN21BVInelasticUpdateBase11validParamsEv
FNDA:290048,_ZN21BVInelasticUpdateBase5setQpEj
FNF:3
FNH:3
DA:17,676
DA:19,676
DA:20,676
DA:22,2028
DA:23,1352
DA:26,2028
DA:27,1352
DA:30,2028
DA:32,1352
DA:36,676
DA:37,676
DA:38,676
DA:39,0
DA:41,12
DA:43,12
DA:44,24
DA:45,36
DA:47,12
DA:50,290048
DA:52,290048
DA:53,290048
LF:21
LH:20
end_of_record
TN:
SF:/home/runner/work/beaver/beaver/src/materials/BVKelvinViscoelasticUpdate.C
FN:19,_ZN26BVKelvinViscoelasticUpdate11validParamsEv
FN:29,_ZN26BVKelvinViscoelasticUpdateC2ERK15InputParameters
FN:40,_ZN26BVKelvinViscoelasticUpdate24initQpStatefulPropertiesEv
FN:46,_ZN26BVKelvinViscoelasticUpdate9creepRateERKN11MetaPhysicL10DualNumberIdNS0_28SemiDynamicSparseNumberArrayIdmNS0_8NWrapperILm64EEEEELb1EEE
FN:52,_ZN26BVKelvinViscoelasticUpdate19creepRateDerivativeERKN11MetaPhysicL10DualNumberIdNS0_28SemiDynamicSparseNumberArrayIdmNS0_8NWrapperILm64EEEEELb1EEE
FN:58,_ZN26BVKelvinViscoelasticUpdate17kelvinCreepStrainERKN11MetaPhysicL10DualNumberIdNS0_28SemiDynamicSparseNumberArrayIdmNS0_8NWrapperILm64EEEEELb1EEE
FN:64,_ZN26BVKelvinViscoelasticUpdate27kelvinCreepStrainDerivativeERKN11MetaPhysicL10DualNumberIdNS0_28SemiDynamicSparseNumberArrayIdmNS0_8NWrapperILm64EEEEELb1EEE
FN:70,_ZN26BVKelvinViscoelasticUpdate12preReturnMapEv
FN:76,_ZN26BVKelvinViscoelasticUpdate13postReturnMapERKN11MetaPhysicL10DualNumberIdNS0_28SemiDynamicSparseNumberArrayIdmNS0_8NWrapperILm64EEEEELb1EEE
FNDA:2304,_ZN26BVKelvinViscoelasticUpdate24initQpStatefulPropertiesEv
FNDA:67840,_ZN26BVKelvinViscoelasticUpdate13postReturnMapERKN11MetaPhysicL10DualNumberIdNS0_28SemiDynamicSparseNumberArrayIdmNS0_8NWrapperILm64EEEEELb1EEE
FNDA:67840,_ZN26BVKelvinViscoelasticUpdate12preReturnMapEv
FNDA:3,_ZN26BVKelvinViscoelasticUpdateC2ERK15InputParameters
FNDA:135680,_ZN26BVKelvinViscoelasticUpdate27kelvinCreepStrainDerivativeERKN11MetaPhysicL10DualNumberIdNS0_28SemiDynamicSparseNumberArrayIdmNS0_8NWrapperILm64EEEEELb1EEE
FNDA:271360,_ZN26BVKelvinViscoelasticUpdate17kelvinCreepStrainERKN11MetaPhysicL10DualNumberIdNS0_28SemiDynamicSparseNumberArrayIdmNS0_8NWrapperILm64EEEEELb1EEE
FNDA:136,_ZN26BVKelvinViscoelasticUpdate11validParamsEv
FNDA:135680,_ZN26BVKelvinViscoelasticUpdate19creepRateDerivativeERKN11MetaPhysicL10DualNumberIdNS0_28SemiDynamicSparseNumberArrayIdmNS0_8NWrapperILm64EEEEELb1EEE
FNDA:203520,_ZN26BVKelvinViscoelasticUpdate9creepRateERKN11MetaPhysicL10DualNumberIdNS0_28SemiDynamicSparseNumberArrayIdmNS0_8NWrapperILm64EEEEELb1EEE
FNF:9
FNH:9
DA:19,136
DA:21,136
DA:22,136
DA:23,272
DA:24,272
DA:26,136
DA:27,0
DA:29,3
DA:31,3
DA:32,6
DA:34,3
DA:35,9
DA:37,3
DA:40,2304
DA:42,2304
DA:43,2304
DA:46,203520
DA:48,610560
DA:52,135680
DA:54,407040
DA:58,271360
DA:60,271360
DA:64,135680
DA:66,135680
DA:70,67840
DA:72,67840
DA:73,67840
DA:76,67840
DA:78,67840
DA:79,67840
LF:30
LH:29
end_of_record
TN:
SF:/home/runner/work/beaver/beaver/src/materials/BVLubby2ModelUpdate.C
FN:19,_ZN19BVLubby2ModelUpdate11validParamsEv
FN:30,_ZN19BVLubby2ModelUpdateC2ERK15InputParameters
FN:40,_ZN19BVLubby2ModelUpdate16viscosityMaxwellERKSt6vectorIN11MetaPhysicL10DualNumberIdNS1_28SemiDynamicSparseNumberArrayIdmNS1_8NWrapperILm64EEEEELb1EEESaIS7_EE
FN:48,_ZN19BVLubby2ModelUpdate15viscosityKelvinERKSt6vectorIN11MetaPhysicL10DualNumberIdNS1_28SemiDynamicSparseNumberArrayIdmNS1_8NWrapperILm64EEEEELb1EEESaIS7_EE
FN:56,_ZN19BVLubby2ModelUpdate26viscosityMaxwellDerivativeERKSt6vectorIN11MetaPhysicL10DualNumberIdNS1_28SemiDynamicSparseNumberArrayIdmNS1_8NWrapperILm64EEEEELb1EEESaIS7_EEj
FN:63,_ZN19BVLubby2ModelUpdate25viscosityKelvinDerivativeERKSt6vectorIN11MetaPhysicL10DualNumberIdNS1_28SemiDynamicSparseNumberArrayIdmNS1_8NWrapperILm64EEEEELb1EEESaIS7_EEj
FN:70,_ZN19BVLubby2ModelUpdate18shearModulusKelvinERKSt6vectorIN11MetaPhysicL10DualNumberIdNS1_28SemiDynamicSparseNumberArrayIdmNS1_8NWrapperILm64EEEEELb1EEESaIS7_EE
FN:78,_ZN19BVLubby2ModelUpdate28shearModulusKelvinDerivativeERKSt6vectorIN11MetaPhysicL10DualNumberIdNS1_28SemiDynamicSparseNumberArrayIdmNS1_8NWrapperILm64EEEEELb1EEESaIS7_EEj
FNDA:2326016,_ZN19BVLubby2ModelUpdate25viscosityKelvinDerivativeERKSt6vectorIN11MetaPhysicL10DualNumberIdNS1_28SemiDynamicSparseNumberArrayIdmNS1_8NWrapperILm64EEEEELb1EEESaIS7_EEj
FNDA:2326016,_ZN19BVLubby2ModelUpdate26viscosityMaxwellDerivativeERKSt6vectorIN11MetaPhysicL10DualNumberIdNS1_28SemiDynamicSparseNumberArrayIdmNS1_8NWrapperILm64EEEEELb1EEESaIS7_EEj
FNDA:3,_ZN19BVLubby2ModelUpdateC2ERK15InputParameters
FNDA:4652032,_ZN19BVLubby2ModelUpdate18shearModulusKelvinERKSt6vectorIN11MetaPhysicL10DualNumberIdNS1_28SemiDynamicSparseNumberArrayIdmNS1_8NWrapperILm64EEEEELb1EEESaIS7_EE
FNDA:136,_ZN19BVLubby2ModelUpdate11validParamsEv
FNDA:8141056,_ZN19BVLubby2ModelUpdate16viscosityMaxwellERKSt6vectorIN11MetaPhysicL10DualNumberIdNS1_28SemiDynamicSparseNumberArrayIdmNS1_8NWrapperILm64EEEEELb1EEESaIS7_EE
FNDA:8141056,_ZN19BVLubby2ModelUpdate15viscosityKelvinERKSt6vectorIN11MetaPhysicL10DualNumberIdNS1_28SemiDynamicSparseNumberArrayIdmNS1_8NWrapperILm64EEEEELb1EEESaIS7_EE
FNDA:2326016,_ZN19BVLubby2ModelUpdate28shearModulusKelvinDerivativeERKSt6vectorIN11MetaPhysicL10DualNumberIdNS1_28SemiDynamicSparseNumberArrayIdmNS1_8NWrapperILm64EEEEELb1EEESaIS7_EEj
FNF:8
FNH:8
DA:19,136
DA:21,136
DA:22,136
DA:23,272
DA:24,272
DA:25,272
DA:26,272
DA:27,136
DA:28,0
DA:30,3
DA:32,3
DA:33,6
DA:34,6
DA:35,9
DA:37,3
DA:40,8141056
DA:42,8141056
DA:43,32564224
DA:44,8141056
DA:48,8141056
DA:50,8141056
DA:51,32564224
DA:52,8141056
DA:56,2326016
DA:59,2326016
DA:63,2326016
DA:66,2326016
DA:70,4652032
DA:72,4652032
DA:73,18608128
DA:74,4652032
DA:78,2326016
DA:81,2326016
LF:33
LH:32
end_of_record
TN:
SF:/home/runner/work/beaver/beaver/src/materials/BVMaxwellViscoelasticUpdate.C
FN:19,_ZN27BVMaxwellViscoelasticUpdate11validParamsEv
FN:27,_ZN27BVMaxwellViscoelasticUpdateC2ERK15InputParameters
FN:33,_ZN27BVMaxwellViscoelasticUpdate9creepRateERKN11MetaPhysicL10DualNumberIdNS0_28SemiDynamicSparseNumberArrayIdmNS0_8NWrapperILm64EEEEELb1EEE
FN:39,_ZN27BVMaxwellViscoelasticUpdate19creepRateDerivativeERKN11MetaPhysicL10DualNumberIdNS0_28SemiDynamicSparseNumberArrayIdmNS0_8NWrapperILm64EEEEELb1EEE
FNDA:3,_ZN27BVMaxwellViscoelasticUpdateC2ERK15InputParameters
FNDA:136,_ZN27BVMaxwellViscoelasticUpdate11validParamsEv
FNDA:190464,_ZN27BVMaxwellViscoelasticUpdate9creepRateERKN11MetaPhysicL10DualNumberIdNS0_28SemiDynamicSparseNumberArrayIdmNS0_8NWrapperILm64EEEEELb1EEE
FNDA:126976,_ZN27BVMaxwellViscoelasticUpdate19creepRateDerivativeERKN11MetaPhysicL10DualNumberIdNS0_28SemiDynamicSparseNumberArrayIdmNS0_8NWrapperILm64EEEEELb1EEE
FNF:4
FNH:4
DA:19,136
DA:21,136
DA:22,136
DA:23,272
DA:24,136
DA:25,0
DA:27,3
DA:28,6
DA:30,3
DA:33,190464
DA:35,380928
DA:39,126976
DA:41,126976
LF:13
LH:12
end_of_record
TN:
SF:/home/runner/work/beaver/beaver/src/materials/BVMechanicalInterfaceMaterial.C
FN:20,_ZN29BVMechanicalInterfaceMaterial11validParamsEv
FN:43,_ZN29BVMechanicalInterfaceMaterialC2ERK15InputParameters
FN:72,_ZN29BVMechanicalInterfaceMaterial12initialSetupEv
FN:101,_ZN29BVMechanicalInterfaceMaterial26displacementIntegrityCheckEv
FN:111,_ZN29BVMechanicalInterfaceMaterial23initializeFrictionModelEv
FN:121,_ZN29BVMechanicalInterfaceMaterial24initQpStatefulPropertiesEv
FN:130,_ZN29BVMechanicalInterfaceMaterial19computeQpPropertiesEv
FN:142,_ZN29BVMechanicalInterfaceMaterial25computeQpDisplacementJumpEv
FN:154,_ZN29BVMechanicalInterfaceMaterial25computeQpRotationMatricesEv
FN:160,_ZN29BVMechanicalInterfaceMaterial30computeQpLocalDisplacementJumpEv
FN:170,_ZN29BVMechanicalInterfaceMaterial22computeQpLocalTractionEv
FN:184,_ZN29BVMechanicalInterfaceMaterial23computeQpGlobalTractionEv
FN:190,_ZN29BVMechanicalInterfaceMaterial24computeReferenceRotationERKN7libMesh11VectorValueIdEEj
FNDA:4,_ZN29BVMechanicalInterfaceMaterial12initialSetupEv
FNDA:44656,_ZN29BVMechanicalInterfaceMaterial22computeQpLocalTractionEv
FNDA:44656,_ZN29BVMechanicalInterfaceMaterial25computeQpRotationMatricesEv
FNDA:2192,_ZN29BVMechanicalInterfaceMaterial24initQpStatefulPropertiesEv
FNDA:44656,_ZN29BVMechanicalInterfaceMaterial24computeReferenceRotationERKN7libMesh11VectorValueIdEEj
FNDA:44656,_ZN29BVMechanicalInterfaceMaterial23computeQpGlobalTractionEv
FNDA:44656,_ZN29BVMechanicalInterfaceMaterial19computeQpPropertiesEv
FNDA:140,_ZN29BVMechanicalInterfaceMaterial11validParamsEv
FNDA:44656,_ZN29BVMechanicalInterfaceMaterial30computeQpLocalDisplacementJumpEv
FNDA:4,_ZN29BVMechanicalInterfaceMaterialC2ERK15InputParameters
FNDA:4,_ZN29BVMechanicalInterfaceMaterial23initializeFrictionModelEv
FNDA:44656,_ZN29BVMechanicalInterfaceMaterial25computeQpDisplacementJumpEv
FNDA:4,_ZN29BVMechanicalInterfaceMaterial26displacementIntegrityCheckEv
FNF:13
FNH:13
DA:20,140
DA:22,140
DA:23,140
DA:26,280
DA:30,280
DA:32,280
DA:35,280
DA:39,140
DA:40,140
DA:41,0
DA:43,4
DA:46,4
DA:47,4
DA:48,4
DA:49,4
DA:50,4
DA:52,12
DA:53,8
DA:54,12
DA:56,4
DA:57,4
DA:58,4
DA:59,4
DA:60,4
DA:61,4
DA:62,4
DA:63,4
DA:65,4
DA:66,8
DA:67,8
DA:69,4
DA:72,4
DA:74,4
DA:76,4
DA:80,14
DA:82,10
DA:83,10
DA:84,10
DA:86,10
DA:87,10
DA:91,6
DA:93,2
DA:94,2
DA:95,2
DA:96,2
DA:98,4
DA:101,4
DA:104,4
DA:105,0
DA:108,4
DA:111,4
DA:113,8
DA:114,4
DA:116,2
DA:117,2
DA:119,4
DA:121,2192
DA:125,2192
DA:126,2192
DA:127,2192
DA:130,44656
DA:133,44656
DA:134,44656
DA:135,44656
DA:137,44656
DA:138,44656
DA:139,44656
DA:142,44656
DA:145,177264
DA:146,132608
DA:147,132608
DA:148,265216
DA:149,46016
DA:150,1360
DA:151,44656
DA:154,44656
DA:156,44656
DA:157,44656
DA:160,44656
DA:162,44656
DA:163,44656
DA:166,44656
DA:167,44656
DA:168,44656
DA:170,44656
DA:172,44656
DA:173,89312
DA:176,44656
DA:178,39176
DA:179,39176
DA:181,44656
DA:184,44656
DA:186,89312
DA:187,44656
DA:190,44656
DA:193,44656
DA:194,44656
DA:196,43296
DA:197,43296
DA:198,43296
DA:199,1360
DA:200,1360
DA:201,1360
DA:202,0
DA:203,0
DA:204,0
DA:205,0
DA:206,0
DA:207,0
DA:208,0
DA:210,44656
LF:111
LH:102
end_of_record
TN:
SF:/home/runner/work/beaver/beaver/src/materials/BVMechanicalMaterial.C
FN:20,_ZN20BVMechanicalMaterial11validParamsEv
FN:55,_ZN20BVMechanicalMaterialC2ERK15InputParameters
FN:78,_ZN20BVMechanicalMaterial12initialSetupEv
FN:107,_ZN20BVMechanicalMaterial23elasticModuliInputCheckEv
FN:136,_ZN20BVMechanicalMaterial26displacementIntegrityCheckEv
FN:146,_ZN20BVMechanicalMaterial25initializeInelasticModelsEv
FN:167,_ZN20BVMechanicalMaterial23initializeInitialStressEv
FN:184,_ZN20BVMechanicalMaterial24initQpStatefulPropertiesEv
FN:199,_ZN20BVMechanicalMaterial19computeQpPropertiesEv
FN:207,_ZN20BVMechanicalMaterial24computeQpStrainIncrementEv
FN:228,_ZN20BVMechanicalMaterial20computeQpSmallStrainERK18RankTwoTensorTemplIN11MetaPhysicL10DualNumberIdNS1_28SemiDynamicSparseNumberArrayIdmNS1_8NWrapperILm64EEEEELb1EEEERKS0_IdE
FN:238,_ZN20BVMechanicalMaterial21computeQpFiniteStrainERK18RankTwoTensorTemplIN11MetaPhysicL10DualNumberIdNS1_28SemiDynamicSparseNumberArrayIdmNS1_8NWrapperILm64EEEEELb1EEEERKS0_IdE
FN:255,_ZN20BVMechanicalMaterial25computeQpElasticityTensorEv
FN:265,_ZN20BVMechanicalMaterial15computeQpStressEv
FN:282,_ZN20BVMechanicalMaterial12spinRotationERK18RankTwoTensorTemplIN11MetaPhysicL10DualNumberIdNS1_28SemiDynamicSparseNumberArrayIdmNS1_8NWrapperILm64EEEEELb1EEEE
FNDA:196,_ZN20BVMechanicalMaterial11validParamsEv
FNDA:932514,_ZN20BVMechanicalMaterial15computeQpStressEv
FNDA:46,_ZN20BVMechanicalMaterial12initialSetupEv
FNDA:932514,_ZN20BVMechanicalMaterial20computeQpSmallStrainERK18RankTwoTensorTemplIN11MetaPhysicL10DualNumberIdNS1_28SemiDynamicSparseNumberArrayIdmNS1_8NWrapperILm64EEEEELb1EEEERKS0_IdE
FNDA:34144,_ZN20BVMechanicalMaterial24initQpStatefulPropertiesEv
FNDA:45,_ZN20BVMechanicalMaterial26displacementIntegrityCheckEv
FNDA:932514,_ZN20BVMechanicalMaterial25computeQpElasticityTensorEv
FNDA:932514,_ZN20BVMechanicalMaterial12spinRotationERK18RankTwoTensorTemplIN11MetaPhysicL10DualNumberIdNS1_28SemiDynamicSparseNumberArrayIdmNS1_8NWrapperILm64EEEEELb1EEEE
FNDA:45,_ZN20BVMechanicalMaterial25initializeInelasticModelsEv
FNDA:45,_ZN20BVMechanicalMaterial23initializeInitialStressEv
FNDA:46,_ZN20BVMechanicalMaterial23elasticModuliInputCheckEv
FNDA:0,_ZN20BVMechanicalMaterial21computeQpFiniteStrainERK18RankTwoTensorTemplIN11MetaPhysicL10DualNumberIdNS1_28SemiDynamicSparseNumberArrayIdmNS1_8NWrapperILm64EEEEELb1EEEERKS0_IdE
FNDA:48,_ZN20BVMechanicalMaterialC2ERK15InputParameters
FNDA:932514,_ZN20BVMechanicalMaterial19computeQpPropertiesEv
FNDA:932514,_ZN20BVMechanicalMaterial24computeQpStrainIncrementEv
FNF:15
FNH:14
DA:20,196
DA:22,196
DA:23,196
DA:25,392
DA:29,392
DA:30,392
DA:33,392
DA:35,392
DA:37,392
DA:39,392
DA:42,392
DA:45,392
DA:51,196
DA:52,196
DA:53,196
DA:55,48
DA:58,48
DA:59,48
DA:60,48
DA:62,96
DA:64,48
DA:65,48
DA:67,48
DA:69,48
DA:70,144
DA:72,96
DA:73,0
DA:75,48
DA:78,46
DA:80,46
DA:82,45
DA:84,45
DA:86,45
DA:89,165
DA:91,120
DA:92,120
DA:93,120
DA:95,0
DA:99,60
DA:101,15
DA:102,15
DA:104,45
DA:107,46
DA:109,140
DA:111,42
DA:112,42
DA:114,92
DA:116,42
DA:117,42
DA:119,21
DA:120,21
DA:122,14
DA:124,6
DA:126,6
DA:127,3
DA:130,1
DA:133,45
DA:136,45
DA:139,45
DA:140,0
DA:143,45
DA:146,45
DA:148,135
DA:149,45
DA:150,45
DA:151,45
DA:153,24
DA:156,12
DA:158,12
DA:159,12
DA:161,0
DA:164,45
DA:167,45
DA:169,135
DA:170,45
DA:171,45
DA:172,0
DA:174,45
DA:176,21
DA:178,93
DA:179,72
DA:181,45
DA:184,34144
DA:186,34144
DA:187,34144
DA:188,34144
DA:190,20882
DA:191,89048
DA:192,68166
DA:193,20882
DA:195,34144
DA:196,34144
DA:199,932514
DA:201,932514
DA:202,932514
DA:203,932514
DA:204,932514
DA:207,932514
DA:210,932514
DA:212,932514
DA:214,932514
DA:216,932514
DA:217,932514
DA:219,0
DA:220,0
DA:222,0
DA:223,0
DA:225,932514
DA:228,932514
DA:231,932514
DA:233,1865028
DA:234,1865028
DA:235,932514
DA:238,0
DA:242,0
DA:243,0
DA:244,0
DA:247,0
DA:248,0
DA:250,0
DA:251,0
DA:252,0
DA:255,932514
DA:258,932514
DA:261,932514
DA:262,932514
DA:265,932514
DA:268,1865028
DA:271,932514
DA:273,580096
DA:275,290048
DA:276,290048
DA:279,932514
DA:282,932514
DA:284,932514
DA:285,1865028
LF:136
LH:118
end_of_record
TN:
SF:/home/runner/work/beaver/beaver/src/materials/BVMultiPhaseFlowMaterial.C
FN:19,_ZN24BVMultiPhaseFlowMaterial11validParamsEv
FN:26,_ZN24BVMultiPhaseFlowMaterialC2ERK15InputParameters
FN:42,_ZN24BVMultiPhaseFlowMaterial19computeQpPropertiesEv
FNDA:0,_ZN24BVMultiPhaseFlowMaterialC2ERK15InputParameters
FNDA:0,_ZN24BVMultiPhaseFlowMaterial19computeQpPropertiesEv
FNDA:132,_ZN24BVMultiPhaseFlowMaterial11validParamsEv
FNF:3
FNH:1
DA:19,132
DA:21,132
DA:22,132
DA:23,132
DA:24,0
DA:26,0
DA:28,0
DA:29,0
DA:30,0
DA:31,0
DA:32,0
DA:33,0
DA:34,0
DA:35,0
DA:36,0
DA:37,0
DA:39,0
DA:42,0
DA:45,0
DA:46,0
DA:47,0
DA:50,0
DA:51,0
DA:54,0
DA:55,0
LF:25
LH:4
end_of_record
TN:
SF:/home/runner/work/beaver/beaver/src/materials/BVPermeabilityBase.C
FN:17,_ZN18BVPermeabilityBase11validParamsEv
FN:25,_ZN18BVPermeabilityBaseC2ERK15InputParameters
FNDA:30,_ZN18BVPermeabilityBaseC2ERK15InputParameters
FNDA:172,_ZN18BVPermeabilityBase11validParamsEv
FNF:2
FNH:2
DA:17,172
DA:19,172
DA:20,172
DA:22,172
DA:23,0
DA:25,30
DA:26,30
DA:28,30
LF:8
LH:7
end_of_record
TN:
SF:/home/runner/work/beaver/beaver/src/materials/BVPoroMechanicsMaterial.C
FN:19,_ZN23BVPoroMechanicsMaterial11validParamsEv
FN:32,_ZN23BVPoroMechanicsMaterialC2ERK15InputParameters
FN:50,_ZN23BVPoroMechanicsMaterial19computeQpPropertiesEv
FNDA:140,_ZN23BVPoroMechanicsMaterial11validParamsEv
FNDA:6,_ZN23BVPoroMechanicsMaterialC2ERK15InputParameters
FNDA:280454,_ZN23BVPoroMechanicsMaterial19computeQpPropertiesEv
FNF:3
FNH:3
DA:19,140
DA:21,140
DA:22,140
DA:25,420
DA:26,280
DA:29,140
DA:30,0
DA:32,6
DA:35,6
DA:37,12
DA:39,12
DA:41,12
DA:43,6
DA:44,6
DA:45,12
DA:47,6
DA:50,280454
DA:53,280454
DA:56,280454
DA:59,560908
DA:62,560908
DA:63,280454
LF:22
LH:21
end_of_record
TN:
SF:/home/runner/work/beaver/beaver/src/materials/BVPorosityBase.C
FN:17,_ZN14BVPorosityBase11validParamsEv
FN:25,_ZN14BVPorosityBaseC2ERK15InputParameters
FNDA:12,_ZN14BVPorosityBaseC2ERK15InputParameters
FNDA:148,_ZN14BVPorosityBase11validParamsEv
FNF:2
FNH:2
DA:17,148
DA:19,148
DA:20,148
DA:22,148
DA:23,0
DA:25,12
DA:26,12
DA:28,12
LF:8
LH:7
end_of_record
TN:
SF:/home/runner/work/beaver/beaver/src/materials/BVRTL2020ModelUpdate.C
FN:19,_ZN20BVRTL2020ModelUpdate11validParamsEv
FN:37,_ZN20BVRTL2020ModelUpdateC2ERK15InputParameters
FN:59,_ZN20BVRTL2020ModelUpdate24initQpStatefulPropertiesEv
FN:66,_ZN20BVRTL2020ModelUpdate9creepRateERKSt6vectorIN11MetaPhysicL10DualNumberIdNS1_28SemiDynamicSparseNumberArrayIdmNS1_8NWrapperILm64EEEEELb1EEESaIS7_EEj
FN:77,_ZN20BVRTL2020ModelUpdate17creepRateLemaitreERKSt6vectorIN11MetaPhysicL10DualNumberIdNS1_28SemiDynamicSparseNumberArrayIdmNS1_8NWrapperILm64EEEEELb1EEESaIS7_EE
FN:91,_ZN20BVRTL2020ModelUpdate21creepRateMunsonDawsonERKSt6vectorIN11MetaPhysicL10DualNumberIdNS1_28SemiDynamicSparseNumberArrayIdmNS1_8NWrapperILm64EEEEELb1EEESaIS7_EE
FN:109,_ZN20BVRTL2020ModelUpdate19creepRateDerivativeERKSt6vectorIN11MetaPhysicL10DualNumberIdNS1_28SemiDynamicSparseNumberArrayIdmNS1_8NWrapperILm64EEEEELb1EEESaIS7_EEjj
FN:123,_ZN20BVRTL2020ModelUpdate27creepRateLemaitreDerivativeERKSt6vectorIN11MetaPhysicL10DualNumberIdNS1_28SemiDynamicSparseNumberArrayIdmNS1_8NWrapperILm64EEEEELb1EEESaIS7_EEj
FN:155,_ZN20BVRTL2020ModelUpdate31creepRateMunsonDawsonDerivativeERKSt6vectorIN11MetaPhysicL10DualNumberIdNS1_28SemiDynamicSparseNumberArrayIdmNS1_8NWrapperILm64EEEEELb1EEESaIS7_EEj
FN:192,_ZN20BVRTL2020ModelUpdate19lemaitreCreepStrainERKSt6vectorIN11MetaPhysicL10DualNumberIdNS1_28SemiDynamicSparseNumberArrayIdmNS1_8NWrapperILm64EEEEELb1EEESaIS7_EE
FN:198,_ZN20BVRTL2020ModelUpdate23munsondawsonCreepStrainERKSt6vectorIN11MetaPhysicL10DualNumberIdNS1_28SemiDynamicSparseNumberArrayIdmNS1_8NWrapperILm64EEEEELb1EEESaIS7_EE
FN:204,_ZN20BVRTL2020ModelUpdate12preReturnMapEv
FN:211,_ZN20BVRTL2020ModelUpdate13postReturnMapERKSt6vectorIN11MetaPhysicL10DualNumberIdNS1_28SemiDynamicSparseNumberArrayIdmNS1_8NWrapperILm64EEEEELb1EEESaIS7_EE
FNDA:0,_ZN20BVRTL2020ModelUpdate9creepRateERKSt6vectorIN11MetaPhysicL10DualNumberIdNS1_28SemiDynamicSparseNumberArrayIdmNS1_8NWrapperILm64EEEEELb1EEESaIS7_EEj
FNDA:0,_ZN20BVRTL2020ModelUpdate17creepRateLemaitreERKSt6vectorIN11MetaPhysicL10DualNumberIdNS1_28SemiDynamicSparseNumberArrayIdmNS1_8NWrapperILm64EEEEELb1EEESaIS7_EE
FNDA:132,_ZN20BVRTL2020ModelUpdate11validParamsEv
FNDA:0,_ZN20BVRTL2020ModelUpdate31creepRateMunsonDawsonDerivativeERKSt6vectorIN11MetaPhysicL10DualNumberIdNS1_28SemiDynamicSparseNumberArrayIdmNS1_8NWrapperILm64EEEEELb1EEESaIS7_EEj
FNDA:0,_ZN20BVRTL2020ModelUpdate13postReturnMapERKSt6vectorIN11MetaPhysicL10DualNumberIdNS1_28SemiDynamicSparseNumberArrayIdmNS1_8NWrapperILm64EEEEELb1EEESaIS7_EE
FNDA:0,_ZN20BVRTL2020ModelUpdateC2ERK15InputParameters
FNDA:0,_ZN20BVRTL2020ModelUpdate27creepRateLemaitreDerivativeERKSt6vectorIN11MetaPhysicL10DualNumberIdNS1_28SemiDynamicSparseNumberArrayIdmNS1_8NWrapperILm64EEEEELb1EEESaIS7_EEj
FNDA:0,_ZN20BVRTL2020ModelUpdate21creepRateMunsonDawsonERKSt6vectorIN11MetaPhysicL10DualNumberIdNS1_28SemiDynamicSparseNumberArrayIdmNS1_8NWrapperILm64EEEEELb1EEESaIS7_EE
FNDA:0,_ZN20BVRTL2020ModelUpdate23munsondawsonCreepStrainERKSt6vectorIN11MetaPhysicL10DualNumberIdNS1_28SemiDynamicSparseNumberArrayIdmNS1_8NWrapperILm64EEEEELb1EEESaIS7_EE
FNDA:0,_ZN20BVRTL2020ModelUpdate19lemaitreCreepStrainERKSt6vectorIN11MetaPhysicL10DualNumberIdNS1_28SemiDynamicSparseNumberArrayIdmNS1_8NWrapperILm64EEEEELb1EEESaIS7_EE
FNDA:0,_ZN20BVRTL2020ModelUpdate24initQpStatefulPropertiesEv
FNDA:0,_ZN20BVRTL2020ModelUpdate19creepRateDerivativeERKSt6vectorIN11MetaPhysicL10DualNumberIdNS1_28SemiDynamicSparseNumberArrayIdmNS1_8NWrapperILm64EEEEELb1EEESaIS7_EEjj
FNDA:0,_ZN20BVRTL2020ModelUpdate12preReturnMapEv
FNF:13
FNH:1
DA:19,132
DA:21,132
DA:22,132
DA:25,264
DA:26,264
DA:27,264
DA:28,264
DA:29,264
DA:30,264
DA:31,264
DA:32,264
DA:33,264
DA:34,132
DA:35,0
DA:37,0
DA:40,0
DA:41,0
DA:42,0
DA:44,0
DA:45,0
DA:46,0
DA:47,0
DA:48,0
DA:49,0
DA:51,0
DA:52,0
DA:53,0
DA:54,0
DA:56,0
DA:59,0
DA:61,0
DA:62,0
DA:63,0
DA:66,0
DA:68,0
DA:69,0
DA:70,0
DA:71,0
DA:73,0
DA:77,0
DA:79,0
DA:80,0
DA:81,0
DA:82,0
DA:84,0
DA:85,0
DA:86,0
DA:87,0
DA:91,0
DA:94,0
DA:96,0
DA:98,0
DA:99,0
DA:100,0
DA:101,0
DA:103,0
DA:104,0
DA:105,0
DA:109,0
DA:113,0
DA:114,0
DA:115,0
DA:116,0
DA:118,0
DA:119,0
DA:123,0
DA:126,0
DA:127,0
DA:128,0
DA:129,0
DA:130,0
DA:132,0
DA:133,0
DA:134,0
DA:135,0
DA:136,0
DA:137,0
DA:138,0
DA:139,0
DA:140,0
DA:141,0
DA:142,0
DA:143,0
DA:145,0
DA:146,0
DA:147,0
DA:148,0
DA:150,0
DA:151,0
DA:155,0
DA:159,0
DA:161,0
DA:163,0
DA:164,0
DA:165,0
DA:166,0
DA:167,0
DA:169,0
DA:170,0
DA:171,0
DA:172,0
DA:173,0
DA:174,0
DA:175,0
DA:176,0
DA:177,0
DA:178,0
DA:179,0
DA:181,0
DA:182,0
DA:183,0
DA:184,0
DA:185,0
DA:187,0
DA:188,0
DA:192,0
DA:194,0
DA:198,0
DA:200,0
DA:204,0
DA:206,0
DA:207,0
DA:208,0
DA:211,0
DA:213,0
DA:214,0
DA:215,0
LF:127
LH:13
end_of_record
TN:
SF:/home/runner/work/beaver/beaver/src/materials/BVRelaticePermeabilityBase.C
FN:17,_ZN26BVRelativePermeabilityBase11validParamsEv
FN:25,_ZN26BVRelativePermeabilityBaseC2ERK15InputParameters
FNDA:132,_ZN26BVRelativePermeabilityBase11validParamsEv
FNDA:0,_ZN26BVRelativePermeabilityBaseC2ERK15InputParameters
FNF:2
FNH:1
DA:17,132
DA:19,132
DA:20,132
DA:21,264
DA:22,132
DA:23,0
DA:25,0
DA:27,0
DA:28,0
DA:29,0
DA:33,0
LF:11
LH:5
end_of_record
TN:
SF:/home/runner/work/beaver/beaver/src/materials/BVRelativePermeabilityPowerLaw.C
FN:19,_ZN30BVRelativePermeabilityPowerLaw11validParamsEv
FN:27,_ZN30BVRelativePermeabilityPowerLawC2ERK15InputParameters
FN:34,_ZN30BVRelativePermeabilityPowerLaw19computeQpPropertiesEv
FNDA:132,_ZN30BVRelativePermeabilityPowerLaw11validParamsEv
FNDA:0,_ZN30BVRelativePermeabilityPowerLaw19computeQpPropertiesEv
FNDA:0,_ZN30BVRelativePermeabilityPowerLawC2ERK15InputParameters
FNF:3
FNH:1
DA:19,132
DA:21,132
DA:22,132
DA:23,264
DA:24,132
DA:25,0
DA:27,0
DA:29,0
DA:31,0
DA:34,0
DA:37,0
DA:40,0
DA:42,0
LF:13
LH:5
end_of_record
TN:
SF:/home/runner/work/beaver/beaver/src/materials/BVSinglePhaseFlowMaterial.C
FN:19,_ZN25BVSinglePhaseFlowMaterial11validParamsEv
FN:27,_ZN25BVSinglePhaseFlowMaterialC2ERK15InputParameters
FN:36,_ZN25BVSinglePhaseFlowMaterial19computeQpPropertiesEv
FNDA:512684,_ZN25BVSinglePhaseFlowMaterial19computeQpPropertiesEv
FNDA:164,_ZN25BVSinglePhaseFlowMaterial11validParamsEv
FNDA:24,_ZN25BVSinglePhaseFlowMaterialC2ERK15InputParameters
FNF:3
FNH:3
DA:19,164
DA:21,164
DA:22,164
DA:24,164
DA:25,0
DA:27,24
DA:29,24
DA:30,48
DA:31,48
DA:33,24
DA:36,512684
DA:39,1025368
DA:40,512684
LF:13
LH:12
end_of_record
TN:
SF:/home/runner/work/beaver/beaver/src/materials/BVSinglePhaseFlowSoluteMaterial.C
FN:19,_ZN31BVSinglePhaseFlowSoluteMaterial11validParamsEv
FN:27,_ZN31BVSinglePhaseFlowSoluteMaterialC2ERK15InputParameters
FN:36,_ZN31BVSinglePhaseFlowSoluteMaterial19computeQpPropertiesEv
FNDA:132,_ZN31BVSinglePhaseFlowSoluteMaterial11validParamsEv
FNDA:0,_ZN31BVSinglePhaseFlowSoluteMaterialC2ERK15InputParameters
FNDA:0,_ZN31BVSinglePhaseFlowSoluteMaterial19computeQpPropertiesEv
FNF:3
FNH:1
DA:19,132
DA:21,132
DA:22,132
DA:24,132
DA:25,0
DA:27,0
DA:29,0
DA:30,0
DA:31,0
DA:33,0
DA:36,0
DA:39,0
DA:40,0
LF:13
LH:4
end_of_record
TN:
SF:/home/runner/work/beaver/beaver/src/materials/BVTwoCreepUpdateBase.C
FN:18,_ZN20BVTwoCreepUpdateBase11validParamsEv
FN:30,_ZN20BVTwoCreepUpdateBaseC2ERK15InputParameters
FN:39,_ZN20BVTwoCreepUpdateBase15inelasticUpdateER18RankTwoTensorTemplIN11MetaPhysicL10DualNumberIdNS1_28SemiDynamicSparseNumberArrayIdmNS1_8NWrapperILm64EEEEELb1EEEERK19RankFourTensorTemplIdE
FN:74,_ZN20BVTwoCreepUpdateBase9returnMapEv
FN:102,_ZN20BVTwoCreepUpdateBase6nrStepERKSt6vectorIN11MetaPhysicL10DualNumberIdNS1_28SemiDynamicSparseNumberArrayIdmNS1_8NWrapperILm64EEEEELb1EEESaIS7_EERKS0_IS9_SaIS9_EERS9_
FN:121,_ZN20BVTwoCreepUpdateBase4normERKSt6vectorIN11MetaPhysicL10DualNumberIdNS1_28SemiDynamicSparseNumberArrayIdmNS1_8NWrapperILm64EEEEELb1EEESaIS7_EE
FN:131,_ZN20BVTwoCreepUpdateBase8residualERKSt6vectorIN11MetaPhysicL10DualNumberIdNS1_28SemiDynamicSparseNumberArrayIdmNS1_8NWrapperILm64EEEEELb1EEESaIS7_EE
FN:141,_ZN20BVTwoCreepUpdateBase8jacobianERKSt6vectorIN11MetaPhysicL10DualNumberIdNS1_28SemiDynamicSparseNumberArrayIdmNS1_8NWrapperILm64EEEEELb1EEESaIS7_EE
FN:153,_ZN20BVTwoCreepUpdateBase25reformPlasticStrainTensorERKSt6vectorIN11MetaPhysicL10DualNumberIdNS1_28SemiDynamicSparseNumberArrayIdmNS1_8NWrapperILm64EEEEELb1EEESaIS7_EE
FN:168,_ZN20BVTwoCreepUpdateBase12preReturnMapEv
FN:173,_ZN20BVTwoCreepUpdateBase13postReturnMapERKSt6vectorIN11MetaPhysicL10DualNumberIdNS1_28SemiDynamicSparseNumberArrayIdmNS1_8NWrapperILm64EEEEELb1EEESaIS7_EE
FNDA:404,_ZN20BVTwoCreepUpdateBase11validParamsEv
FNDA:6,_ZN20BVTwoCreepUpdateBaseC2ERK15InputParameters
FNDA:158720,_ZN20BVTwoCreepUpdateBase15inelasticUpdateER18RankTwoTensorTemplIN11MetaPhysicL10DualNumberIdNS1_28SemiDynamicSparseNumberArrayIdmNS1_8NWrapperILm64EEEEELb1EEEERK19RankFourTensorTemplIdE
FNDA:158720,_ZN20BVTwoCreepUpdateBase25reformPlasticStrainTensorERKSt6vectorIN11MetaPhysicL10DualNumberIdNS1_28SemiDynamicSparseNumberArrayIdmNS1_8NWrapperILm64EEEEELb1EEESaIS7_EE
FNDA:1298688,_ZN20BVTwoCreepUpdateBase8jacobianERKSt6vectorIN11MetaPhysicL10DualNumberIdNS1_28SemiDynamicSparseNumberArrayIdmNS1_8NWrapperILm64EEEEELb1EEESaIS7_EE
FNDA:3102464,_ZN20BVTwoCreepUpdateBase4normERKSt6vectorIN11MetaPhysicL10DualNumberIdNS1_28SemiDynamicSparseNumberArrayIdmNS1_8NWrapperILm64EEEEELb1EEESaIS7_EE
FNDA:1139968,_ZN20BVTwoCreepUpdateBase6nrStepERKSt6vectorIN11MetaPhysicL10DualNumberIdNS1_28SemiDynamicSparseNumberArrayIdmNS1_8NWrapperILm64EEEEELb1EEESaIS7_EERKS0_IS9_SaIS9_EERS9_
FNDA:1298688,_ZN20BVTwoCreepUpdateBase8residualERKSt6vectorIN11MetaPhysicL10DualNumberIdNS1_28SemiDynamicSparseNumberArrayIdmNS1_8NWrapperILm64EEEEELb1EEESaIS7_EE
FNDA:158720,_ZN20BVTwoCreepUpdateBase9returnMapEv
FNDA:0,_ZN20BVTwoCreepUpdateBase13postReturnMapERKSt6vectorIN11MetaPhysicL10DualNumberIdNS1_28SemiDynamicSparseNumberArrayIdmNS1_8NWrapperILm64EEEEELb1EEESaIS7_EE
FNDA:0,_ZN20BVTwoCreepUpdateBase12preReturnMapEv
FNF:11
FNH:9
DA:18,404
DA:20,404
DA:21,404
DA:22,808
DA:27,404
DA:28,0
DA:30,6
DA:32,6
DA:33,6
DA:34,12
DA:36,6
DA:39,158720
DA:50,158720
DA:52,317440
DA:53,158720
DA:55,158720
DA:56,158720
DA:59,158720
DA:62,158720
DA:65,158720
DA:68,158720
DA:69,317440
DA:70,158720
DA:71,158720
DA:74,158720
DA:77,158720
DA:80,158720
DA:82,158720
DA:83,158720
DA:86,1139968
DA:88,1139968
DA:90,1139968
DA:91,2279936
DA:94,5064960
DA:95,158720
DA:97,0
DA:98,0
DA:99,158720
DA:102,1139968
DA:106,1139968
DA:109,1139968
DA:111,1139968
DA:112,0
DA:114,1139968
DA:115,1139968
DA:117,1139968
DA:121,3102464
DA:123,3102464
DA:124,9307392
DA:125,6204928
DA:127,3102464
DA:131,1298688
DA:133,1298688
DA:134,3896064
DA:135,5194752
DA:137,1298688
DA:141,1298688
DA:143,1298688
DA:145,3896064
DA:146,7792128
DA:147,12986880
DA:149,1298688
DA:150,0
DA:153,158720
DA:155,158720
DA:156,158720
DA:159,158720
DA:161,476160
DA:162,634880
DA:164,158720
DA:168,0
DA:170,0
DA:173,0
DA:175,0
LF:74
LH:65
end_of_record
TN:
SF:/home/runner/work/beaver/beaver/src/meshgenerators/BVFaultInterfaceGenerator.C
FN:29,_ZN25BVFaultInterfaceGenerator11validParamsEv
FN:40,_ZN25BVFaultInterfaceGeneratorC2ERK15InputParameters
FN:50,_ZN25BVFaultInterfaceGenerator8generateEv
FN:97,_ZN25BVFaultInterfaceGenerator15getSidesetNodesERKSt6vectorIP10BndElementSaIS2_EERKSt3setIsSt4lessIsESaIsEE
FN:147,_ZN25BVFaultInterfaceGenerator21splitNodesOnInterfaceERKSt3mapIsSt3setImSt4lessImESaImEES2_IsESaISt4pairIKsS5_EEERSt10unique_ptrIN7libMesh8MeshBaseESt14default_deleteISG_EE
FN:179,_ZN25BVFaultInterfaceGenerator18stitchNodesToElemsERKSt3mapIsSt3setISt6vectorImSaImEESt4lessIS4_ESaIS4_EES5_IsESaISt4pairIKsS8_EEERS0_ImS4_S5_ImESaISA_IKmS4_EEERKS2_IP10BndElementSaISO_EERSt10unique_ptrIN7libMesh8MeshBaseESt14default_deleteISV_EE
FNDA:5,_ZN25BVFaultInterfaceGenerator8generateEv
FNDA:5,_ZN25BVFaultInterfaceGenerator21splitNodesOnInterfaceERKSt3mapIsSt3setImSt4lessImESaImEES2_IsESaISt4pairIKsS5_EEERSt10unique_ptrIN7libMesh8MeshBaseESt14default_deleteISG_EE
FNDA:142,_ZN25BVFaultInterfaceGenerator11validParamsEv
FNDA:5,_ZN25BVFaultInterfaceGeneratorC2ERK15InputParameters
FNDA:5,_ZN25BVFaultInterfaceGenerator18stitchNodesToElemsERKSt3mapIsSt3setISt6vectorImSaImEESt4lessIS4_ESaIS4_EES5_IsESaISt4pairIKsS8_EEERS0_ImS4_S5_ImESaISA_IKmS4_EEERKS2_IP10BndElementSaISO_EERSt10unique_ptrIN7libMesh8MeshBaseESt14default_deleteISV_EE
FNDA:5,_ZN25BVFaultInterfaceGenerator15getSidesetNodesERKSt6vectorIP10BndElementSaIS2_EERKSt3setIsSt4lessIsESaIsEE
FNF:6
FNH:6
DA:29,142
DA:31,142
DA:33,284
DA:34,142
DA:35,284
DA:37,142
DA:38,0
DA:40,5
DA:42,5
DA:43,15
DA:47,5
DA:50,5
DA:52,5
DA:56,2390
DA:57,5818
DA:58,4633
DA:63,10
DA:64,5
DA:67,5
DA:68,5
DA:71,5
DA:72,969
DA:74,964
DA:75,964
DA:76,964
DA:78,964
DA:79,964
DA:84,5
DA:88,5
DA:91,5
DA:93,10
DA:94,5
DA:97,5
DA:104,10
DA:107,969
DA:108,964
DA:110,294
DA:111,294
DA:114,294
DA:117,294
DA:118,147
DA:121,147
DA:123,573
DA:125,426
DA:126,426
DA:128,320
DA:129,320
DA:132,106
DA:133,426
DA:143,5
DA:147,5
DA:154,10
DA:156,5
DA:159,111
DA:162,106
DA:164,106
DA:165,106
DA:166,106
DA:168,106
DA:169,106
DA:170,106
DA:171,106
DA:175,5
DA:179,5
DA:186,10
DA:188,5
DA:190,111
DA:193,106
DA:194,106
DA:198,1822
DA:200,717204
DA:202,715488
DA:204,214800
DA:205,214800
DA:208,852
DA:210,852
DA:211,852
DA:214,852
DA:215,5
DA:216,10
DA:219,852
DA:220,852
DA:223,426
DA:224,426
DA:225,426
DA:233,1822
DA:237,864
DA:238,864
DA:239,864
DA:240,864
DA:241,864
DA:242,864
DA:245,442
DA:246,442
DA:252,5
LF:95
LH:94
end_of_record
TN:
SF:/usr/share/miniconda3/envs/moose/libmesh/include/Eigen/src/Core/DenseStorage.h
FNF:0
FNH:0
DA:621,0
LF:1
LH:0
end_of_record
TN:
SF:/usr/share/miniconda3/envs/moose/libmesh/include/Eigen/src/Core/Matrix.h
FNF:0
FNH:0
DA:178,0
LF:1
LH:0
end_of_record
TN:
SF:/usr/share/miniconda3/envs/moose/libmesh/include/Eigen/src/Core/util/Memory.h
FNF:0
FNH:0
DA:203,0
LF:1
LH:0
end_of_record
TN:
SF:/usr/share/miniconda3/envs/moose/libmesh/include/libmesh/dense_matrix.h
FN:99,_ZN7libMesh11DenseMatrixIdED2Ev
FN:99,_ZN7libMesh11DenseMatrixIdED0Ev
FN:126,_ZNK7libMesh11DenseMatrixIdE2elEjj
FN:130,_ZN7libMesh11DenseMatrixIdE2elEjj
FN:911,_ZN7libMesh11DenseMatrixIdE4zeroEv
FNDA:0,_ZN7libMesh11DenseMatrixIdE2elEjj
FNDA:0,_ZNK7libMesh11DenseMatrixIdE2elEjj
FNDA:0,_ZN7libMesh11DenseMatrixIdED0Ev
FNDA:56,_ZN7libMesh11DenseMatrixIdED2Ev
FNDA:0,_ZN7libMesh11DenseMatrixIdE4zeroEv
FNF:5
FNH:1
DA:99,56
DA:126,0
DA:128,0
DA:130,0
DA:132,0
DA:911,0
DA:913,0
DA:916,0
DA:962,0
DA:977,0
LF:10
LH:1
end_of_record
TN:
SF:/usr/share/miniconda3/envs/moose/libmesh/include/libmesh/dense_vector.h
FN:102,_ZN7libMesh11DenseVectorIdED0Ev
FN:102,_ZN7libMesh11DenseVectorIdED2Ev
FN:104,_ZNK7libMesh11DenseVectorIdE4sizeEv
FN:109,_ZNK7libMesh11DenseVectorIdE5emptyEv
FN:124,_ZNK7libMesh11DenseVectorIdE2elEj
FN:127,_ZN7libMesh11DenseVectorIdE2elEj
FN:398,_ZN7libMesh11DenseVectorIdE4zeroEv
FNDA:0,_ZN7libMesh11DenseVectorIdED0Ev
FNDA:0,_ZNK7libMesh11DenseVectorIdE5emptyEv
FNDA:0,_ZNK7libMesh11DenseVectorIdE2elEj
FNDA:0,_ZN7libMesh11DenseVectorIdE2elEj
FNDA:0,_ZN7libMesh11DenseVectorIdED2Ev
FNDA:0,_ZN7libMesh11DenseVectorIdE4zeroEv
FNDA:0,_ZNK7libMesh11DenseVectorIdE4sizeEv
FNF:7
FNH:0
DA:102,0
DA:104,0
DA:106,0
DA:109,0
DA:110,0
DA:124,0
DA:125,0
DA:127,0
DA:128,0
DA:398,0
DA:403,0
DA:413,0
DA:424,0
LF:13
LH:0
end_of_record
TN:
SF:/usr/share/miniconda3/envs/moose/libmesh/include/libmesh/distributed_mesh.h
FN:264,_ZNK7libMesh15DistributedMesh7n_nodesEv
FN:349,_ZN7libMesh15DistributedMesh24active_element_ptr_rangeEv
FNDA:0,_ZNK7libMesh15DistributedMesh7n_nodesEv
FNDA:0,_ZN7libMesh15DistributedMesh24active_element_ptr_rangeEv
FNF:2
FNH:0
DA:264,0
DA:349,0
LF:2
LH:0
end_of_record
TN:
SF:/usr/share/miniconda3/envs/moose/libmesh/include/libmesh/dof_object.h
FN:73,_ZN7libMesh9DofObjectD2Ev
FN:725,_ZN7libMesh9DofObjectC2Ev
FN:749,_ZN7libMesh9DofObject15invalidate_dofsEj
FN:953,_ZNK7libMesh9DofObject12n_var_groupsEj
FN:1256,_ZNK7libMesh9DofObject7end_idxEj
FNDA:106,_ZN7libMesh9DofObjectC2Ev
FNDA:0,_ZNK7libMesh9DofObject7end_idxEj
FNDA:0,_ZNK7libMesh9DofObject12n_var_groupsEj
FNDA:106,_ZN7libMesh9DofObject15invalidate_dofsEj
FNDA:0,_ZN7libMesh9DofObjectD2Ev
FNF:5
FNH:2
DA:73,0
DA:200,106
DA:725,106
DA:727,106
DA:729,106
DA:730,106
DA:733,106
DA:749,106
DA:753,106
DA:755,106
DA:756,0
DA:757,0
DA:762,0
DA:763,0
DA:765,106
DA:788,106
DA:828,225137
DA:919,106
DA:935,106
DA:936,0
DA:937,106
DA:945,0
DA:946,0
DA:947,0
DA:953,0
DA:957,0
DA:1022,0
DA:1250,0
DA:1256,0
DA:1261,0
DA:1263,0
DA:1305,0
DA:1308,0
LF:33
LH:15
end_of_record
TN:
SF:/usr/share/miniconda3/envs/moose/libmesh/include/libmesh/elem.h
FN:576,_ZNK7libMesh4Elem9is_remoteEv
FN:634,_ZNK7libMesh4Elem16n_nodes_in_childEj
FN:720,_ZNK7libMesh4Elem18is_vertex_on_childEjj
FN:931,_ZNK7libMesh4Elem18default_side_orderEv
FN:975,_ZNK7libMesh4Elem17quasicircumcenterEv
FN:1035,_ZNK7libMesh4Elem11qual_boundsENS_11ElemQualityE
FN:1075,_ZNK7libMesh4Elem14has_affine_mapEv
FN:1091,_ZNK7libMesh4Elem9is_linearEv
FN:1709,_ZNK7libMesh4Elem19local_singular_nodeERKNS_5PointEd
FN:1716,_ZNK7libMesh4Elem16is_singular_nodeEj
FN:1917,_ZNK7libMesh4Elem24embedding_matrix_versionEv
FN:2076,_ZNK7libMesh4Elem26_get_bracketing_node_cacheEv
FN:2090,_ZNK7libMesh4Elem25_get_parent_indices_cacheEv
FN:2336,_ZNK7libMesh4Elem10local_nodeEm
FN:2406,_ZN7libMesh4Elem8set_nodeEj
FNDA:0,_ZNK7libMesh4Elem26_get_bracketing_node_cacheEv
FNDA:0,_ZNK7libMesh4Elem16is_singular_nodeEj
FNDA:0,_ZNK7libMesh4Elem9is_remoteEv
FNDA:0,_ZN7libMesh4Elem8set_nodeEj
FNDA:1732,_ZNK7libMesh4Elem10local_nodeEm
FNDA:0,_ZNK7libMesh4Elem17quasicircumcenterEv
FNDA:0,_ZNK7libMesh4Elem9is_linearEv
FNDA:0,_ZNK7libMesh4Elem25_get_parent_indices_cacheEv
FNDA:0,_ZNK7libMesh4Elem16n_nodes_in_childEj
FNDA:0,_ZNK7libMesh4Elem19local_singular_nodeERKNS_5PointEd
FNDA:0,_ZNK7libMesh4Elem18is_vertex_on_childEjj
FNDA:0,_ZNK7libMesh4Elem24embedding_matrix_versionEv
FNDA:0,_ZNK7libMesh4Elem18default_side_orderEv
FNDA:0,_ZNK7libMesh4Elem14has_affine_mapEv
FNDA:0,_ZNK7libMesh4Elem11qual_boundsENS_11ElemQualityE
FNF:15
FNH:1
DA:576,0
DA:577,0
DA:634,0
DA:635,0
DA:720,0
DA:722,0
DA:931,0
DA:975,0
DA:976,0
DA:1035,0
DA:1036,0
DA:1075,0
DA:1091,0
DA:1709,0
DA:1710,0
DA:1716,0
DA:1917,0
DA:2076,0
DA:2078,0
DA:2079,0
DA:2090,0
DA:2092,0
DA:2093,0
DA:2318,864
DA:2330,8765
DA:2336,1732
DA:2338,4137
DA:2339,4137
DA:2372,426
DA:2406,0
DA:2410,0
DA:2418,0
DA:2446,1146
LF:33
LH:7
end_of_record
TN:
SF:/usr/share/miniconda3/envs/moose/libmesh/include/libmesh/int_range.h
FNF:0
FNH:0
DA:64,2405
DA:65,2405
LF:2
LH:2
end_of_record
TN:
SF:/usr/share/miniconda3/envs/moose/libmesh/include/libmesh/libmesh_common.h
FNF:0
FNH:0
DA:618,0
LF:1
LH:0
end_of_record
TN:
SF:/usr/share/miniconda3/envs/moose/libmesh/include/libmesh/libmesh_exceptions.h
FN:51,_ZN7libMesh14NotImplementedC2ENSt7__cxx1112basic_stringIcSt11char_traitsIcESaIcEEE
FNDA:0,_ZN7libMesh14NotImplementedC2ENSt7__cxx1112basic_stringIcSt11char_traitsIcESaIcEEE
FNF:1
FNH:0
DA:39,0
DA:51,0
LF:2
LH:0
end_of_record
TN:
SF:/usr/share/miniconda3/envs/moose/libmesh/include/libmesh/mesh_base.h
FNF:0
FNH:0
DA:2124,10
LF:1
LH:1
end_of_record
TN:
SF:/usr/share/miniconda3/envs/moose/libmesh/include/libmesh/node.h
FN:272,_ZN7libMesh4NodeC2ERKNS_5PointEm
FNDA:106,_ZN7libMesh4NodeC2ERKNS_5PointEm
FNF:1
FNH:1
DA:272,106
DA:273,106
DA:277,106
DA:284,106
DA:285,106
DA:286,106
DA:293,0
DA:328,106
LF:8
LH:7
end_of_record
TN:
SF:/usr/share/miniconda3/envs/moose/libmesh/include/libmesh/parallel_object.h
FNF:0
FNH:0
DA:91,312
LF:1
LH:1
end_of_record
TN:
SF:/usr/share/miniconda3/envs/moose/libmesh/include/libmesh/parameters.h
FN:85,_ZN7libMesh10ParametersD0Ev
FN:85,_ZN7libMesh10ParametersD2Ev
FN:138,_ZN7libMesh10Parameters14set_attributesERKNSt7__cxx1112basic_stringIcSt11char_traitsIcESaIcEEEb
FN:295,_ZNK7libMesh10Parameters9ParameterI9MooseEnumE4typeB5cxx11Ev
FN:295,_ZNK7libMesh10Parameters9ParameterISt6vectorI21NonlinearVariableNameSaIS3_EEE4typeB5cxx11Ev
FN:295,_ZNK7libMesh10Parameters9ParameterISt6vectorI12MaterialNameSaIS3_EEE4typeB5cxx11Ev
FN:295,_ZNK7libMesh10Parameters9ParameterISt6vectorI12FunctionNameSaIS3_EEE4typeB5cxx11Ev
FN:295,_ZNK7libMesh10Parameters9ParameterI17MeshGeneratorNameE4typeB5cxx11Ev
FN:295,_ZNK7libMesh10Parameters9ParameterI21NonlinearVariableNameE4typeB5cxx11Ev
FN:295,_ZNK7libMesh10Parameters9ParameterINS_11VectorValueIdEEE4typeB5cxx11Ev
FN:295,_ZNK7libMesh10Parameters9ParameterI12MaterialNameE4typeB5cxx11Ev
FN:295,_ZNK7libMesh10Parameters9ParameterIdE4typeB5cxx11Ev
FN:295,_ZNK7libMesh10Parameters9ParameterINSt7__cxx1112basic_stringIcSt11char_traitsIcESaIcEEEE4typeEv
FN:295,_ZNK7libMesh10Parameters9ParameterISt6vectorI12BoundaryNameSaIS3_EEE4typeB5cxx11Ev
FN:295,_ZNK7libMesh10Parameters9ParameterIP13FEProblemBaseE4typeB5cxx11Ev
FN:295,_ZNK7libMesh10Parameters9ParameterIbE4typeB5cxx11Ev
FN:295,_ZNK7libMesh10Parameters9ParameterItE4typeB5cxx11Ev
FN:295,_ZNK7libMesh10Parameters9ParameterI14UserObjectNameE4typeB5cxx11Ev
FN:295,_ZNK7libMesh10Parameters9ParameterI12FunctionNameE4typeB5cxx11Ev
FN:295,_ZNK7libMesh10Parameters9ParameterIjE4typeB5cxx11Ev
FN:303,_ZNK7libMesh10Parameters9ParameterI9MooseEnumE5printERSo
FN:303,_ZNK7libMesh10Parameters9ParameterI12MaterialNameE5printERSo
FN:303,_ZNK7libMesh10Parameters9ParameterIjE5printERSo
FN:303,_ZNK7libMesh10Parameters9ParameterI17MeshGeneratorNameE5printERSo
FN:303,_ZNK7libMesh10Parameters9ParameterItE5printERSo
FN:303,_ZNK7libMesh10Parameters9ParameterISt6vectorI12FunctionNameSaIS3_EEE5printERSo
FN:303,_ZNK7libMesh10Parameters9ParameterI12FunctionNameE5printERSo
FN:303,_ZNK7libMesh10Parameters9ParameterIP13FEProblemBaseE5printERSo
FN:303,_ZNK7libMesh10Parameters9ParameterINSt7__cxx1112basic_stringIcSt11char_traitsIcESaIcEEEE5printERSo
FN:303,_ZNK7libMesh10Parameters9ParameterIbE5printERSo
FN:303,_ZNK7libMesh10Parameters9ParameterISt6vectorI12MaterialNameSaIS3_EEE5printERSo
FN:303,_ZNK7libMesh10Parameters9ParameterISt6vectorI21NonlinearVariableNameSaIS3_EEE5printERSo
FN:303,_ZNK7libMesh10Parameters9ParameterIdE5printERSo
FN:303,_ZNK7libMesh10Parameters9ParameterI21NonlinearVariableNameE5printERSo
FN:303,_ZNK7libMesh10Parameters9ParameterISt6vectorI12BoundaryNameSaIS3_EEE5printERSo
FN:303,_ZNK7libMesh10Parameters9ParameterI14UserObjectNameE5printERSo
FN:303,_ZNK7libMesh10Parameters9ParameterINS_11VectorValueIdEEE5printERSo
FN:311,_ZNK7libMesh10Parameters9ParameterISt6vectorI12FunctionNameSaIS3_EEE5cloneEv
FN:311,_ZNK7libMesh10Parameters9ParameterINSt7__cxx1112basic_stringIcSt11char_traitsIcESaIcEEEE5cloneEv
FN:311,_ZNK7libMesh10Parameters9ParameterI17MeshGeneratorNameE5cloneEv
FN:311,_ZNK7libMesh10Parameters9ParameterIbE5cloneEv
FN:311,_ZNK7libMesh10Parameters9ParameterISt6vectorI12MaterialNameSaIS3_EEE5cloneEv
FN:311,_ZNK7libMesh10Parameters9ParameterI12MaterialNameE5cloneEv
FN:311,_ZNK7libMesh10Parameters9ParameterI12FunctionNameE5cloneEv
FN:311,_ZNK7libMesh10Parameters9ParameterISt6vectorI12BoundaryNameSaIS3_EEE5cloneEv
FN:311,_ZNK7libMesh10Parameters9ParameterINS_11VectorValueIdEEE5cloneEv
FN:311,_ZNK7libMesh10Parameters9ParameterI21NonlinearVariableNameE5cloneEv
FN:311,_ZNK7libMesh10Parameters9ParameterIP13FEProblemBaseE5cloneEv
FN:311,_ZNK7libMesh10Parameters9ParameterIdE5cloneEv
FN:311,_ZNK7libMesh10Parameters9ParameterI14UserObjectNameE5cloneEv
FN:311,_ZNK7libMesh10Parameters9ParameterItE5cloneEv
FN:311,_ZNK7libMesh10Parameters9ParameterISt6vectorI21NonlinearVariableNameSaIS3_EEE5cloneEv
FN:311,_ZNK7libMesh10Parameters9ParameterI9MooseEnumE5cloneEv
FN:311,_ZNK7libMesh10Parameters9ParameterIjE5cloneEv
FN:324,_ZN7libMesh10Parameters5clearEv
FN:332,_ZN7libMesh10ParametersaSERKS0_
FN:341,_ZN7libMesh10ParameterspLERKS0_
FN:360,_ZNK7libMesh10Parameters5printERSo
FN:395,_ZNK7libMesh10Parameters14have_parameterI9MooseEnumEEbSt17basic_string_viewIcSt11char_traitsIcEE
FN:395,_ZNK7libMesh10Parameters14have_parameterI14UserObjectNameEEbSt17basic_string_viewIcSt11char_traitsIcEE
FN:395,_ZNK7libMesh10Parameters14have_parameterItEEbSt17basic_string_viewIcSt11char_traitsIcEE
FN:395,_ZNK7libMesh10Parameters14have_parameterI12FunctionNameEEbSt17basic_string_viewIcSt11char_traitsIcEE
FN:395,_ZNK7libMesh10Parameters14have_parameterIjEEbSt17basic_string_viewIcSt11char_traitsIcEE
FN:395,_ZNK7libMesh10Parameters14have_parameterI20MaterialPropertyNameEEbSt17basic_string_viewIcSt11char_traitsIcEE
FN:395,_ZNK7libMesh10Parameters14have_parameterISt6vectorI12FunctionNameSaIS3_EEEEbSt17basic_string_viewIcSt11char_traitsIcEE
FN:395,_ZNK7libMesh10Parameters14have_parameterI21NonlinearVariableNameEEbSt17basic_string_viewIcSt11char_traitsIcEE
FN:395,_ZNK7libMesh10Parameters14have_parameterISt6vectorI12BoundaryNameSaIS3_EEEEbSt17basic_string_viewIcSt11char_traitsIcEE
FN:395,_ZNK7libMesh10Parameters14have_parameterIdEEbSt17basic_string_viewIcSt11char_traitsIcEE
FN:395,_ZNK7libMesh10Parameters14have_parameterI17MeshGeneratorNameEEbSt17basic_string_viewIcSt11char_traitsIcEE
FN:395,_ZNK7libMesh10Parameters14have_parameterIbEEbSt17basic_string_viewIcSt11char_traitsIcEE
FN:395,_ZNK7libMesh10Parameters14have_parameterISt6vectorI21NonlinearVariableNameSaIS3_EEEEbSt17basic_string_viewIcSt11char_traitsIcEE
FN:395,_ZNK7libMesh10Parameters14have_parameterISt6vectorI12MaterialNameSaIS3_EEEEbSt17basic_string_viewIcSt11char_traitsIcEE
FN:395,_ZNK7libMesh10Parameters14have_parameterI12MaterialNameEEbSt17basic_string_viewIcSt11char_traitsIcEE
FN:395,_ZNK7libMesh10Parameters14have_parameterINS_11VectorValueIdEEEEbSt17basic_string_viewIcSt11char_traitsIcEE
FN:395,_ZNK7libMesh10Parameters14have_parameterINSt7__cxx1112basic_stringIcSt11char_traitsIcESaIcEEEEEbSt17basic_string_viewIcS5_E
FN:426,_ZNK7libMesh10Parameters3getINS_11VectorValueIdEEEERKT_St17basic_string_viewIcSt11char_traitsIcEE
FN:426,_ZNK7libMesh10Parameters3getIbEERKT_St17basic_string_viewIcSt11char_traitsIcEE
FN:426,_ZNK7libMesh10Parameters3getI12MaterialNameEERKT_St17basic_string_viewIcSt11char_traitsIcEE
FN:426,_ZNK7libMesh10Parameters3getItEERKT_St17basic_string_viewIcSt11char_traitsIcEE
FN:426,_ZNK7libMesh10Parameters3getIdEERKT_St17basic_string_viewIcSt11char_traitsIcEE
FN:426,_ZNK7libMesh10Parameters3getISt6vectorI12BoundaryNameSaIS3_EEEERKT_St17basic_string_viewIcSt11char_traitsIcEE
FN:426,_ZNK7libMesh10Parameters3getINSt7__cxx1112basic_stringIcSt11char_traitsIcESaIcEEEEERKT_St17basic_string_viewIcS5_E
FN:426,_ZNK7libMesh10Parameters3getISt6vectorI21NonlinearVariableNameSaIS3_EEEERKT_St17basic_string_viewIcSt11char_traitsIcEE
FN:426,_ZNK7libMesh10Parameters3getIjEERKT_St17basic_string_viewIcSt11char_traitsIcEE
FN:426,_ZNK7libMesh10Parameters3getISt6vectorI12MaterialNameSaIS3_EEEERKT_St17basic_string_viewIcSt11char_traitsIcEE
FN:426,_ZNK7libMesh10Parameters3getI20MaterialPropertyNameEERKT_St17basic_string_viewIcSt11char_traitsIcEE
FN:426,_ZNK7libMesh10Parameters3getISt6vectorI12FunctionNameSaIS3_EEEERKT_St17basic_string_viewIcSt11char_traitsIcEE
FN:458,_ZN7libMesh10Parameters6insertIdEEvRKNSt7__cxx1112basic_stringIcSt11char_traitsIcESaIcEEE
FN:458,_ZN7libMesh10Parameters6insertI12FunctionNameEEvRKNSt7__cxx1112basic_stringIcSt11char_traitsIcESaIcEEE
FN:458,_ZN7libMesh10Parameters6insertI12MaterialNameEEvRKNSt7__cxx1112basic_stringIcSt11char_traitsIcESaIcEEE
FN:458,_ZN7libMesh10Parameters6insertISt6vectorI21NonlinearVariableNameSaIS3_EEEEvRKNSt7__cxx1112basic_stringIcSt11char_traitsIcESaIcEEE
FN:458,_ZN7libMesh10Parameters6insertIjEEvRKNSt7__cxx1112basic_stringIcSt11char_traitsIcESaIcEEE
FN:458,_ZN7libMesh10Parameters6insertI17MeshGeneratorNameEEvRKNSt7__cxx1112basic_stringIcSt11char_traitsIcESaIcEEE
FN:458,_ZN7libMesh10Parameters6insertINSt7__cxx1112basic_stringIcSt11char_traitsIcESaIcEEEEEvRKS7_
FN:458,_ZN7libMesh10Parameters6insertISt6vectorI12BoundaryNameSaIS3_EEEEvRKNSt7__cxx1112basic_stringIcSt11char_traitsIcESaIcEEE
FN:458,_ZN7libMesh10Parameters6insertI14UserObjectNameEEvRKNSt7__cxx1112basic_stringIcSt11char_traitsIcESaIcEEE
FN:458,_ZN7libMesh10Parameters6insertINS_11VectorValueIdEEEEvRKNSt7__cxx1112basic_stringIcSt11char_traitsIcESaIcEEE
FN:469,_ZN7libMesh10Parameters3setIdEERT_RKNSt7__cxx1112basic_stringIcSt11char_traitsIcESaIcEEE
FN:469,_ZN7libMesh10Parameters3setISt6vectorI12MaterialNameSaIS3_EEEERT_RKNSt7__cxx1112basic_stringIcSt11char_traitsIcESaIcEEE
FN:469,_ZN7libMesh10Parameters3setI9MooseEnumEERT_RKNSt7__cxx1112basic_stringIcSt11char_traitsIcESaIcEEE
FN:469,_ZN7libMesh10Parameters3setIjEERT_RKNSt7__cxx1112basic_stringIcSt11char_traitsIcESaIcEEE
FN:469,_ZN7libMesh10Parameters3setIbEERT_RKNSt7__cxx1112basic_stringIcSt11char_traitsIcESaIcEEE
FN:469,_ZN7libMesh10Parameters3setI21NonlinearVariableNameEERT_RKNSt7__cxx1112basic_stringIcSt11char_traitsIcESaIcEEE
FN:469,_ZN7libMesh10Parameters3setItEERT_RKNSt7__cxx1112basic_stringIcSt11char_traitsIcESaIcEEE
FN:469,_ZN7libMesh10Parameters3setISt6vectorI12FunctionNameSaIS3_EEEERT_RKNSt7__cxx1112basic_stringIcSt11char_traitsIcESaIcEEE
FN:558,_ZN7libMesh12print_helperI12BoundaryNameEEvRSoPKSt6vectorIT_SaIS4_EE
FN:558,_ZN7libMesh12print_helperI21NonlinearVariableNameEEvRSoPKSt6vectorIT_SaIS4_EE
FN:558,_ZN7libMesh12print_helperI12FunctionNameEEvRSoPKSt6vectorIT_SaIS4_EE
FN:558,_ZN7libMesh12print_helperI12MaterialNameEEvRSoPKSt6vectorIT_SaIS4_EE
FNDA:0,_ZNK7libMesh10Parameters9ParameterISt6vectorI21NonlinearVariableNameSaIS3_EEE5printERSo
FNDA:0,_ZNK7libMesh10Parameters14have_parameterI20MaterialPropertyNameEEbSt17basic_string_viewIcSt11char_traitsIcEE
FNDA:0,_ZNK7libMesh10Parameters9ParameterISt6vectorI12BoundaryNameSaIS3_EEE4typeB5cxx11Ev
FNDA:0,_ZN7libMesh12print_helperI12FunctionNameEEvRSoPKSt6vectorIT_SaIS4_EE
FNDA:0,_ZNK7libMesh10Parameters9ParameterISt6vectorI12MaterialNameSaIS3_EEE5printERSo
FNDA:0,_ZNK7libMesh10Parameters9ParameterI21NonlinearVariableNameE5cloneEv
FNDA:0,_ZNK7libMesh10Parameters9ParameterINS_11VectorValueIdEEE5cloneEv
FNDA:0,_ZN7libMesh10Parameters6insertIjEEvRKNSt7__cxx1112basic_stringIcSt11char_traitsIcESaIcEEE
FNDA:0,_ZNK7libMesh10Parameters9ParameterI12FunctionNameE5cloneEv
FNDA:0,_ZN7libMesh10Parameters3setIjEERT_RKNSt7__cxx1112basic_stringIcSt11char_traitsIcESaIcEEE
FNDA:0,_ZNK7libMesh10Parameters9ParameterISt6vectorI12BoundaryNameSaIS3_EEE5cloneEv
FNDA:0,_ZNK7libMesh10Parameters9ParameterINSt7__cxx1112basic_stringIcSt11char_traitsIcESaIcEEEE4typeEv
FNDA:0,_ZN7libMesh10ParametersaSERKS0_
FNDA:0,_ZN7libMesh10Parameters3setI9MooseEnumEERT_RKNSt7__cxx1112basic_stringIcSt11char_traitsIcESaIcEEE
FNDA:0,_ZNK7libMesh10Parameters9ParameterI12MaterialNameE5cloneEv
FNDA:0,_ZN7libMesh12print_helperI21NonlinearVariableNameEEvRSoPKSt6vectorIT_SaIS4_EE
FNDA:0,_ZNK7libMesh10Parameters14have_parameterIjEEbSt17basic_string_viewIcSt11char_traitsIcEE
FNDA:0,_ZNK7libMesh10Parameters9ParameterISt6vectorI12MaterialNameSaIS3_EEE5cloneEv
FNDA:0,_ZNK7libMesh10Parameters9ParameterIbE5printERSo
FNDA:0,_ZN7libMesh10ParametersD2Ev
FNDA:0,_ZNK7libMesh10Parameters9ParameterINSt7__cxx1112basic_stringIcSt11char_traitsIcESaIcEEEE5printERSo
FNDA:0,_ZNK7libMesh10Parameters9ParameterIdE4typeB5cxx11Ev
FNDA:0,_ZNK7libMesh10Parameters14have_parameterI12FunctionNameEEbSt17basic_string_viewIcSt11char_traitsIcEE
FNDA:14,_ZN7libMesh10Parameters6insertISt6vectorI21NonlinearVariableNameSaIS3_EEEEvRKNSt7__cxx1112basic_stringIcSt11char_traitsIcESaIcEEE
FNDA:0,_ZNK7libMesh10Parameters3getISt6vectorI12BoundaryNameSaIS3_EEEERKT_St17basic_string_viewIcSt11char_traitsIcEE
FNDA:0,_ZN7libMesh10Parameters3setISt6vectorI12MaterialNameSaIS3_EEEERT_RKNSt7__cxx1112basic_stringIcSt11char_traitsIcESaIcEEE
FNDA:0,_ZNK7libMesh10Parameters9ParameterI12MaterialNameE4typeB5cxx11Ev
FNDA:0,_ZNK7libMesh10Parameters9ParameterItE5printERSo
FNDA:0,_ZN7libMesh10Parameters3setIdEERT_RKNSt7__cxx1112basic_stringIcSt11char_traitsIcESaIcEEE
FNDA:0,_ZNK7libMesh10Parameters9ParameterISt6vectorI12FunctionNameSaIS3_EEE5printERSo
FNDA:0,_ZNK7libMesh10Parameters9ParameterI12FunctionNameE5printERSo
FNDA:0,_ZNK7libMesh10Parameters3getItEERKT_St17basic_string_viewIcSt11char_traitsIcEE
FNDA:0,_ZNK7libMesh10Parameters9ParameterIP13FEProblemBaseE5printERSo
FNDA:0,_ZNK7libMesh10Parameters3getIdEERKT_St17basic_string_viewIcSt11char_traitsIcEE
FNDA:0,_ZNK7libMesh10Parameters3getI12MaterialNameEERKT_St17basic_string_viewIcSt11char_traitsIcEE
FNDA:0,_ZNK7libMesh10Parameters9ParameterIjE5printERSo
FNDA:0,_ZNK7libMesh10Parameters9ParameterINS_11VectorValueIdEEE4typeB5cxx11Ev
FNDA:0,_ZNK7libMesh10Parameters9ParameterI17MeshGeneratorNameE5printERSo
FNDA:0,_ZN7libMesh10ParametersD0Ev
FNDA:0,_ZNK7libMesh10Parameters9ParameterI21NonlinearVariableNameE4typeB5cxx11Ev
FNDA:140,_ZN7libMesh10Parameters6insertI12MaterialNameEEvRKNSt7__cxx1112basic_stringIcSt11char_traitsIcESaIcEEE
FNDA:0,_ZNK7libMesh10Parameters9ParameterI17MeshGeneratorNameE4typeB5cxx11Ev
FNDA:0,_ZNK7libMesh10Parameters3getIbEERKT_St17basic_string_viewIcSt11char_traitsIcEE
FNDA:0,_ZNK7libMesh10Parameters3getINS_11VectorValueIdEEEERKT_St17basic_string_viewIcSt11char_traitsIcEE
FNDA:0,_ZNK7libMesh10Parameters9ParameterIbE5cloneEv
FNDA:0,_ZN7libMesh10Parameters6insertI12FunctionNameEEvRKNSt7__cxx1112basic_stringIcSt11char_traitsIcESaIcEEE
FNDA:0,_ZN7libMesh12print_helperI12BoundaryNameEEvRSoPKSt6vectorIT_SaIS4_EE
FNDA:0,_ZNK7libMesh10Parameters14have_parameterItEEbSt17basic_string_viewIcSt11char_traitsIcEE
FNDA:0,_ZNK7libMesh10Parameters9ParameterI17MeshGeneratorNameE5cloneEv
FNDA:0,_ZNK7libMesh10Parameters9ParameterISt6vectorI12FunctionNameSaIS3_EEE4typeB5cxx11Ev
FNDA:0,_ZNK7libMesh10Parameters9ParameterI12MaterialNameE5printERSo
FNDA:0,_ZNK7libMesh10Parameters9ParameterISt6vectorI12MaterialNameSaIS3_EEE4typeB5cxx11Ev
FNDA:0,_ZNK7libMesh10Parameters14have_parameterI9MooseEnumEEbSt17basic_string_viewIcSt11char_traitsIcEE
FNDA:0,_ZNK7libMesh10Parameters14have_parameterI14UserObjectNameEEbSt17basic_string_viewIcSt11char_traitsIcEE
FNDA:0,_ZN7libMesh10Parameters6insertIdEEvRKNSt7__cxx1112basic_stringIcSt11char_traitsIcESaIcEEE
FNDA:0,_ZNK7libMesh10Parameters9ParameterISt6vectorI21NonlinearVariableNameSaIS3_EEE4typeB5cxx11Ev
FNDA:0,_ZNK7libMesh10Parameters9ParameterINSt7__cxx1112basic_stringIcSt11char_traitsIcESaIcEEEE5cloneEv
FNDA:0,_ZNK7libMesh10Parameters9ParameterISt6vectorI12FunctionNameSaIS3_EEE5cloneEv
FNDA:0,_ZNK7libMesh10Parameters9ParameterI9MooseEnumE4typeB5cxx11Ev
FNDA:0,_ZNK7libMesh10Parameters9ParameterI9MooseEnumE5printERSo
FNDA:0,_ZNK7libMesh10Parameters3getISt6vectorI12FunctionNameSaIS3_EEEERKT_St17basic_string_viewIcSt11char_traitsIcEE
FNDA:0,_ZNK7libMesh10Parameters9ParameterIjE5cloneEv
FNDA:0,_ZN7libMesh10Parameters5clearEv
FNDA:0,_ZNK7libMesh10Parameters3getI20MaterialPropertyNameEERKT_St17basic_string_viewIcSt11char_traitsIcEE
FNDA:0,_ZNK7libMesh10Parameters14have_parameterINSt7__cxx1112basic_stringIcSt11char_traitsIcESaIcEEEEEbSt17basic_string_viewIcS5_E
FNDA:0,_ZNK7libMesh10Parameters14have_parameterINS_11VectorValueIdEEEEbSt17basic_string_viewIcSt11char_traitsIcEE
FNDA:0,_ZN7libMesh10Parameters6insertI14UserObjectNameEEvRKNSt7__cxx1112basic_stringIcSt11char_traitsIcESaIcEEE
FNDA:0,_ZN7libMesh10Parameters6insertINS_11VectorValueIdEEEEvRKNSt7__cxx1112basic_stringIcSt11char_traitsIcESaIcEEE
FNDA:0,_ZNK7libMesh10Parameters9ParameterINS_11VectorValueIdEEE5printERSo
FNDA:0,_ZNK7libMesh10Parameters9ParameterISt6vectorI21NonlinearVariableNameSaIS3_EEE5cloneEv
FNDA:0,_ZN7libMesh10Parameters3setISt6vectorI12FunctionNameSaIS3_EEEERT_RKNSt7__cxx1112basic_stringIcSt11char_traitsIcESaIcEEE
FNDA:0,_ZNK7libMesh10Parameters9ParameterI9MooseEnumE5cloneEv
FNDA:0,_ZNK7libMesh10Parameters3getISt6vectorI12MaterialNameSaIS3_EEEERKT_St17basic_string_viewIcSt11char_traitsIcEE
FNDA:0,_ZNK7libMesh10Parameters9ParameterI14UserObjectNameE5printERSo
FNDA:0,_ZNK7libMesh10Parameters14have_parameterISt6vectorI12MaterialNameSaIS3_EEEEbSt17basic_string_viewIcSt11char_traitsIcEE
FNDA:0,_ZNK7libMesh10Parameters9ParameterIjE4typeB5cxx11Ev
FNDA:0,_ZNK7libMesh10Parameters3getIjEERKT_St17basic_string_viewIcSt11char_traitsIcEE
FNDA:140,_ZNK7libMesh10Parameters14have_parameterI12MaterialNameEEbSt17basic_string_viewIcSt11char_traitsIcEE
FNDA:0,_ZNK7libMesh10Parameters9ParameterISt6vectorI12BoundaryNameSaIS3_EEE5printERSo
FNDA:14,_ZNK7libMesh10Parameters14have_parameterISt6vectorI21NonlinearVariableNameSaIS3_EEEEbSt17basic_string_viewIcSt11char_traitsIcEE
FNDA:0,_ZNK7libMesh10Parameters9ParameterItE5cloneEv
FNDA:0,_ZN7libMesh10Parameters3setItEERT_RKNSt7__cxx1112basic_stringIcSt11char_traitsIcESaIcEEE
FNDA:0,_ZNK7libMesh10Parameters9ParameterI21NonlinearVariableNameE5printERSo
FNDA:0,_ZNK7libMesh10Parameters3getISt6vectorI21NonlinearVariableNameSaIS3_EEEERKT_St17basic_string_viewIcSt11char_traitsIcEE
FNDA:0,_ZNK7libMesh10Parameters9ParameterIdE5printERSo
FNDA:0,_ZNK7libMesh10Parameters9ParameterI12FunctionNameE4typeB5cxx11Ev
FNDA:0,_ZNK7libMesh10Parameters9ParameterI14UserObjectNameE5cloneEv
FNDA:0,_ZNK7libMesh10Parameters5printERSo
FNDA:0,_ZN7libMesh10Parameters3setI21NonlinearVariableNameEERT_RKNSt7__cxx1112basic_stringIcSt11char_traitsIcESaIcEEE
FNDA:0,_ZN7libMesh12print_helperI12MaterialNameEEvRSoPKSt6vectorIT_SaIS4_EE
FNDA:0,_ZNK7libMesh10Parameters9ParameterI14UserObjectNameE4typeB5cxx11Ev
FNDA:0,_ZNK7libMesh10Parameters14have_parameterIbEEbSt17basic_string_viewIcSt11char_traitsIcEE
FNDA:0,_ZNK7libMesh10Parameters9ParameterIdE5cloneEv
FNDA:0,_ZN7libMesh10Parameters3setIbEERT_RKNSt7__cxx1112basic_stringIcSt11char_traitsIcESaIcEEE
FNDA:0,_ZNK7libMesh10Parameters14have_parameterI21NonlinearVariableNameEEbSt17basic_string_viewIcSt11char_traitsIcEE
FNDA:0,_ZNK7libMesh10Parameters14have_parameterISt6vectorI12BoundaryNameSaIS3_EEEEbSt17basic_string_viewIcSt11char_traitsIcEE
FNDA:0,_ZN7libMesh10Parameters6insertINSt7__cxx1112basic_stringIcSt11char_traitsIcESaIcEEEEEvRKS7_
FNDA:0,_ZNK7libMesh10Parameters9ParameterItE4typeB5cxx11Ev
FNDA:0,_ZNK7libMesh10Parameters14have_parameterIdEEbSt17basic_string_viewIcSt11char_traitsIcEE
FNDA:0,_ZNK7libMesh10Parameters14have_parameterI17MeshGeneratorNameEEbSt17basic_string_viewIcSt11char_traitsIcEE
FNDA:0,_ZN7libMesh10Parameters6insertISt6vectorI12BoundaryNameSaIS3_EEEEvRKNSt7__cxx1112basic_stringIcSt11char_traitsIcESaIcEEE
FNDA:572,_ZN7libMesh10Parameters14set_attributesERKNSt7__cxx1112basic_stringIcSt11char_traitsIcESaIcEEEb
FNDA:0,_ZNK7libMesh10Parameters9ParameterIbE4typeB5cxx11Ev
FNDA:0,_ZNK7libMesh10Parameters3getINSt7__cxx1112basic_stringIcSt11char_traitsIcESaIcEEEEERKT_St17basic_string_viewIcS5_E
FNDA:0,_ZNK7libMesh10Parameters14have_parameterISt6vectorI12FunctionNameSaIS3_EEEEbSt17basic_string_viewIcSt11char_traitsIcEE
FNDA:0,_ZN7libMesh10ParameterspLERKS0_
FNDA:0,_ZN7libMesh10Parameters6insertI17MeshGeneratorNameEEvRKNSt7__cxx1112basic_stringIcSt11char_traitsIcESaIcEEE
FNDA:0,_ZNK7libMesh10Parameters9ParameterIP13FEProblemBaseE4typeB5cxx11Ev
FNDA:0,_ZNK7libMesh10Parameters9ParameterIP13FEProblemBaseE5cloneEv
FNF:109
FNH:5
DA:85,26
DA:138,572
DA:206,154
DA:213,0
DA:218,0
DA:295,0
DA:297,0
DA:303,0
DA:306,0
DA:307,0
DA:311,0
DA:313,0
DA:315,0
DA:317,0
DA:318,0
DA:324,0
DA:327,0
DA:332,0
DA:335,0
DA:337,0
DA:341,0
DA:344,0
DA:345,0
DA:347,0
DA:360,0
DA:365,0
DA:366,0
DA:370,0
DA:372,0
DA:373,0
DA:377,0
DA:387,0
DA:388,0
DA:395,154
DA:399,154
DA:403,0
DA:404,0
DA:426,0
DA:428,0
DA:430,0
DA:432,0
DA:434,0
DA:438,0
DA:441,0
DA:442,0
DA:453,0
DA:458,154
DA:460,154
DA:461,154
DA:463,154
DA:464,154
DA:469,0
DA:471,0
DA:472,0
DA:474,0
DA:477,0
DA:480,0
DA:537,0
DA:558,0
DA:560,0
DA:561,0
DA:562,0
LF:62
LH:10
end_of_record
TN:
SF:/usr/share/miniconda3/envs/moose/libmesh/include/libmesh/reference_counter.h
FNF:0
FNH:0
DA:152,366
DA:173,0
LF:2
LH:1
end_of_record
TN:
SF:/usr/share/miniconda3/envs/moose/libmesh/include/libmesh/remote_elem.h
FN:101,_ZN7libMesh10RemoteElem8set_nodeEj
FN:137,_ZNK7libMesh10RemoteElem7n_nodesEv
FN:140,_ZNK7libMesh10RemoteElem7n_sidesEv
FN:155,_ZNK7libMesh10RemoteElem9is_vertexEj
FN:168,_ZNK7libMesh10RemoteElem13nodes_on_sideEj
FN:216,_ZNK7libMesh10RemoteElem13default_orderEv
FNDA:0,_ZNK7libMesh10RemoteElem9is_vertexEj
FNDA:0,_ZNK7libMesh10RemoteElem7n_nodesEv
FNDA:0,_ZNK7libMesh10RemoteElem13nodes_on_sideEj
FNDA:0,_ZN7libMesh10RemoteElem8set_nodeEj
FNDA:0,_ZNK7libMesh10RemoteElem7n_sidesEv
FNDA:0,_ZNK7libMesh10RemoteElem13default_orderEv
FNF:6
FNH:0
DA:101,0
DA:102,0
DA:137,0
DA:138,0
DA:140,0
DA:141,0
DA:155,0
DA:156,0
DA:168,0
DA:169,0
DA:216,0
DA:217,0
LF:12
LH:0
end_of_record
TN:
SF:/usr/share/miniconda3/envs/moose/libmesh/include/libmesh/replicated_mesh.h
FN:128,_ZNK7libMesh14ReplicatedMesh7n_nodesEv
FN:250,_ZN7libMesh14ReplicatedMesh24active_element_ptr_rangeEv
FNDA:0,_ZN7libMesh14ReplicatedMesh24active_element_ptr_rangeEv
FNDA:0,_ZNK7libMesh14ReplicatedMesh7n_nodesEv
FNF:2
FNH:0
DA:128,0
DA:129,0
DA:250,0
LF:3
LH:0
end_of_record
TN:
SF:/usr/share/miniconda3/envs/moose/libmesh/include/libmesh/simple_range.h
FN:39,_ZN7libMesh11SimpleRangeINS_8MeshBase16element_iteratorEEC2ES2_S2_
FNDA:0,_ZN7libMesh11SimpleRangeINS_8MeshBase16element_iteratorEEC2ES2_S2_
FNF:1
FNH:0
DA:39,0
DA:43,5
LF:2
LH:1
end_of_record
TN:
SF:/usr/share/miniconda3/envs/moose/libmesh/include/libmesh/tensor_tools.h
FNF:0
FNH:0
DA:105,44741
LF:1
LH:1
end_of_record
TN:
SF:/usr/share/miniconda3/envs/moose/libmesh/include/libmesh/tensor_value.h
FNF:0
FNH:0
DA:44,44656
DA:261,966658
DA:262,966658
DA:304,2473876
DA:305,6644220
LF:5
LH:5
end_of_record
TN:
SF:/usr/share/miniconda3/envs/moose/libmesh/include/libmesh/threads_pthread.h
FN:147,_ZN7libMesh7Threads10spin_mutexD2Ev
FN:502,_ZN7libMesh7Threads6atomicIjEppEv
FN:516,_ZN7libMesh7Threads6atomicIjEmmEv
FNDA:366,_ZN7libMesh7Threads6atomicIjEppEv
FNDA:0,_ZN7libMesh7Threads6atomicIjEmmEv
FNDA:0,_ZN7libMesh7Threads10spin_mutexD2Ev
FNF:3
FNH:1
DA:147,0
DA:149,226
DA:150,226
DA:502,366
DA:505,366
DA:506,366
DA:516,0
DA:519,0
DA:520,0
LF:9
LH:5
end_of_record
TN:
SF:/usr/share/miniconda3/envs/moose/libmesh/include/libmesh/type_tensor.h
FN:510,_ZN7libMesh10TypeTensorIN11MetaPhysicL10DualNumberIdNS1_28SemiDynamicSparseNumberArrayIdmNS1_8NWrapperILm64EEEEELb1EEEEC2Ev
FN:533,_ZN7libMesh10TypeTensorIN11MetaPhysicL10DualNumberIdNS1_28SemiDynamicSparseNumberArrayIdmNS1_8NWrapperILm64EEEEELb1EEEEC2ERKS7_SA_SA_SA_SA_SA_SA_SA_SA_
FN:628,_ZN7libMesh10TypeTensorIN11MetaPhysicL10DualNumberIdNS1_28SemiDynamicSparseNumberArrayIdmNS1_8NWrapperILm64EEEEELb1EEEEC2IdEERKNS0_IT_EE
FN:765,_ZNK7libMesh10TypeTensorIN11MetaPhysicL10DualNumberIdNS1_28SemiDynamicSparseNumberArrayIdmNS1_8NWrapperILm64EEEEELb1EEEE3rowEj
FN:794,_ZNK7libMesh10TypeTensorIN11MetaPhysicL10DualNumberIdNS1_28SemiDynamicSparseNumberArrayIdmNS1_8NWrapperILm64EEEEELb1EEEEplIS7_EENS0_INS_12CompareTypesIS7_T_E9supertypeEEERKNS0_ISB_EE
FN:864,_ZNK7libMesh10TypeTensorIN11MetaPhysicL10DualNumberIdNS1_28SemiDynamicSparseNumberArrayIdmNS1_8NWrapperILm64EEEEELb1EEEEmiIdEENS0_INS_12CompareTypesIS7_T_E9supertypeEEERKNS0_ISB_EE
FN:864,_ZNK7libMesh10TypeTensorIN11MetaPhysicL10DualNumberIdNS1_28SemiDynamicSparseNumberArrayIdmNS1_8NWrapperILm64EEEEELb1EEEEmiIS7_EENS0_INS_12CompareTypesIS7_T_E9supertypeEEERKNS0_ISB_EE
FN:965,_ZNK7libMesh10TypeTensorIN11MetaPhysicL10DualNumberIdNS1_28SemiDynamicSparseNumberArrayIdmNS1_8NWrapperILm64EEEEELb1EEEEmlIS7_EENS_9boostcopy11enable_if_cIXsrNS_12ScalarTraitsIT_EE5valueENS0_IDTmlcvS7__Efp_EEEE4typeERKSD_
FN:965,_ZNK7libMesh10TypeTensorIN11MetaPhysicL10DualNumberIdNS1_28SemiDynamicSparseNumberArrayIdmNS1_8NWrapperILm64EEEEELb1EEEEmlIdEENS_9boostcopy11enable_if_cIXsrNS_12ScalarTraitsIT_EE5valueENS0_IDTmlcvS7__Efp_EEEE4typeERKSD_
FN:1015,_ZNK7libMesh10TypeTensorIN11MetaPhysicL10DualNumberIdNS1_28SemiDynamicSparseNumberArrayIdmNS1_8NWrapperILm64EEEEELb1EEEEdvIdEENS_9boostcopy11enable_if_cIXsrNS_12ScalarTraitsIT_EE5valueENS0_INS_12CompareTypesIS7_SD_E9supertypeEEEE4typeERKSD_
FN:1015,_ZNK7libMesh10TypeTensorIN11MetaPhysicL10DualNumberIdNS1_28SemiDynamicSparseNumberArrayIdmNS1_8NWrapperILm64EEEEELb1EEEEdvIS7_EENS_9boostcopy11enable_if_cIXsrNS_12ScalarTraitsIT_EE5valueENS0_INS_12CompareTypesIS7_SD_E9supertypeEEEE4typeERKSD_
FN:1197,_ZNK7libMesh10TypeTensorIN11MetaPhysicL10DualNumberIdNS1_28SemiDynamicSparseNumberArrayIdmNS1_8NWrapperILm64EEEEELb1EEEEmlIdEENS_10TypeVectorINS_12CompareTypesIS7_T_E9supertypeEEERKNSA_ISC_EE
FN:1197,_ZNK7libMesh10TypeTensorIdEmlIN11MetaPhysicL10DualNumberIdNS3_28SemiDynamicSparseNumberArrayIdmNS3_8NWrapperILm64EEEEELb1EEEEENS_10TypeVectorINS_12CompareTypesIdT_E9supertypeEEERKNSA_ISC_EE
FN:1233,_ZNK7libMesh10TypeTensorIdEmlIN11MetaPhysicL10DualNumberIdNS3_28SemiDynamicSparseNumberArrayIdmNS3_8NWrapperILm64EEEEELb1EEEEENS0_INS_12CompareTypesIdT_E9supertypeEEERKNS0_ISB_EE
FN:1233,_ZNK7libMesh10TypeTensorIdEmlIdEENS0_INS_12CompareTypesIdT_E9supertypeEEERKNS0_IS4_EE
FN:1233,_ZNK7libMesh10TypeTensorIN11MetaPhysicL10DualNumberIdNS1_28SemiDynamicSparseNumberArrayIdmNS1_8NWrapperILm64EEEEELb1EEEEmlIS7_EENS0_INS_12CompareTypesIS7_T_E9supertypeEEERKNS0_ISB_EE
FN:1338,_ZN7libMesh10TypeTensorIN11MetaPhysicL10DualNumberIdNS1_28SemiDynamicSparseNumberArrayIdmNS1_8NWrapperILm64EEEEELb1EEEE4zeroEv
FNDA:2797542,_ZNK7libMesh10TypeTensorIN11MetaPhysicL10DualNumberIdNS1_28SemiDynamicSparseNumberArrayIdmNS1_8NWrapperILm64EEEEELb1EEEEplIS7_EENS0_INS_12CompareTypesIS7_T_E9supertypeEEERKNS0_ISB_EE
FNDA:0,_ZN7libMesh10TypeTensorIN11MetaPhysicL10DualNumberIdNS1_28SemiDynamicSparseNumberArrayIdmNS1_8NWrapperILm64EEEEELb1EEEEC2Ev
FNDA:0,_ZNK7libMesh10TypeTensorIdEmlIdEENS0_INS_12CompareTypesIdT_E9supertypeEEERKNS0_IS4_EE
FNDA:0,_ZNK7libMesh10TypeTensorIN11MetaPhysicL10DualNumberIdNS1_28SemiDynamicSparseNumberArrayIdmNS1_8NWrapperILm64EEEEELb1EEEEmlIS7_EENS0_INS_12CompareTypesIS7_T_E9supertypeEEERKNS0_ISB_EE
FNDA:288480,_ZNK7libMesh10TypeTensorIN11MetaPhysicL10DualNumberIdNS1_28SemiDynamicSparseNumberArrayIdmNS1_8NWrapperILm64EEEEELb1EEEEdvIS7_EENS_9boostcopy11enable_if_cIXsrNS_12ScalarTraitsIT_EE5valueENS0_INS_12CompareTypesIS7_SD_E9supertypeEEEE4typeERKSD_
FNDA:161074,_ZNK7libMesh10TypeTensorIdEmlIN11MetaPhysicL10DualNumberIdNS3_28SemiDynamicSparseNumberArrayIdmNS3_8NWrapperILm64EEEEELb1EEEEENS_10TypeVectorINS_12CompareTypesIdT_E9supertypeEEERKNSA_ISC_EE
FNDA:966658,_ZN7libMesh10TypeTensorIN11MetaPhysicL10DualNumberIdNS1_28SemiDynamicSparseNumberArrayIdmNS1_8NWrapperILm64EEEEELb1EEEEC2IdEERKNS0_IT_EE
FNDA:932514,_ZNK7libMesh10TypeTensorIN11MetaPhysicL10DualNumberIdNS1_28SemiDynamicSparseNumberArrayIdmNS1_8NWrapperILm64EEEEELb1EEEEmiIdEENS0_INS_12CompareTypesIS7_T_E9supertypeEEERKNS0_ISB_EE
FNDA:6642860,_ZN7libMesh10TypeTensorIN11MetaPhysicL10DualNumberIdNS1_28SemiDynamicSparseNumberArrayIdmNS1_8NWrapperILm64EEEEELb1EEEEC2ERKS7_SA_SA_SA_SA_SA_SA_SA_SA_
FNDA:482912,_ZN7libMesh10TypeTensorIN11MetaPhysicL10DualNumberIdNS1_28SemiDynamicSparseNumberArrayIdmNS1_8NWrapperILm64EEEEELb1EEEE4zeroEv
FNDA:10675464,_ZNK7libMesh10TypeTensorIN11MetaPhysicL10DualNumberIdNS1_28SemiDynamicSparseNumberArrayIdmNS1_8NWrapperILm64EEEEELb1EEEE3rowEj
FNDA:5984,_ZNK7libMesh10TypeTensorIN11MetaPhysicL10DualNumberIdNS1_28SemiDynamicSparseNumberArrayIdmNS1_8NWrapperILm64EEEEELb1EEEEmlIdEENS_10TypeVectorINS_12CompareTypesIS7_T_E9supertypeEEERKNSA_ISC_EE
FNDA:448768,_ZNK7libMesh10TypeTensorIN11MetaPhysicL10DualNumberIdNS1_28SemiDynamicSparseNumberArrayIdmNS1_8NWrapperILm64EEEEELb1EEEEmlIS7_EENS_9boostcopy11enable_if_cIXsrNS_12ScalarTraitsIT_EE5valueENS0_IDTmlcvS7__Efp_EEEE4typeERKSD_
FNDA:2155076,_ZNK7libMesh10TypeTensorIN11MetaPhysicL10DualNumberIdNS1_28SemiDynamicSparseNumberArrayIdmNS1_8NWrapperILm64EEEEELb1EEEEmlIdEENS_9boostcopy11enable_if_cIXsrNS_12ScalarTraitsIT_EE5valueENS0_IDTmlcvS7__Efp_EEEE4typeERKSD_
FNDA:0,_ZNK7libMesh10TypeTensorIdEmlIN11MetaPhysicL10DualNumberIdNS3_28SemiDynamicSparseNumberArrayIdmNS3_8NWrapperILm64EEEEELb1EEEEENS0_INS_12CompareTypesIdT_E9supertypeEEERKNS0_ISB_EE
FNDA:20480,_ZNK7libMesh10TypeTensorIN11MetaPhysicL10DualNumberIdNS1_28SemiDynamicSparseNumberArrayIdmNS1_8NWrapperILm64EEEEELb1EEEEdvIdEENS_9boostcopy11enable_if_cIXsrNS_12ScalarTraitsIT_EE5valueENS0_INS_12CompareTypesIS7_SD_E9supertypeEEEE4typeERKSD_
FNDA:0,_ZNK7libMesh10TypeTensorIN11MetaPhysicL10DualNumberIdNS1_28SemiDynamicSparseNumberArrayIdmNS1_8NWrapperILm64EEEEELb1EEEEmiIS7_EENS0_INS_12CompareTypesIS7_T_E9supertypeEEERKNS0_ISB_EE
FNF:17
FNH:12
DA:510,0
DA:512,0
DA:515,0
DA:516,0
DA:517,0
DA:521,0
DA:522,0
DA:523,0
DA:524,0
DA:525,4
DA:527,0
DA:533,6642860
DA:541,66428600
DA:543,6642860
DA:557,6642860
DA:558,6642860
DA:559,6642860
DA:560,6642860
DA:561,6642860
DA:562,6642860
DA:563,6642860
DA:564,6644220
DA:573,6642860
DA:628,9666580
DA:631,9666580
DA:632,8699922
DA:633,966658
DA:689,2624324
DA:718,1503522
DA:738,0
DA:765,10675464
DA:767,10675464
DA:769,42701856
DA:770,32026392
DA:772,10675464
DA:794,2797542
DA:810,2797542
DA:811,2797542
DA:812,2797542
DA:813,2797542
DA:814,2797542
DA:815,2797542
DA:816,2797542
DA:817,2797542
DA:818,5595084
DA:864,932514
DA:880,932514
DA:881,932514
DA:882,932514
DA:883,932514
DA:884,932514
DA:885,932514
DA:886,932514
DA:887,932514
DA:888,1865028
DA:965,2603844
DA:984,2603844
DA:985,2603844
DA:986,2603844
DA:987,2603844
DA:988,2603844
DA:989,2603844
DA:990,2603844
DA:991,2603844
DA:992,5207688
DA:1006,2603844
DA:1015,308960
DA:1033,308960
DA:1034,308960
DA:1035,308960
DA:1036,308960
DA:1037,308960
DA:1038,308960
DA:1039,308960
DA:1040,308960
DA:1041,617920
DA:1197,167058
DA:1199,167058
DA:1200,668232
DA:1201,2004696
DA:1202,1503522
DA:1204,167058
DA:1233,0
DA:1235,0
DA:1236,0
DA:1237,0
DA:1238,0
DA:1239,0
DA:1241,0
DA:1338,482912
DA:1340,4829120
DA:1341,4346208
DA:1342,482912
LF:93
LH:75
end_of_record
TN:
SF:/usr/share/miniconda3/envs/moose/libmesh/include/libmesh/type_vector.h
FN:131,_ZN7libMesh10TypeVectorIN11MetaPhysicL10DualNumberIdNS1_28SemiDynamicSparseNumberArrayIdmNS1_8NWrapperILm64EEEEELb1EEEEC2ERKS8_
FN:427,_ZN7libMesh10TypeVectorIN11MetaPhysicL10DualNumberIdNS1_28SemiDynamicSparseNumberArrayIdmNS1_8NWrapperILm64EEEEELb1EEEEC2Ev
FN:444,_ZN7libMesh10TypeVectorIN11MetaPhysicL10DualNumberIdNS1_28SemiDynamicSparseNumberArrayIdmNS1_8NWrapperILm64EEEEELb1EEEEC2ERKS7_SA_SA_
FN:520,_ZN7libMesh10TypeVectorIN11MetaPhysicL10DualNumberIdNS1_28SemiDynamicSparseNumberArrayIdmNS1_8NWrapperILm64EEEEELb1EEEEC2IdEERKNS0_IT_EE
FN:566,_ZNK7libMesh10TypeVectorIdEplIN11MetaPhysicL10DualNumberIdNS3_28SemiDynamicSparseNumberArrayIdmNS3_8NWrapperILm64EEEEELb1EEEEENS0_INS_12CompareTypesIdT_E9supertypeEEERKNS0_ISB_EE
FN:652,_ZNK7libMesh10TypeVectorIN11MetaPhysicL10DualNumberIdNS1_28SemiDynamicSparseNumberArrayIdmNS1_8NWrapperILm64EEEEELb1EEEEmiIS7_EENS0_INS_12CompareTypesIS7_T_E9supertypeEEERKNS0_ISB_EE
FN:739,_ZNK7libMesh10TypeVectorIdEmlIN11MetaPhysicL10DualNumberIdNS3_28SemiDynamicSparseNumberArrayIdmNS3_8NWrapperILm64EEEEELb1EEEEENS_9boostcopy11enable_if_cIXsrNS_12ScalarTraitsIT_EE5valueENS0_INS_12CompareTypesIdSD_E9supertypeEEEE4typeERKSD_
FN:739,_ZNK7libMesh10TypeVectorIN11MetaPhysicL10DualNumberIdNS1_28SemiDynamicSparseNumberArrayIdmNS1_8NWrapperILm64EEEEELb1EEEEmlIS7_EENS_9boostcopy11enable_if_cIXsrNS_12ScalarTraitsIT_EE5valueENS0_INS_12CompareTypesIS7_SD_E9supertypeEEEE4typeERKSD_
FN:804,_ZNK7libMesh10TypeVectorIN11MetaPhysicL10DualNumberIdNS1_28SemiDynamicSparseNumberArrayIdmNS1_8NWrapperILm64EEEEELb1EEEEdvIS7_EENS_9boostcopy11enable_if_cIXsrNS_12ScalarTraitsIT_EE5valueENS0_INS_12CompareTypesIS7_SD_E9supertypeEEEE4typeERKSD_
FN:850,_ZNK7libMesh10TypeVectorIN11MetaPhysicL10DualNumberIdNS1_28SemiDynamicSparseNumberArrayIdmNS1_8NWrapperILm64EEEEELb1EEEEmlIS7_EENS_12CompareTypesIS7_T_E9supertypeERKNS0_ISB_EE
FN:850,_ZNK7libMesh10TypeVectorIN11MetaPhysicL10DualNumberIdNS1_28SemiDynamicSparseNumberArrayIdmNS1_8NWrapperILm64EEEEELb1EEEEmlIdEENS_12CompareTypesIS7_T_E9supertypeERKNS0_ISB_EE
FN:905,_ZNK7libMesh10TypeVectorIN11MetaPhysicL10DualNumberIdNS1_28SemiDynamicSparseNumberArrayIdmNS1_8NWrapperILm64EEEEELb1EEEE4normEv
FN:905,_ZNK7libMesh10TypeVectorIdE4normEv
FN:914,_ZN7libMesh10TypeVectorIN11MetaPhysicL10DualNumberIdNS1_28SemiDynamicSparseNumberArrayIdmNS1_8NWrapperILm64EEEEELb1EEEE4zeroEv
FN:924,_ZNK7libMesh10TypeVectorIN11MetaPhysicL10DualNumberIdNS1_28SemiDynamicSparseNumberArrayIdmNS1_8NWrapperILm64EEEEELb1EEEE7norm_sqEv
FNDA:451184,_ZNK7libMesh10TypeVectorIN11MetaPhysicL10DualNumberIdNS1_28SemiDynamicSparseNumberArrayIdmNS1_8NWrapperILm64EEEEELb1EEEEmlIS7_EENS_9boostcopy11enable_if_cIXsrNS_12ScalarTraitsIT_EE5valueENS0_INS_12CompareTypesIS7_SD_E9supertypeEEEE4typeERKSD_
FNDA:2992,_ZNK7libMesh10TypeVectorIdEmlIN11MetaPhysicL10DualNumberIdNS3_28SemiDynamicSparseNumberArrayIdmNS3_8NWrapperILm64EEEEELb1EEEEENS_9boostcopy11enable_if_cIXsrNS_12ScalarTraitsIT_EE5valueENS0_INS_12CompareTypesIdSD_E9supertypeEEEE4typeERKSD_
FNDA:11358904,_ZN7libMesh10TypeVectorIN11MetaPhysicL10DualNumberIdNS1_28SemiDynamicSparseNumberArrayIdmNS1_8NWrapperILm64EEEEELb1EEEEC2ERKS8_
FNDA:2575,_ZNK7libMesh10TypeVectorIdE4normEv
FNDA:27598,_ZNK7libMesh10TypeVectorIN11MetaPhysicL10DualNumberIdNS1_28SemiDynamicSparseNumberArrayIdmNS1_8NWrapperILm64EEEEELb1EEEEmlIdEENS_12CompareTypesIS7_T_E9supertypeERKNS0_ISB_EE
FNDA:10842528,_ZN7libMesh10TypeVectorIN11MetaPhysicL10DualNumberIdNS1_28SemiDynamicSparseNumberArrayIdmNS1_8NWrapperILm64EEEEELb1EEEEC2Ev
FNDA:612762,_ZN7libMesh10TypeVectorIN11MetaPhysicL10DualNumberIdNS1_28SemiDynamicSparseNumberArrayIdmNS1_8NWrapperILm64EEEEELb1EEEEC2ERKS7_SA_SA_
FNDA:27106,_ZNK7libMesh10TypeVectorIN11MetaPhysicL10DualNumberIdNS1_28SemiDynamicSparseNumberArrayIdmNS1_8NWrapperILm64EEEEELb1EEEEdvIS7_EENS_9boostcopy11enable_if_cIXsrNS_12ScalarTraitsIT_EE5valueENS0_INS_12CompareTypesIS7_SD_E9supertypeEEEE4typeERKSD_
FNDA:4384,_ZN7libMesh10TypeVectorIN11MetaPhysicL10DualNumberIdNS1_28SemiDynamicSparseNumberArrayIdmNS1_8NWrapperILm64EEEEELb1EEEEC2IdEERKNS0_IT_EE
FNDA:42168,_ZNK7libMesh10TypeVectorIN11MetaPhysicL10DualNumberIdNS1_28SemiDynamicSparseNumberArrayIdmNS1_8NWrapperILm64EEEEELb1EEEE7norm_sqEv
FNDA:42168,_ZNK7libMesh10TypeVectorIN11MetaPhysicL10DualNumberIdNS1_28SemiDynamicSparseNumberArrayIdmNS1_8NWrapperILm64EEEEELb1EEEE4normEv
FNDA:0,_ZN7libMesh10TypeVectorIN11MetaPhysicL10DualNumberIdNS1_28SemiDynamicSparseNumberArrayIdmNS1_8NWrapperILm64EEEEELb1EEEE4zeroEv
FNDA:10675464,_ZNK7libMesh10TypeVectorIN11MetaPhysicL10DualNumberIdNS1_28SemiDynamicSparseNumberArrayIdmNS1_8NWrapperILm64EEEEELb1EEEEmlIS7_EENS_12CompareTypesIS7_T_E9supertypeERKNS0_ISB_EE
FNDA:2992,_ZNK7libMesh10TypeVectorIN11MetaPhysicL10DualNumberIdNS1_28SemiDynamicSparseNumberArrayIdmNS1_8NWrapperILm64EEEEELb1EEEEmiIS7_EENS0_INS_12CompareTypesIS7_T_E9supertypeEEERKNS0_ISB_EE
FNDA:89312,_ZNK7libMesh10TypeVectorIdEplIN11MetaPhysicL10DualNumberIdNS3_28SemiDynamicSparseNumberArrayIdmNS3_8NWrapperILm64EEEEELb1EEEEENS0_INS_12CompareTypesIdT_E9supertypeEEERKNS0_ISB_EE
FNF:15
FNH:14
DA:131,45435616
DA:136,10911292
DA:397,0
DA:427,43370112
DA:429,10842528
DA:432,10842528
DA:436,10846918
DA:438,10842528
DA:444,658744
DA:446,2451048
DA:448,615448
DA:451,615448
DA:458,657023
DA:463,612762
DA:520,17536
DA:523,17536
DA:524,13152
DA:525,4384
DA:546,34575280
DA:557,3798914
DA:566,89312
DA:579,89312
DA:580,89312
DA:581,178624
DA:652,2992
DA:666,6434
DA:667,6434
DA:668,7705
DA:692,108424
DA:693,81318
DA:739,454176
DA:753,454176
DA:754,454176
DA:755,908352
DA:769,454176
DA:804,27106
DA:820,27111
DA:821,27111
DA:822,54217
DA:837,0
DA:838,0
DA:850,10703062
DA:862,10704778
DA:863,10704778
DA:864,10732376
DA:905,44743
DA:907,44743
DA:914,0
DA:916,0
DA:917,0
DA:918,0
DA:924,42168
DA:936,44741
DA:937,42168
DA:938,86909
LF:55
LH:48
end_of_record
TN:
SF:/usr/share/miniconda3/envs/moose/libmesh/include/libmesh/variant_filter_iterator.h
FN:344,_ZN23variant_filter_iteratorIN7libMesh10Predicates15multi_predicateEPNS0_4ElemERS4_PS4_KS4_RS7_PS7_EC2ERKSA_
FN:373,_ZN23variant_filter_iteratorIN7libMesh10Predicates15multi_predicateEPNS0_4ElemERS4_PS4_KS4_RS7_PS7_ED2Ev
FN:373,_ZN23variant_filter_iteratorIN7libMesh10Predicates15multi_predicateEPNS0_4ElemERS4_PS4_KS4_RS7_PS7_ED0Ev
FN:394,_ZN23variant_filter_iteratorIN7libMesh10Predicates15multi_predicateEPNS0_4ElemERS4_PS4_KS4_RS7_PS7_EppEv
FN:454,_ZN23variant_filter_iteratorIN7libMesh10Predicates15multi_predicateEPNS0_4ElemERS4_PS4_KS4_RS7_PS7_E17satisfy_predicateEv
FNDA:1190,_ZN23variant_filter_iteratorIN7libMesh10Predicates15multi_predicateEPNS0_4ElemERS4_PS4_KS4_RS7_PS7_EppEv
FNDA:20,_ZN23variant_filter_iteratorIN7libMesh10Predicates15multi_predicateEPNS0_4ElemERS4_PS4_KS4_RS7_PS7_ED2Ev
FNDA:1190,_ZN23variant_filter_iteratorIN7libMesh10Predicates15multi_predicateEPNS0_4ElemERS4_PS4_KS4_RS7_PS7_E17satisfy_predicateEv
FNDA:10,_ZN23variant_filter_iteratorIN7libMesh10Predicates15multi_predicateEPNS0_4ElemERS4_PS4_KS4_RS7_PS7_EC2ERKSA_
FNDA:0,_ZN23variant_filter_iteratorIN7libMesh10Predicates15multi_predicateEPNS0_4ElemERS4_PS4_KS4_RS7_PS7_ED0Ev
FNF:5
FNH:4
DA:344,10
DA:345,10
DA:346,10
DA:347,20
DA:373,20
DA:380,1190
DA:394,1190
DA:396,1190
DA:397,1190
DA:398,1190
DA:418,1195
DA:454,1190
DA:456,1190
DA:457,0
DA:458,1190
LF:15
LH:14
end_of_record
TN:
SF:/usr/share/miniconda3/envs/moose/libmesh/include/libmesh/vector_value.h
FNF:0
FNH:0
DA:47,10928546
DA:131,0
DA:150,6
DA:151,6
DA:158,39176
DA:161,39176
DA:198,4384
DA:199,4384
DA:208,10955160
DA:209,11403560
DA:211,8768
DA:262,0
DA:263,0
LF:13
LH:10
end_of_record
TN:
SF:/usr/share/miniconda3/envs/moose/libmesh/include/metaphysicl/dualnumber.h
FN:75,_ZNK11MetaPhysicL10DualNumberIdNS_28SemiDynamicSparseNumberArrayIdmNS_8NWrapperILm64EEEEELb1EEngEv
FN:99,_ZN11MetaPhysicL10DualNumberIdNS_28SemiDynamicSparseNumberArrayIdmNS_8NWrapperILm64EEEEELb1EEaSERKS5_
FN:113,_ZN11MetaPhysicL10DualNumberIdNS_28SemiDynamicSparseNumberArrayIdmNS_8NWrapperILm64EEEEELb1EEaSEOS5_
FN:140,_ZN11MetaPhysicL10DualNumberIdNS_28SemiDynamicSparseNumberArrayIdmNS_8NWrapperILm64EEEEELb1EEC2ERKS5_
FN:150,_ZN11MetaPhysicL10DualNumberIdNS_28SemiDynamicSparseNumberArrayIdmNS_8NWrapperILm64EEEEELb1EEC2EOS5_
FN:193,_ZN11MetaPhysicL10DualNumberIdNS_28SemiDynamicSparseNumberArrayIdmNS_8NWrapperILm64EEEEELb1EEaSIdEERS5_RKT_
FN:220,_ZN11MetaPhysicL10DualNumberIdNS_28SemiDynamicSparseNumberArrayIdmNS_8NWrapperILm64EEEEELb1EEC2IiEERKT_NSt9enable_ifIXsrSt14is_convertibleIS7_dE5valueEPvE4typeE
FN:220,_ZN11MetaPhysicL10DualNumberIdNS_28SemiDynamicSparseNumberArrayIdmNS_8NWrapperILm64EEEEELb1EEC2IdEERKT_NSt9enable_ifIXsrSt14is_convertibleIS7_dE5valueEPvE4typeE
FN:230,_ZN11MetaPhysicL10DualNumberIdNS_28SemiDynamicSparseNumberArrayIdmNS_8NWrapperILm64EEEEELb1EEC2IdiEERKT_RKT0_
FN:230,_ZN11MetaPhysicL10DualNumberIdNS_28SemiDynamicSparseNumberArrayIdmNS_8NWrapperILm64EEEEELb1EEC2IdS4_EERKT_RKT0_
FN:265,_ZN11MetaPhysicL26derivative_multiply_helperIdNS_28SemiDynamicSparseNumberArrayIdmNS_8NWrapperILm64EEEEELb1EEEvRNS_10DualNumberIT_T0_XT1_EEERKS8_
FN:316,_ZN11MetaPhysicL26derivative_division_helperIdNS_28SemiDynamicSparseNumberArrayIdmNS_8NWrapperILm64EEEEELb1EEEvRNS_10DualNumberIT_T0_XT1_EEERKS8_
FN:470,_ZN11MetaPhysicL10DualNumberIdNS_28SemiDynamicSparseNumberArrayIdmNS_8NWrapperILm64EEEEELb1EEpLIdS4_EERS5_RKNS0_IT_T0_Lb1EEE
FN:472,_ZN11MetaPhysicL10DualNumberIdNS_28SemiDynamicSparseNumberArrayIdmNS_8NWrapperILm64EEEEELb1EEmIIdS4_EERS5_RKNS0_IT_T0_Lb1EEE
FN:474,_ZN11MetaPhysicL10DualNumberIdNS_28SemiDynamicSparseNumberArrayIdmNS_8NWrapperILm64EEEEELb1EEmLIdEERS5_RKT_
FN:474,_ZN11MetaPhysicL10DualNumberIdNS_28SemiDynamicSparseNumberArrayIdmNS_8NWrapperILm64EEEEELb1EEmLIdS4_EERS5_RKNS0_IT_T0_Lb1EEE
FN:479,_ZN11MetaPhysicL10DualNumberIdNS_28SemiDynamicSparseNumberArrayIdmNS_8NWrapperILm64EEEEELb1EEdVIdEERS5_RKT_
FN:479,_ZN11MetaPhysicL10DualNumberIdNS_28SemiDynamicSparseNumberArrayIdmNS_8NWrapperILm64EEEEELb1EEdVIdS4_EERS5_RKNS0_IT_T0_Lb1EEE
FN:640,_ZSt4sqrtIdN11MetaPhysicL28SemiDynamicSparseNumberArrayIdmNS0_8NWrapperILm64EEEEELb1EENS0_10DualNumberIT_T0_XT1_EEEOS8_
FN:640,_ZSt4sqrtIdN11MetaPhysicL28SemiDynamicSparseNumberArrayIdmNS0_8NWrapperILm64EEEEELb1EENS0_10DualNumberIT_T0_XT1_EEERKS8_
FN:641,_ZSt3expIdN11MetaPhysicL28SemiDynamicSparseNumberArrayIdmNS0_8NWrapperILm64EEEEELb1EENS0_10DualNumberIT_T0_XT1_EEEOS8_
FN:653,_ZSt3absIdN11MetaPhysicL28SemiDynamicSparseNumberArrayIdmNS0_8NWrapperILm64EEEEELb1EENS0_10DualNumberIT_T0_XT1_EEEOS8_
FN:653,_ZSt3absIdN11MetaPhysicL28SemiDynamicSparseNumberArrayIdmNS0_8NWrapperILm64EEEEELb1EENS0_10DualNumberIT_T0_XT1_EEERKS8_
FN:655,_ZSt4normIdN11MetaPhysicL28SemiDynamicSparseNumberArrayIdmNS0_8NWrapperILm64EEEEELb1EENS0_10DualNumberIT_T0_XT1_EEERKS8_
FN:886,_ZSt3powIddN11MetaPhysicL28SemiDynamicSparseNumberArrayIdmNS0_8NWrapperILm64EEEEELb1EENS0_12CompareTypesINS0_10DualNumberIT_T1_XT2_EEET0_Lb0EvE9supertypeERKS9_RKSA_
FNDA:126504,_ZSt4normIdN11MetaPhysicL28SemiDynamicSparseNumberArrayIdmNS0_8NWrapperILm64EEEEELb1EENS0_10DualNumberIT_T0_XT1_EEERKS8_
FNDA:0,_ZN11MetaPhysicL10DualNumberIdNS_28SemiDynamicSparseNumberArrayIdmNS_8NWrapperILm64EEEEELb1EEC2IiEERKT_NSt9enable_ifIXsrSt14is_convertibleIS7_dE5valueEPvE4typeE
FNDA:92270798,_ZN11MetaPhysicL10DualNumberIdNS_28SemiDynamicSparseNumberArrayIdmNS_8NWrapperILm64EEEEELb1EEpLIdS4_EERS5_RKNS0_IT_T0_Lb1EEE
FNDA:31149268,_ZN11MetaPhysicL10DualNumberIdNS_28SemiDynamicSparseNumberArrayIdmNS_8NWrapperILm64EEEEELb1EEmLIdEERS5_RKT_
FNDA:2754670,_ZNK11MetaPhysicL10DualNumberIdNS_28SemiDynamicSparseNumberArrayIdmNS_8NWrapperILm64EEEEELb1EEngEv
FNDA:43610814,_ZN11MetaPhysicL10DualNumberIdNS_28SemiDynamicSparseNumberArrayIdmNS_8NWrapperILm64EEEEELb1EEaSEOS5_
FNDA:102245430,_ZN11MetaPhysicL10DualNumberIdNS_28SemiDynamicSparseNumberArrayIdmNS_8NWrapperILm64EEEEELb1EEC2IdEERKT_NSt9enable_ifIXsrSt14is_convertibleIS7_dE5valueEPvE4typeE
FNDA:42168,_ZSt4sqrtIdN11MetaPhysicL28SemiDynamicSparseNumberArrayIdmNS0_8NWrapperILm64EEEEELb1EENS0_10DualNumberIT_T0_XT1_EEEOS8_
FNDA:93690062,_ZN11MetaPhysicL10DualNumberIdNS_28SemiDynamicSparseNumberArrayIdmNS_8NWrapperILm64EEEEELb1EEaSERKS5_
FNDA:123624044,_ZN11MetaPhysicL10DualNumberIdNS_28SemiDynamicSparseNumberArrayIdmNS_8NWrapperILm64EEEEELb1EEC2EOS5_
FNDA:47323762,_ZN11MetaPhysicL10DualNumberIdNS_28SemiDynamicSparseNumberArrayIdmNS_8NWrapperILm64EEEEELb1EEmIIdS4_EERS5_RKNS0_IT_T0_Lb1EEE
FNDA:0,_ZSt3absIdN11MetaPhysicL28SemiDynamicSparseNumberArrayIdmNS0_8NWrapperILm64EEEEELb1EENS0_10DualNumberIT_T0_XT1_EEEOS8_
FNDA:20934144,_ZSt3expIdN11MetaPhysicL28SemiDynamicSparseNumberArrayIdmNS0_8NWrapperILm64EEEEELb1EENS0_10DualNumberIT_T0_XT1_EEEOS8_
FNDA:145308440,_ZN11MetaPhysicL10DualNumberIdNS_28SemiDynamicSparseNumberArrayIdmNS_8NWrapperILm64EEEEELb1EEmLIdS4_EERS5_RKNS0_IT_T0_Lb1EEE
FNDA:3102464,_ZSt4sqrtIdN11MetaPhysicL28SemiDynamicSparseNumberArrayIdmNS0_8NWrapperILm64EEEEELb1EENS0_10DualNumberIT_T0_XT1_EEERKS8_
FNDA:0,_ZN11MetaPhysicL10DualNumberIdNS_28SemiDynamicSparseNumberArrayIdmNS_8NWrapperILm64EEEEELb1EEC2IdiEERKT_RKT0_
FNDA:158434,_ZSt3absIdN11MetaPhysicL28SemiDynamicSparseNumberArrayIdmNS0_8NWrapperILm64EEEEELb1EENS0_10DualNumberIT_T0_XT1_EEERKS8_
FNDA:20220808,_ZN11MetaPhysicL10DualNumberIdNS_28SemiDynamicSparseNumberArrayIdmNS_8NWrapperILm64EEEEELb1EEdVIdS4_EERS5_RKNS0_IT_T0_Lb1EEE
FNDA:69931660,_ZN11MetaPhysicL26derivative_multiply_helperIdNS_28SemiDynamicSparseNumberArrayIdmNS_8NWrapperILm64EEEEELb1EEEvRNS_10DualNumberIT_T0_XT1_EEERKS8_
FNDA:0,_ZSt3powIddN11MetaPhysicL28SemiDynamicSparseNumberArrayIdmNS0_8NWrapperILm64EEEEELb1EENS0_12CompareTypesINS0_10DualNumberIT_T1_XT2_EEET0_Lb0EvE9supertypeERKS9_RKSA_
FNDA:29250164,_ZN11MetaPhysicL10DualNumberIdNS_28SemiDynamicSparseNumberArrayIdmNS_8NWrapperILm64EEEEELb1EEdVIdEERS5_RKT_
FNDA:15409170,_ZN11MetaPhysicL10DualNumberIdNS_28SemiDynamicSparseNumberArrayIdmNS_8NWrapperILm64EEEEELb1EEaSIdEERS5_RKT_
FNDA:9999000,_ZN11MetaPhysicL26derivative_division_helperIdNS_28SemiDynamicSparseNumberArrayIdmNS_8NWrapperILm64EEEEELb1EEEvRNS_10DualNumberIT_T0_XT1_EEERKS8_
FNDA:2754670,_ZN11MetaPhysicL10DualNumberIdNS_28SemiDynamicSparseNumberArrayIdmNS_8NWrapperILm64EEEEELb1EEC2IdS4_EERKT_RKT0_
FNDA:275453784,_ZN11MetaPhysicL10DualNumberIdNS_28SemiDynamicSparseNumberArrayIdmNS_8NWrapperILm64EEEEELb1EEC2ERKS5_
FNF:25
FNH:21
DA:50,69931660
DA:55,0
DA:65,67793143
DA:75,2754670
DA:99,93690062
DA:101,93690062
DA:103,93690062
DA:106,93690062
DA:113,43610814
DA:115,43610814
DA:117,43610814
DA:120,43610814
DA:140,275453784
DA:141,275453784
DA:143,275453784
DA:145,275453784
DA:150,123624044
DA:151,123624044
DA:153,123624044
DA:155,123624044
DA:193,15409170
DA:195,15409170
DA:196,15409170
DA:197,7989776
DA:198,15409170
DA:220,102245430
DA:221,102245430
DA:223,102245430
DA:224,50403346
DA:225,102245430
DA:230,2754670
DA:232,2754670
DA:234,2754670
DA:235,1367662
DA:236,2754670
DA:265,69931660
DA:268,69931660
DA:271,69931660
DA:272,0
DA:275,69931660
DA:276,69931660
DA:316,9999000
DA:319,9999000
DA:322,9999000
DA:323,0
DA:324,0
DA:327,9999000
DA:328,9999000
DA:470,141969884
DA:472,95215816
DA:474,303637614
DA:479,96416052
DA:516,0
DA:517,0
DA:518,0
DA:519,2318826
DA:520,1139968
DA:521,290048
DA:640,3167212
DA:641,31251456
DA:653,158434
DA:655,126504
DA:880,0
DA:886,0
LF:64
LH:55
end_of_record
TN:
SF:/usr/share/miniconda3/envs/moose/libmesh/include/metaphysicl/dualnumber_decl.h
FNF:0
FNH:0
DA:59,45392164
DA:178,102245430
DA:181,2754670
LF:3
LH:3
end_of_record
TN:
SF:/usr/share/miniconda3/envs/moose/libmesh/include/metaphysicl/dynamic_std_array_wrapper.h
FN:54,_ZN11MetaPhysicL22DynamicStdArrayWrapperImNS_8NWrapperILm64EEEEC2ERKS3_
FN:54,_ZN11MetaPhysicL22DynamicStdArrayWrapperIdNS_8NWrapperILm64EEEEC2ERKS3_
FN:71,_ZN11MetaPhysicL22DynamicStdArrayWrapperImNS_8NWrapperILm64EEEEaSERKS3_
FN:71,_ZN11MetaPhysicL22DynamicStdArrayWrapperIdNS_8NWrapperILm64EEEEaSERKS3_
FN:122,_ZN11MetaPhysicL22DynamicStdArrayWrapperIdNS_8NWrapperILm64EEEE6resizeEm
FN:122,_ZN11MetaPhysicL22DynamicStdArrayWrapperImNS_8NWrapperILm64EEEE6resizeEm
FNDA:137272783,_ZN11MetaPhysicL22DynamicStdArrayWrapperIdNS_8NWrapperILm64EEEE6resizeEm
FNDA:177989475,_ZN11MetaPhysicL22DynamicStdArrayWrapperImNS_8NWrapperILm64EEEEaSERKS3_
FNDA:1367662,_ZN11MetaPhysicL22DynamicStdArrayWrapperImNS_8NWrapperILm64EEEEC2ERKS3_
FNDA:1367662,_ZN11MetaPhysicL22DynamicStdArrayWrapperIdNS_8NWrapperILm64EEEEC2ERKS3_
FNDA:177989475,_ZN11MetaPhysicL22DynamicStdArrayWrapperIdNS_8NWrapperILm64EEEEaSERKS3_
FNDA:137272783,_ZN11MetaPhysicL22DynamicStdArrayWrapperImNS_8NWrapperILm64EEEE6resizeEm
FNF:6
FNH:6
DA:54,2735324
DA:56,2735324
DA:58,2735324
DA:59,2735324
DA:62,0
DA:64,0
DA:67,0
DA:68,0
DA:71,355978950
DA:73,355978950
DA:75,355978950
DA:76,355978950
DA:82,279015518
DA:85,3222436134
DA:86,2943420616
DA:90,710921960
DA:99,416559788
DA:105,3551651486
DA:120,259163231
DA:122,274545566
DA:124,274545566
DA:125,0
DA:126,274545566
DA:127,274545566
DA:132,54587453
DA:138,54587453
DA:143,54587453
LF:27
LH:22
end_of_record
TN:
SF:/usr/share/miniconda3/envs/moose/libmesh/include/metaphysicl/dynamicsparsenumberbase.h
FN:48,_ZN11MetaPhysicL23DynamicSparseNumberBaseINS_22DynamicStdArrayWrapperIdNS_8NWrapperILm64EEEEENS1_ImS3_EENS_28SemiDynamicSparseNumberArrayEJdmS3_EE6resizeEm
FN:264,_ZNK11MetaPhysicL23DynamicSparseNumberBaseINS_22DynamicStdArrayWrapperIdNS_8NWrapperILm64EEEEENS1_ImS3_EENS_28SemiDynamicSparseNumberArrayEJdmS3_EEngEv
FN:282,_ZN11MetaPhysicL23DynamicSparseNumberBaseINS_22DynamicStdArrayWrapperIdNS_8NWrapperILm64EEEEENS1_ImS3_EENS_28SemiDynamicSparseNumberArrayEJdmS3_EE14sparsity_unionIS5_EEvRKT_
FN:553,_ZN11MetaPhysicL23DynamicSparseNumberBaseINS_22DynamicStdArrayWrapperIdNS_8NWrapperILm64EEEEENS1_ImS3_EENS_28SemiDynamicSparseNumberArrayEJdmS3_EEpLIJdmS3_EEERNS6_IdmS3_EERKNS6_IDpT_EE
FN:588,_ZN11MetaPhysicL23DynamicSparseNumberBaseINS_22DynamicStdArrayWrapperIdNS_8NWrapperILm64EEEEENS1_ImS3_EENS_28SemiDynamicSparseNumberArrayEJdmS3_EEmIIJdmS3_EEERNS6_IdmS3_EERKNS6_IDpT_EE
FN:950,_ZN11MetaPhysicLmlINS_28SemiDynamicSparseNumberArrayENS_22DynamicStdArrayWrapperIdNS_8NWrapperILm64EEEEENS2_ImS4_EEJdmS4_EdEENS_14MultipliesTypeIT_IJDpT2_EET3_Lb1EvE9supertypeERKSC_RKNS_23DynamicSparseNumberBaseIT0_T1_T_JSA_EEE
FN:972,_ZN11MetaPhysicLmlINS_28SemiDynamicSparseNumberArrayENS_22DynamicStdArrayWrapperIdNS_8NWrapperILm64EEEEENS2_ImS4_EEJdmS4_EdEENS_14MultipliesTypeIT_IJDpT2_EET3_Lb0EvE9supertypeERKNS_23DynamicSparseNumberBaseIT0_T1_T_JSA_EEERKSC_
FN:993,_ZN11MetaPhysicLdvINS_28SemiDynamicSparseNumberArrayENS_22DynamicStdArrayWrapperIdNS_8NWrapperILm64EEEEENS2_ImS4_EEJdmS4_EdEENS_11DividesTypeIT_IJDpT2_EET3_Lb0EvE9supertypeERKNS_23DynamicSparseNumberBaseIT0_T1_T_JSA_EEERKSC_
FNDA:137272783,_ZN11MetaPhysicL23DynamicSparseNumberBaseINS_22DynamicStdArrayWrapperIdNS_8NWrapperILm64EEEEENS1_ImS3_EENS_28SemiDynamicSparseNumberArrayEJdmS3_EE6resizeEm
FNDA:0,_ZN11MetaPhysicLmlINS_28SemiDynamicSparseNumberArrayENS_22DynamicStdArrayWrapperIdNS_8NWrapperILm64EEEEENS2_ImS4_EEJdmS4_EdEENS_14MultipliesTypeIT_IJDpT2_EET3_Lb0EvE9supertypeERKNS_23DynamicSparseNumberBaseIT0_T1_T_JSA_EEERKSC_
FNDA:2754670,_ZNK11MetaPhysicL23DynamicSparseNumberBaseINS_22DynamicStdArrayWrapperIdNS_8NWrapperILm64EEEEENS1_ImS3_EENS_28SemiDynamicSparseNumberArrayEJdmS3_EEngEv
FNDA:114397025,_ZN11MetaPhysicL23DynamicSparseNumberBaseINS_22DynamicStdArrayWrapperIdNS_8NWrapperILm64EEEEENS1_ImS3_EENS_28SemiDynamicSparseNumberArrayEJdmS3_EEpLIJdmS3_EEERNS6_IdmS3_EERKNS6_IDpT_EE
FNDA:33326778,_ZN11MetaPhysicL23DynamicSparseNumberBaseINS_22DynamicStdArrayWrapperIdNS_8NWrapperILm64EEEEENS1_ImS3_EENS_28SemiDynamicSparseNumberArrayEJdmS3_EEmIIJdmS3_EEERNS6_IdmS3_EERKNS6_IDpT_EE
FNDA:79930660,_ZN11MetaPhysicLmlINS_28SemiDynamicSparseNumberArrayENS_22DynamicStdArrayWrapperIdNS_8NWrapperILm64EEEEENS2_ImS4_EEJdmS4_EdEENS_14MultipliesTypeIT_IJDpT2_EET3_Lb1EvE9supertypeERKSC_RKNS_23DynamicSparseNumberBaseIT0_T1_T_JSA_EEE
FNDA:0,_ZN11MetaPhysicLdvINS_28SemiDynamicSparseNumberArrayENS_22DynamicStdArrayWrapperIdNS_8NWrapperILm64EEEEENS2_ImS4_EEJdmS4_EdEENS_11DividesTypeIT_IJDpT2_EET3_Lb0EvE9supertypeERKNS_23DynamicSparseNumberBaseIT0_T1_T_JSA_EEERKSC_
FNDA:147723803,_ZN11MetaPhysicL23DynamicSparseNumberBaseINS_22DynamicStdArrayWrapperIdNS_8NWrapperILm64EEEEENS1_ImS3_EENS_28SemiDynamicSparseNumberArrayEJdmS3_EE14sparsity_unionIS5_EEvRKT_
FNF:8
FNH:6
DA:48,137272783
DA:50,137272783
DA:51,137272783
DA:55,630991300
DA:99,1470160934
DA:129,147723803
DA:264,2754670
DA:267,2754670
DA:268,31907702
DA:270,29153032
DA:271,29153032
DA:273,2754670
DA:282,147723803
DA:304,285268073
DA:305,137544270
DA:306,137544270
DA:308,151448660
DA:309,13904390
DA:310,13904390
DA:313,1698605136
DA:314,1698605136
DA:315,1561060866
DA:316,1561060866
DA:317,1561060866
DA:318,1561060866
DA:321,1281841287
DA:322,1198884470
DA:323,1198884470
DA:324,1198884470
DA:326,1144297017
DA:331,147723803
DA:336,54587453
DA:357,1268902733
DA:358,1214315280
DA:359,28600586
DA:360,28600586
DA:361,1198884470
DA:362,1198884470
DA:365,15430810
DA:366,13868718
DA:370,15430810
DA:371,15430810
DA:553,114397025
DA:556,114397025
DA:564,2174253797
DA:566,2059856772
DA:567,2059856772
DA:569,4037656690
DA:570,1977799918
DA:571,1977799918
DA:573,1977799918
DA:577,2059856772
DA:580,114397025
DA:588,33326778
DA:591,33326778
DA:599,733415342
DA:601,700088564
DA:602,700088564
DA:604,1370699814
DA:605,670611250
DA:606,670611250
DA:608,670611250
DA:612,700088564
DA:615,33326778
DA:693,1148779312
DA:694,1051392346
DA:705,557978456
DA:706,533474974
DA:950,79930660
DA:952,79930660
DA:956,79930660
DA:958,1550091594
DA:959,1470160934
DA:960,1470160934
DA:963,79930660
DA:972,0
DA:974,0
DA:978,0
DA:980,0
DA:981,0
DA:982,0
DA:984,0
DA:993,0
DA:995,0
DA:998,0
DA:1000,0
DA:1001,0
DA:1002,0
DA:1005,0
LF:89
LH:75
end_of_record
TN:
SF:/usr/share/miniconda3/envs/moose/libmesh/include/metaphysicl/dynamicsparsenumberbase_decl.h
FN:72,_ZN11MetaPhysicL23DynamicSparseNumberBaseINS_22DynamicStdArrayWrapperIdNS_8NWrapperILm64EEEEENS1_ImS3_EENS_28SemiDynamicSparseNumberArrayEJdmS3_EEC2EOS7_
FN:75,_ZN11MetaPhysicL23DynamicSparseNumberBaseINS_22DynamicStdArrayWrapperIdNS_8NWrapperILm64EEEEENS1_ImS3_EENS_28SemiDynamicSparseNumberArrayEJdmS3_EEaSEOS7_
FN:79,_ZN11MetaPhysicL23DynamicSparseNumberBaseINS_22DynamicStdArrayWrapperIdNS_8NWrapperILm64EEEEENS1_ImS3_EENS_28SemiDynamicSparseNumberArrayEJdmS3_EEC2ERKS7_
FN:81,_ZN11MetaPhysicL23DynamicSparseNumberBaseINS_22DynamicStdArrayWrapperIdNS_8NWrapperILm64EEEEENS1_ImS3_EENS_28SemiDynamicSparseNumberArrayEJdmS3_EEaSERKS7_
FNDA:139507759,_ZN11MetaPhysicL23DynamicSparseNumberBaseINS_22DynamicStdArrayWrapperIdNS_8NWrapperILm64EEEEENS1_ImS3_EENS_28SemiDynamicSparseNumberArrayEJdmS3_EEaSEOS7_
FNDA:0,_ZN11MetaPhysicL23DynamicSparseNumberBaseINS_22DynamicStdArrayWrapperIdNS_8NWrapperILm64EEEEENS1_ImS3_EENS_28SemiDynamicSparseNumberArrayEJdmS3_EEC2EOS7_
FNDA:177989475,_ZN11MetaPhysicL23DynamicSparseNumberBaseINS_22DynamicStdArrayWrapperIdNS_8NWrapperILm64EEEEENS1_ImS3_EENS_28SemiDynamicSparseNumberArrayEJdmS3_EEaSERKS7_
FNDA:1367662,_ZN11MetaPhysicL23DynamicSparseNumberBaseINS_22DynamicStdArrayWrapperIdNS_8NWrapperILm64EEEEENS1_ImS3_EENS_28SemiDynamicSparseNumberArrayEJdmS3_EEC2ERKS7_
FNF:4
FNH:3
DA:72,0
DA:75,139507759
DA:79,1367662
DA:81,177989475
LF:4
LH:3
end_of_record
TN:
SF:/usr/share/miniconda3/envs/moose/libmesh/include/metaphysicl/metaphysicl_exceptions.h
FNF:0
FNH:0
DA:45,0
LF:1
LH:0
end_of_record
TN:
SF:/usr/share/miniconda3/envs/moose/libmesh/include/metaphysicl/raw_type.h
FNF:0
FNH:0
DA:73,41590
DA:88,0
LF:2
LH:1
end_of_record
TN:
SF:/usr/share/miniconda3/envs/moose/libmesh/include/metaphysicl/semidynamicsparsenumberarray.h
FNF:0
FNH:0
DA:84,0
DA:85,0
LF:2
LH:0
end_of_record
TN:
SF:/usr/share/miniconda3/envs/moose/libmesh/include/metaphysicl/semidynamicsparsenumberarray_decl.h
FNF:0
FNH:0
DA:34,139691444
DA:56,0
DA:58,139507759
DA:60,1367662
DA:62,177656199
LF:5
LH:4
end_of_record
TN:
SF:/usr/share/miniconda3/envs/moose/x86_64-conda-linux-gnu/include/c++/12.3.0/array
FNF:0
FNH:0
DA:61,0
DA:284,333602971
DA:289,654161880
LF:3
LH:2
end_of_record
TN:
SF:/usr/share/miniconda3/envs/moose/x86_64-conda-linux-gnu/include/c++/12.3.0/bits/alloc_traits.h
FNF:0
FNH:0
DA:464,7976118
DA:496,7974765
DA:520,264
DA:635,0
LF:4
LH:3
end_of_record
TN:
SF:/usr/share/miniconda3/envs/moose/x86_64-conda-linux-gnu/include/c++/12.3.0/bits/allocated_ptr.h
FN:71,_ZNSt15__allocated_ptrISaISt23_Sp_counted_ptr_inplaceI13RegistryEntryI18BVStressDivergenceESaIvELN9__gnu_cxx12_Lock_policyE2EEEED2Ev
FN:71,_ZNSt15__allocated_ptrISaISt23_Sp_counted_ptr_inplaceI13RegistryEntryI23BVPoroMechanicsMaterialESaIvELN9__gnu_cxx12_Lock_policyE2EEEED2Ev
FN:71,_ZNSt15__allocated_ptrISaISt23_Sp_counted_ptr_inplaceI13RegistryEntryI20BVStressComponentAuxESaIvELN9__gnu_cxx12_Lock_policyE2EEEED2Ev
FN:71,_ZNSt15__allocated_ptrISaISt23_Sp_counted_ptr_inplaceI13RegistryEntryI18BVDarcyVelocityAuxESaIvELN9__gnu_cxx12_Lock_policyE2EEEED2Ev
FN:71,_ZNSt15__allocated_ptrISaISt23_Sp_counted_ptr_inplaceI13RegistryEntryI22BVFaultNormalStressAuxESaIvELN9__gnu_cxx12_Lock_policyE2EEEED2Ev
FN:71,_ZNSt15__allocated_ptrISaISt23_Sp_counted_ptr_inplaceI13RegistryEntryI17BVShearTractionBCESaIvELN9__gnu_cxx12_Lock_policyE2EEEED2Ev
FN:71,_ZNSt15__allocated_ptrISaISt23_Sp_counted_ptr_inplaceI21BVShearTractionActionSaIvELN9__gnu_cxx12_Lock_policyE2EEEED2Ev
FN:71,_ZNSt15__allocated_ptrISaISt23_Sp_counted_ptr_inplaceI13RegistryEntryI18BVConstantPorosityESaIvELN9__gnu_cxx12_Lock_policyE2EEEED2Ev
FN:71,_ZNSt15__allocated_ptrISaISt23_Sp_counted_ptr_inplaceISt5mutexSaIvELN9__gnu_cxx12_Lock_policyE2EEEED2Ev
FN:71,_ZNSt15__allocated_ptrISaISt23_Sp_counted_ptr_inplaceI13RegistryEntryI18BVSinglePhaseDarcyESaIvELN9__gnu_cxx12_Lock_policyE2EEEED2Ev
FN:71,_ZNSt15__allocated_ptrISaISt23_Sp_counted_ptr_inplaceI13RegistryEntryI21BVFaultShearStressAuxESaIvELN9__gnu_cxx12_Lock_policyE2EEEED2Ev
FN:71,_ZNSt15__allocated_ptrISaISt23_Sp_counted_ptr_inplaceI13RegistryEntryI16BVMisesStressAuxESaIvELN9__gnu_cxx12_Lock_policyE2EEEED2Ev
FN:71,_ZNSt15__allocated_ptrISaISt23_Sp_counted_ptr_inplaceI13RegistryEntryI31BVSinglePhaseFlowSoluteMaterialESaIvELN9__gnu_cxx12_Lock_policyE2EEEED2Ev
FN:71,_ZNSt15__allocated_ptrISaISt23_Sp_counted_ptr_inplaceI13RegistryEntryI27BVMaxwellViscoelasticUpdateESaIvELN9__gnu_cxx12_Lock_policyE2EEEED2Ev
FN:71,_ZNSt15__allocated_ptrISaISt23_Sp_counted_ptr_inplaceI13RegistryEntryI20BVConstantDispersionESaIvELN9__gnu_cxx12_Lock_policyE2EEEED2Ev
FN:71,_ZNSt15__allocated_ptrISaISt23_Sp_counted_ptr_inplaceI13RegistryEntryI18BVEqvStrainRateAuxESaIvELN9__gnu_cxx12_Lock_policyE2EEEED2Ev
FN:71,_ZNSt15__allocated_ptrISaISt23_Sp_counted_ptr_inplaceI13RegistryEntryI27BVFVMultiPhasePressureDarcyESaIvELN9__gnu_cxx12_Lock_policyE2EEEED2Ev
FN:71,_ZNSt15__allocated_ptrISaISt23_Sp_counted_ptr_inplaceI13RegistryEntryI36BVFVMultiPhasePressureTimeDerivativeESaIvELN9__gnu_cxx12_Lock_policyE2EEEED2Ev
FN:71,_ZNSt15__allocated_ptrISaISt23_Sp_counted_ptr_inplaceI13RegistryEntryI26BVFVSinglePhaseSoluteDarcyESaIvELN9__gnu_cxx12_Lock_policyE2EEEED2Ev
FN:71,_ZNSt15__allocated_ptrISaISt23_Sp_counted_ptr_inplaceI13RegistryEntryI19BVLubby2ModelUpdateESaIvELN9__gnu_cxx12_Lock_policyE2EEEED2Ev
FN:71,_ZNSt15__allocated_ptrISaISt23_Sp_counted_ptr_inplaceI13RegistryEntryI38BVFVMultiPhaseSaturationTimeDerivativeESaIvELN9__gnu_cxx12_Lock_policyE2EEEED2Ev
FN:71,_ZNSt15__allocated_ptrISaISt23_Sp_counted_ptr_inplaceI13RegistryEntryI30BVRelativePermeabilityPowerLawESaIvELN9__gnu_cxx12_Lock_policyE2EEEED2Ev
FN:71,_ZNSt15__allocated_ptrISaISt23_Sp_counted_ptr_inplaceI13RegistryEntryI25BVFaultInterfaceGeneratorESaIvELN9__gnu_cxx12_Lock_policyE2EEEED2Ev
FN:71,_ZNSt15__allocated_ptrISaISt23_Sp_counted_ptr_inplaceI13RegistryEntryI16BVPressureActionESaIvELN9__gnu_cxx12_Lock_policyE2EEEED2Ev
FN:71,_ZNSt15__allocated_ptrISaISt23_Sp_counted_ptr_inplaceI13RegistryEntryI22BVConstantPermeabilityESaIvELN9__gnu_cxx12_Lock_policyE2EEEED2Ev
FN:71,_ZNSt15__allocated_ptrISaISt23_Sp_counted_ptr_inplaceI13RegistryEntryI14BVEqvStrainAuxESaIvELN9__gnu_cxx12_Lock_policyE2EEEED2Ev
FN:71,_ZNSt15__allocated_ptrISaISt23_Sp_counted_ptr_inplaceI13RegistryEntryI12BVPressureBCESaIvELN9__gnu_cxx12_Lock_policyE2EEEED2Ev
FN:71,_ZNSt15__allocated_ptrISaISt23_Sp_counted_ptr_inplaceI16BVPressureActionSaIvELN9__gnu_cxx12_Lock_policyE2EEEED2Ev
FN:71,_ZNSt15__allocated_ptrISaISt23_Sp_counted_ptr_inplaceI13RegistryEntryI20BVFVSinglePhaseDarcyESaIvELN9__gnu_cxx12_Lock_policyE2EEEED2Ev
FN:71,_ZNSt15__allocated_ptrISaISt23_Sp_counted_ptr_inplaceI13RegistryEntryI29BVFVSinglePhaseTimeDerivativeESaIvELN9__gnu_cxx12_Lock_policyE2EEEED2Ev
FN:71,_ZNSt15__allocated_ptrISaISt23_Sp_counted_ptr_inplaceI13RegistryEntryI17BVFluidPropertiesESaIvELN9__gnu_cxx12_Lock_policyE2EEEED2Ev
FN:71,_ZNSt15__allocated_ptrISaISt23_Sp_counted_ptr_inplaceI13RegistryEntryI29BVFVMultiPhaseSaturationDarcyESaIvELN9__gnu_cxx12_Lock_policyE2EEEED2Ev
FN:71,_ZNSt15__allocated_ptrISaISt23_Sp_counted_ptr_inplaceI13RegistryEntryI20BVMechanicalMaterialESaIvELN9__gnu_cxx12_Lock_policyE2EEEED2Ev
FN:71,_ZNSt15__allocated_ptrISaISt23_Sp_counted_ptr_inplaceI9BeaverAppSaIvELN9__gnu_cxx12_Lock_policyE2EEEED2Ev
FN:71,_ZNSt15__allocated_ptrISaISt23_Sp_counted_ptr_inplaceI13RegistryEntryI20BVStrainComponentAuxESaIvELN9__gnu_cxx12_Lock_policyE2EEEED2Ev
FN:71,_ZNSt15__allocated_ptrISaISt23_Sp_counted_ptr_inplaceI13RegistryEntryI27BVCapillaryPressurePowerLawESaIvELN9__gnu_cxx12_Lock_policyE2EEEED2Ev
FN:71,_ZNSt15__allocated_ptrISaISt23_Sp_counted_ptr_inplaceI13RegistryEntryI21BVShearTractionActionESaIvELN9__gnu_cxx12_Lock_policyE2EEEED2Ev
FN:71,_ZNSt15__allocated_ptrISaISt23_Sp_counted_ptr_inplaceI13RegistryEntryI35BVFVSinglePhaseSoluteTimeDerivativeESaIvELN9__gnu_cxx12_Lock_policyE2EEEED2Ev
FN:71,_ZNSt15__allocated_ptrISaISt23_Sp_counted_ptr_inplaceI13RegistryEntryI27BVSinglePhaseTimeDerivativeESaIvELN9__gnu_cxx12_Lock_policyE2EEEED2Ev
FN:71,_ZNSt15__allocated_ptrISaISt23_Sp_counted_ptr_inplaceI13RegistryEntryI25BVSinglePhaseFlowMaterialESaIvELN9__gnu_cxx12_Lock_policyE2EEEED2Ev
FN:71,_ZNSt15__allocated_ptrISaISt23_Sp_counted_ptr_inplaceI13RegistryEntryI24BVMultiPhaseFlowMaterialESaIvELN9__gnu_cxx12_Lock_policyE2EEEED2Ev
FN:71,_ZNSt15__allocated_ptrISaISt23_Sp_counted_ptr_inplaceI13RegistryEntryI20BVRTL2020ModelUpdateESaIvELN9__gnu_cxx12_Lock_policyE2EEEED2Ev
FN:71,_ZNSt15__allocated_ptrISaISt23_Sp_counted_ptr_inplaceI13RegistryEntryI26BVKelvinViscoelasticUpdateESaIvELN9__gnu_cxx12_Lock_policyE2EEEED2Ev
FN:71,_ZNSt15__allocated_ptrISaISt23_Sp_counted_ptr_inplaceI13RegistryEntryI19BVBurgerModelUpdateESaIvELN9__gnu_cxx12_Lock_policyE2EEEED2Ev
FN:71,_ZNSt15__allocated_ptrISaISt23_Sp_counted_ptr_inplaceI13RegistryEntryI24BVConstantFrictionUpdateESaIvELN9__gnu_cxx12_Lock_policyE2EEEED2Ev
FN:71,_ZNSt15__allocated_ptrISaISt23_Sp_counted_ptr_inplaceI13RegistryEntryI13BVPressureAuxESaIvELN9__gnu_cxx12_Lock_policyE2EEEED2Ev
FN:71,_ZNSt15__allocated_ptrISaISt23_Sp_counted_ptr_inplaceI13RegistryEntryI29BVMechanicalInterfaceMaterialESaIvELN9__gnu_cxx12_Lock_policyE2EEEED2Ev
FN:71,_ZNSt15__allocated_ptrISaISt23_Sp_counted_ptr_inplaceI13RegistryEntryI21BVMechanicalInterfaceESaIvELN9__gnu_cxx12_Lock_policyE2EEEED2Ev
FN:71,_ZNSt15__allocated_ptrISaISt23_Sp_counted_ptr_inplaceINSt13__future_base13_State_baseV2ESaIvELN9__gnu_cxx12_Lock_policyE2EEEED2Ev
FNDA:26,_ZNSt15__allocated_ptrISaISt23_Sp_counted_ptr_inplaceI13RegistryEntryI26BVKelvinViscoelasticUpdateESaIvELN9__gnu_cxx12_Lock_policyE2EEEED2Ev
FNDA:26,_ZNSt15__allocated_ptrISaISt23_Sp_counted_ptr_inplaceI13RegistryEntryI24BVMultiPhaseFlowMaterialESaIvELN9__gnu_cxx12_Lock_policyE2EEEED2Ev
FNDA:26,_ZNSt15__allocated_ptrISaISt23_Sp_counted_ptr_inplaceI13RegistryEntryI20BVRTL2020ModelUpdateESaIvELN9__gnu_cxx12_Lock_policyE2EEEED2Ev
FNDA:26,_ZNSt15__allocated_ptrISaISt23_Sp_counted_ptr_inplaceI13RegistryEntryI35BVFVSinglePhaseSoluteTimeDerivativeESaIvELN9__gnu_cxx12_Lock_policyE2EEEED2Ev
FNDA:26,_ZNSt15__allocated_ptrISaISt23_Sp_counted_ptr_inplaceI13RegistryEntryI27BVSinglePhaseTimeDerivativeESaIvELN9__gnu_cxx12_Lock_policyE2EEEED2Ev
FNDA:26,_ZNSt15__allocated_ptrISaISt23_Sp_counted_ptr_inplaceI13RegistryEntryI25BVSinglePhaseFlowMaterialESaIvELN9__gnu_cxx12_Lock_policyE2EEEED2Ev
FNDA:26,_ZNSt15__allocated_ptrISaISt23_Sp_counted_ptr_inplaceI13RegistryEntryI27BVCapillaryPressurePowerLawESaIvELN9__gnu_cxx12_Lock_policyE2EEEED2Ev
FNDA:26,_ZNSt15__allocated_ptrISaISt23_Sp_counted_ptr_inplaceI13RegistryEntryI21BVShearTractionActionESaIvELN9__gnu_cxx12_Lock_policyE2EEEED2Ev
FNDA:26,_ZNSt15__allocated_ptrISaISt23_Sp_counted_ptr_inplaceI13RegistryEntryI29BVFVSinglePhaseTimeDerivativeESaIvELN9__gnu_cxx12_Lock_policyE2EEEED2Ev
FNDA:26,_ZNSt15__allocated_ptrISaISt23_Sp_counted_ptr_inplaceI13RegistryEntryI20BVFVSinglePhaseDarcyESaIvELN9__gnu_cxx12_Lock_policyE2EEEED2Ev
FNDA:26,_ZNSt15__allocated_ptrISaISt23_Sp_counted_ptr_inplaceI13RegistryEntryI20BVStrainComponentAuxESaIvELN9__gnu_cxx12_Lock_policyE2EEEED2Ev
FNDA:26,_ZNSt15__allocated_ptrISaISt23_Sp_counted_ptr_inplaceI13RegistryEntryI17BVFluidPropertiesESaIvELN9__gnu_cxx12_Lock_policyE2EEEED2Ev
FNDA:26,_ZNSt15__allocated_ptrISaISt23_Sp_counted_ptr_inplaceI13RegistryEntryI29BVFVMultiPhaseSaturationDarcyESaIvELN9__gnu_cxx12_Lock_policyE2EEEED2Ev
FNDA:0,_ZNSt15__allocated_ptrISaISt23_Sp_counted_ptr_inplaceI9BeaverAppSaIvELN9__gnu_cxx12_Lock_policyE2EEEED2Ev
FNDA:26,_ZNSt15__allocated_ptrISaISt23_Sp_counted_ptr_inplaceI13RegistryEntryI20BVMechanicalMaterialESaIvELN9__gnu_cxx12_Lock_policyE2EEEED2Ev
FNDA:26,_ZNSt15__allocated_ptrISaISt23_Sp_counted_ptr_inplaceI13RegistryEntryI21BVMechanicalInterfaceESaIvELN9__gnu_cxx12_Lock_policyE2EEEED2Ev
FNDA:0,_ZNSt15__allocated_ptrISaISt23_Sp_counted_ptr_inplaceINSt13__future_base13_State_baseV2ESaIvELN9__gnu_cxx12_Lock_policyE2EEEED2Ev
FNDA:26,_ZNSt15__allocated_ptrISaISt23_Sp_counted_ptr_inplaceI13RegistryEntryI13BVPressureAuxESaIvELN9__gnu_cxx12_Lock_policyE2EEEED2Ev
FNDA:26,_ZNSt15__allocated_ptrISaISt23_Sp_counted_ptr_inplaceI13RegistryEntryI24BVConstantFrictionUpdateESaIvELN9__gnu_cxx12_Lock_policyE2EEEED2Ev
FNDA:26,_ZNSt15__allocated_ptrISaISt23_Sp_counted_ptr_inplaceI13RegistryEntryI19BVBurgerModelUpdateESaIvELN9__gnu_cxx12_Lock_policyE2EEEED2Ev
FNDA:26,_ZNSt15__allocated_ptrISaISt23_Sp_counted_ptr_inplaceI13RegistryEntryI29BVMechanicalInterfaceMaterialESaIvELN9__gnu_cxx12_Lock_policyE2EEEED2Ev
FNDA:26,_ZNSt15__allocated_ptrISaISt23_Sp_counted_ptr_inplaceI13RegistryEntryI27BVMaxwellViscoelasticUpdateESaIvELN9__gnu_cxx12_Lock_policyE2EEEED2Ev
FNDA:26,_ZNSt15__allocated_ptrISaISt23_Sp_counted_ptr_inplaceI13RegistryEntryI16BVMisesStressAuxESaIvELN9__gnu_cxx12_Lock_policyE2EEEED2Ev
FNDA:26,_ZNSt15__allocated_ptrISaISt23_Sp_counted_ptr_inplaceI13RegistryEntryI31BVSinglePhaseFlowSoluteMaterialESaIvELN9__gnu_cxx12_Lock_policyE2EEEED2Ev
FNDA:26,_ZNSt15__allocated_ptrISaISt23_Sp_counted_ptr_inplaceI13RegistryEntryI18BVSinglePhaseDarcyESaIvELN9__gnu_cxx12_Lock_policyE2EEEED2Ev
FNDA:26,_ZNSt15__allocated_ptrISaISt23_Sp_counted_ptr_inplaceI13RegistryEntryI21BVFaultShearStressAuxESaIvELN9__gnu_cxx12_Lock_policyE2EEEED2Ev
FNDA:0,_ZNSt15__allocated_ptrISaISt23_Sp_counted_ptr_inplaceISt5mutexSaIvELN9__gnu_cxx12_Lock_policyE2EEEED2Ev
FNDA:26,_ZNSt15__allocated_ptrISaISt23_Sp_counted_ptr_inplaceI13RegistryEntryI18BVEqvStrainRateAuxESaIvELN9__gnu_cxx12_Lock_policyE2EEEED2Ev
FNDA:26,_ZNSt15__allocated_ptrISaISt23_Sp_counted_ptr_inplaceI13RegistryEntryI20BVConstantDispersionESaIvELN9__gnu_cxx12_Lock_policyE2EEEED2Ev
FNDA:26,_ZNSt15__allocated_ptrISaISt23_Sp_counted_ptr_inplaceI13RegistryEntryI18BVDarcyVelocityAuxESaIvELN9__gnu_cxx12_Lock_policyE2EEEED2Ev
FNDA:26,_ZNSt15__allocated_ptrISaISt23_Sp_counted_ptr_inplaceI13RegistryEntryI20BVStressComponentAuxESaIvELN9__gnu_cxx12_Lock_policyE2EEEED2Ev
FNDA:26,_ZNSt15__allocated_ptrISaISt23_Sp_counted_ptr_inplaceI13RegistryEntryI23BVPoroMechanicsMaterialESaIvELN9__gnu_cxx12_Lock_policyE2EEEED2Ev
FNDA:26,_ZNSt15__allocated_ptrISaISt23_Sp_counted_ptr_inplaceI13RegistryEntryI18BVStressDivergenceESaIvELN9__gnu_cxx12_Lock_policyE2EEEED2Ev
FNDA:4,_ZNSt15__allocated_ptrISaISt23_Sp_counted_ptr_inplaceI21BVShearTractionActionSaIvELN9__gnu_cxx12_Lock_policyE2EEEED2Ev
FNDA:26,_ZNSt15__allocated_ptrISaISt23_Sp_counted_ptr_inplaceI13RegistryEntryI18BVConstantPorosityESaIvELN9__gnu_cxx12_Lock_policyE2EEEED2Ev
FNDA:26,_ZNSt15__allocated_ptrISaISt23_Sp_counted_ptr_inplaceI13RegistryEntryI17BVShearTractionBCESaIvELN9__gnu_cxx12_Lock_policyE2EEEED2Ev
FNDA:26,_ZNSt15__allocated_ptrISaISt23_Sp_counted_ptr_inplaceI13RegistryEntryI22BVFaultNormalStressAuxESaIvELN9__gnu_cxx12_Lock_policyE2EEEED2Ev
FNDA:26,_ZNSt15__allocated_ptrISaISt23_Sp_counted_ptr_inplaceI13RegistryEntryI16BVPressureActionESaIvELN9__gnu_cxx12_Lock_policyE2EEEED2Ev
FNDA:26,_ZNSt15__allocated_ptrISaISt23_Sp_counted_ptr_inplaceI13RegistryEntryI30BVRelativePermeabilityPowerLawESaIvELN9__gnu_cxx12_Lock_policyE2EEEED2Ev
FNDA:26,_ZNSt15__allocated_ptrISaISt23_Sp_counted_ptr_inplaceI13RegistryEntryI25BVFaultInterfaceGeneratorESaIvELN9__gnu_cxx12_Lock_policyE2EEEED2Ev
FNDA:26,_ZNSt15__allocated_ptrISaISt23_Sp_counted_ptr_inplaceI13RegistryEntryI38BVFVMultiPhaseSaturationTimeDerivativeESaIvELN9__gnu_cxx12_Lock_policyE2EEEED2Ev
FNDA:26,_ZNSt15__allocated_ptrISaISt23_Sp_counted_ptr_inplaceI13RegistryEntryI19BVLubby2ModelUpdateESaIvELN9__gnu_cxx12_Lock_policyE2EEEED2Ev
FNDA:16,_ZNSt15__allocated_ptrISaISt23_Sp_counted_ptr_inplaceI16BVPressureActionSaIvELN9__gnu_cxx12_Lock_policyE2EEEED2Ev
FNDA:26,_ZNSt15__allocated_ptrISaISt23_Sp_counted_ptr_inplaceI13RegistryEntryI12BVPressureBCESaIvELN9__gnu_cxx12_Lock_policyE2EEEED2Ev
FNDA:26,_ZNSt15__allocated_ptrISaISt23_Sp_counted_ptr_inplaceI13RegistryEntryI22BVConstantPermeabilityESaIvELN9__gnu_cxx12_Lock_policyE2EEEED2Ev
FNDA:26,_ZNSt15__allocated_ptrISaISt23_Sp_counted_ptr_inplaceI13RegistryEntryI14BVEqvStrainAuxESaIvELN9__gnu_cxx12_Lock_policyE2EEEED2Ev
FNDA:26,_ZNSt15__allocated_ptrISaISt23_Sp_counted_ptr_inplaceI13RegistryEntryI27BVFVMultiPhasePressureDarcyESaIvELN9__gnu_cxx12_Lock_policyE2EEEED2Ev
FNDA:26,_ZNSt15__allocated_ptrISaISt23_Sp_counted_ptr_inplaceI13RegistryEntryI26BVFVSinglePhaseSoluteDarcyESaIvELN9__gnu_cxx12_Lock_policyE2EEEED2Ev
FNDA:26,_ZNSt15__allocated_ptrISaISt23_Sp_counted_ptr_inplaceI13RegistryEntryI36BVFVMultiPhasePressureTimeDerivativeESaIvELN9__gnu_cxx12_Lock_policyE2EEEED2Ev
FNF:49
FNH:46
DA:53,10
DA:54,1164
DA:71,1164
DA:73,1164
DA:75,1164
DA:81,1154
LF:6
LH:6
end_of_record
TN:
SF:/usr/share/miniconda3/envs/moose/x86_64-conda-linux-gnu/include/c++/12.3.0/bits/basic_ios.h
FNF:0
FNH:0
DA:138,0
LF:1
LH:0
end_of_record
TN:
SF:/usr/share/miniconda3/envs/moose/x86_64-conda-linux-gnu/include/c++/12.3.0/bits/basic_string.h
FN:642,_ZNSt7__cxx1112basic_stringIcSt11char_traitsIcESaIcEEC2IS3_EEPKcRKS3_
FN:1689,_ZNSt7__cxx1112basic_stringIcSt11char_traitsIcESaIcEE6assignIPcvEERS4_T_S8_
FN:3440,_ZStplIcSt11char_traitsIcESaIcEENSt7__cxx1112basic_stringIT_T0_T1_EERKS8_SA_
FN:3480,_ZStplIcSt11char_traitsIcESaIcEENSt7__cxx1112basic_stringIT_T0_T1_EERKS8_PKS5_
FN:3510,_ZStplIcSt11char_traitsIcESaIcEENSt7__cxx1112basic_stringIT_T0_T1_EEOS8_RKS8_
FN:3524,_ZStplIcSt11char_traitsIcESaIcEENSt7__cxx1112basic_stringIT_T0_T1_EEOS8_S9_
FN:3547,_ZStplIcSt11char_traitsIcESaIcEENSt7__cxx1112basic_stringIT_T0_T1_EEPKS5_OS8_
FN:4034,_ZNSt7__cxx119to_stringEj
FNDA:26,_ZStplIcSt11char_traitsIcESaIcEENSt7__cxx1112basic_stringIT_T0_T1_EEOS8_S9_
FNDA:56,_ZStplIcSt11char_traitsIcESaIcEENSt7__cxx1112basic_stringIT_T0_T1_EERKS8_PKS5_
FNDA:0,_ZNSt7__cxx1112basic_stringIcSt11char_traitsIcESaIcEE6assignIPcvEERS4_T_S8_
FNDA:0,_ZStplIcSt11char_traitsIcESaIcEENSt7__cxx1112basic_stringIT_T0_T1_EEPKS5_OS8_
FNDA:0,_ZStplIcSt11char_traitsIcESaIcEENSt7__cxx1112basic_stringIT_T0_T1_EERKS8_SA_
FNDA:26,_ZStplIcSt11char_traitsIcESaIcEENSt7__cxx1112basic_stringIT_T0_T1_EEOS8_RKS8_
FNDA:26,_ZNSt7__cxx119to_stringEj
FNDA:64183,_ZNSt7__cxx1112basic_stringIcSt11char_traitsIcESaIcEEC2IS3_EEPKcRKS3_
FNF:8
FNH:5
DA:187,0
DA:188,0
DA:199,64183
DA:200,64209
DA:203,1284
DA:204,1284
DA:224,38227
DA:229,75045
DA:234,11606
DA:241,1066
DA:252,26
DA:261,38227
DA:268,73761
DA:275,0
DA:277,0
DA:278,0
DA:479,9578
DA:485,64183
DA:523,1144
DA:642,64183
DA:646,64183
DA:647,0
DA:649,64183
DA:650,64183
DA:651,64183
DA:667,26
DA:803,42967
DA:813,2236
DA:974,0
DA:1072,2801
DA:1142,26
DA:1232,0
DA:1348,0
DA:1396,26
DA:1579,2612
DA:1689,0
DA:1690,0
DA:1866,0
DA:3440,0
DA:3443,0
DA:3445,0
DA:3480,56
DA:3483,56
DA:3484,56
DA:3485,56
DA:3510,26
DA:3512,26
DA:3524,26
DA:3537,26
DA:3538,26
DA:3539,0
DA:3541,26
DA:3547,0
DA:3549,0
DA:3563,26
DA:3702,9514996
DA:3896,0
DA:4034,26
DA:4039,26
DA:4040,26
DA:4041,26
LF:61
LH:42
end_of_record
TN:
SF:/usr/share/miniconda3/envs/moose/x86_64-conda-linux-gnu/include/c++/12.3.0/bits/basic_string.tcc
FN:217,_ZNSt7__cxx1112basic_stringIcSt11char_traitsIcESaIcEE12_M_constructIPKcEEvT_S8_St20forward_iterator_tag
FN:217,_ZNSt7__cxx1112basic_stringIcSt11char_traitsIcESaIcEE12_M_constructIPcEEvT_S7_St20forward_iterator_tag
FN:606,_ZStplIcSt11char_traitsIcESaIcEENSt7__cxx1112basic_stringIT_T0_T1_EEPKS5_RKS8_
FNDA:64183,_ZNSt7__cxx1112basic_stringIcSt11char_traitsIcESaIcEE12_M_constructIPKcEEvT_S8_St20forward_iterator_tag
FNDA:9578,_ZNSt7__cxx1112basic_stringIcSt11char_traitsIcESaIcEE12_M_constructIPcEEvT_S7_St20forward_iterator_tag
FNDA:0,_ZStplIcSt11char_traitsIcESaIcEENSt7__cxx1112basic_stringIT_T0_T1_EEPKS5_RKS8_
FNF:3
FNH:2
DA:217,73761
DA:221,73761
DA:223,73761
DA:225,38227
DA:226,38227
DA:247,73761
DA:248,73761
DA:606,0
DA:618,0
DA:619,0
DA:621,0
LF:11
LH:7
end_of_record
TN:
SF:/usr/share/miniconda3/envs/moose/x86_64-conda-linux-gnu/include/c++/12.3.0/bits/char_traits.h
FNF:0
FNH:0
DA:358,1118
DA:376,1050
DA:389,1050
DA:399,64183
LF:4
LH:4
end_of_record
TN:
SF:/usr/share/miniconda3/envs/moose/x86_64-conda-linux-gnu/include/c++/12.3.0/bits/charconv.h
FN:47,_ZNSt8__detail14__to_chars_lenIjEEjT_i
FN:72,_ZNSt8__detail18__to_chars_10_implIjEEvPcjT_
FNDA:26,_ZNSt8__detail14__to_chars_lenIjEEjT_i
FNDA:0,_ZNSt8__detail18__to_chars_10_implIjEEvPcjT_
FNF:2
FNH:1
DA:47,26
DA:53,26
DA:54,26
DA:55,26
DA:58,26
DA:59,0
DA:60,0
DA:61,0
DA:62,0
DA:63,0
DA:72,0
DA:83,0
DA:84,0
DA:86,0
DA:87,0
DA:88,0
DA:89,0
DA:90,0
DA:92,0
DA:94,0
DA:95,0
DA:96,0
DA:99,0
DA:100,0
LF:24
LH:5
end_of_record
TN:
SF:/usr/share/miniconda3/envs/moose/x86_64-conda-linux-gnu/include/c++/12.3.0/bits/exception.h
FNF:0
FNH:0
DA:64,0
LF:1
LH:0
end_of_record
TN:
SF:/usr/share/miniconda3/envs/moose/x86_64-conda-linux-gnu/include/c++/12.3.0/bits/functional_hash.h
FNF:0
FNH:0
DA:166,0
LF:1
LH:0
end_of_record
TN:
SF:/usr/share/miniconda3/envs/moose/x86_64-conda-linux-gnu/include/c++/12.3.0/bits/hashtable.h
FN:312,_ZNSt10_HashtableImSt4pairIKmSt6vectorIS0_IbN11MetaPhysicL10DualNumberIdNS3_28SemiDynamicSparseNumberArrayIdmNS3_8NWrapperILm64EEEEELb1EEEESaISA_EEESaISD_ENSt8__detail10_Select1stESt8equal_toImESt4hashImENSF_18_Mod_range_hashingENSF_20_Default_ranged_hashENSF_20_Prime_rehash_policyENSF_17_Hashtable_traitsILb0ELb0ELb1EEEE12_Scoped_nodeD2Ev
FN:312,_ZNSt10_HashtableIjjSaIjENSt8__detail9_IdentityESt8equal_toIjESt4hashIjENS1_18_Mod_range_hashingENS1_20_Default_ranged_hashENS1_20_Prime_rehash_policyENS1_17_Hashtable_traitsILb0ELb1ELb1EEEE12_Scoped_nodeD2Ev
FN:312,_ZNSt10_HashtableImSt4pairIKmSt6vectorIS2_IS0_IbdESaIS3_EESaIS5_EEESaIS8_ENSt8__detail10_Select1stESt8equal_toImESt4hashImENSA_18_Mod_range_hashingENSA_20_Default_ranged_hashENSA_20_Prime_rehash_policyENSA_17_Hashtable_traitsILb0ELb0ELb1EEEE12_Scoped_nodeD2Ev
FN:312,_ZNSt10_HashtableImSt4pairIKmSt6vectorIS0_IbdESaIS3_EEESaIS6_ENSt8__detail10_Select1stESt8equal_toImESt4hashImENS8_18_Mod_range_hashingENS8_20_Default_ranged_hashENS8_20_Prime_rehash_policyENS8_17_Hashtable_traitsILb0ELb0ELb1EEEE12_Scoped_nodeD2Ev
FN:312,_ZNSt10_HashtableImSt4pairIKmSt6vectorIS2_IS0_IbN11MetaPhysicL10DualNumberIdNS3_28SemiDynamicSparseNumberArrayIdmNS3_8NWrapperILm64EEEEELb1EEEESaISA_EESaISC_EEESaISF_ENSt8__detail10_Select1stESt8equal_toImESt4hashImENSH_18_Mod_range_hashingENSH_20_Default_ranged_hashENSH_20_Prime_rehash_policyENSH_17_Hashtable_traitsILb0ELb0ELb1EEEE12_Scoped_nodeD2Ev
FN:456,_ZNSt10_HashtableINSt7__cxx1112basic_stringIcSt11char_traitsIcESaIcEEESt4pairIKS5_St10unique_ptrI10MooseArrayIN11MetaPhysicL10DualNumberIdNSA_28SemiDynamicSparseNumberArrayIdmNSA_8NWrapperILm64EEEEELb1EEEESt14default_deleteISH_EEESaISL_ENSt8__detail10_Select1stESt8equal_toIS5_ESt4hashIS5_ENSN_18_Mod_range_hashingENSN_20_Default_ranged_hashENSN_20_Prime_rehash_policyENSN_17_Hashtable_traitsILb1ELb0ELb1EEEE21_M_deallocate_bucketsEv
FN:456,_ZNSt10_HashtableIjjSaIjENSt8__detail9_IdentityESt8equal_toIjESt4hashIjENS1_18_Mod_range_hashingENS1_20_Default_ranged_hashENS1_20_Prime_rehash_policyENS1_17_Hashtable_traitsILb0ELb1ELb1EEEE21_M_deallocate_bucketsEv
FN:456,_ZNSt10_HashtableINSt7__cxx1112basic_stringIcSt11char_traitsIcESaIcEEESt4pairIKS5_S5_ESaIS8_ENSt8__detail10_Select1stESt8equal_toIS5_ESt4hashIS5_ENSA_18_Mod_range_hashingENSA_20_Default_ranged_hashENSA_20_Prime_rehash_policyENSA_17_Hashtable_traitsILb1ELb0ELb1EEEE21_M_deallocate_bucketsEv
FN:456,_ZNSt10_HashtableImSt4pairIKmSt6vectorIS0_IbdESaIS3_EEESaIS6_ENSt8__detail10_Select1stESt8equal_toImESt4hashImENS8_18_Mod_range_hashingENS8_20_Default_ranged_hashENS8_20_Prime_rehash_policyENS8_17_Hashtable_traitsILb0ELb0ELb1EEEE21_M_deallocate_bucketsEv
FN:456,_ZNSt10_HashtableINSt7__cxx1112basic_stringIcSt11char_traitsIcESaIcEEESt4pairIKS5_St10unique_ptrI10MooseArrayIN7libMesh11VectorValueIN11MetaPhysicL10DualNumberIdNSC_28SemiDynamicSparseNumberArrayIdmNSC_8NWrapperILm64EEEEELb1EEEEEESt14default_deleteISK_EEESaISO_ENSt8__detail10_Select1stESt8equal_toIS5_ESt4hashIS5_ENSQ_18_Mod_range_hashingENSQ_20_Default_ranged_hashENSQ_20_Prime_rehash_policyENSQ_17_Hashtable_traitsILb1ELb0ELb1EEEE21_M_deallocate_bucketsEv
FN:456,_ZNSt10_HashtableIjSt4pairIKjjESaIS2_ENSt8__detail10_Select1stESt8equal_toIjESt4hashIjENS4_18_Mod_range_hashingENS4_20_Default_ranged_hashENS4_20_Prime_rehash_policyENS4_17_Hashtable_traitsILb0ELb0ELb1EEEE21_M_deallocate_bucketsEv
FN:456,_ZNSt10_HashtableINSt7__cxx1112basic_stringIcSt11char_traitsIcESaIcEEESt4pairIKS5_St10unique_ptrI10MooseArrayIdESt14default_deleteISA_EEESaISE_ENSt8__detail10_Select1stESt8equal_toIS5_ESt4hashIS5_ENSG_18_Mod_range_hashingENSG_20_Default_ranged_hashENSG_20_Prime_rehash_policyENSG_17_Hashtable_traitsILb1ELb0ELb1EEEE21_M_deallocate_bucketsEv
FN:456,_ZNSt10_HashtableINSt7__cxx1112basic_stringIcSt11char_traitsIcESaIcEEESt4pairIKS5_St6vectorIP22MooseVariableFieldBaseSaISA_EEESaISD_ENSt8__detail10_Select1stESt8equal_toIS5_ESt4hashIS5_ENSF_18_Mod_range_hashingENSF_20_Default_ranged_hashENSF_20_Prime_rehash_policyENSF_17_Hashtable_traitsILb1ELb0ELb1EEEE21_M_deallocate_bucketsEv
FN:456,_ZNSt10_HashtableIssSaIsENSt8__detail9_IdentityESt8equal_toIsESt4hashIsENS1_18_Mod_range_hashingENS1_20_Default_ranged_hashENS1_20_Prime_rehash_policyENS1_17_Hashtable_traitsILb0ELb1ELb1EEEE21_M_deallocate_bucketsEv
FN:456,_ZNSt10_HashtableINSt7__cxx1112basic_stringIcSt11char_traitsIcESaIcEEESt4pairIKS5_St10unique_ptrI10MooseArrayIN5Eigen6MatrixIdLin1ELi1ELi0ELin1ELi1EEEESt14default_deleteISD_EEESaISH_ENSt8__detail10_Select1stESt8equal_toIS5_ESt4hashIS5_ENSJ_18_Mod_range_hashingENSJ_20_Default_ranged_hashENSJ_20_Prime_rehash_policyENSJ_17_Hashtable_traitsILb1ELb0ELb1EEEE21_M_deallocate_bucketsEv
FN:456,_ZNSt10_HashtableImSt4pairIKmSt6vectorIS2_IS0_IbdESaIS3_EESaIS5_EEESaIS8_ENSt8__detail10_Select1stESt8equal_toImESt4hashImENSA_18_Mod_range_hashingENSA_20_Default_ranged_hashENSA_20_Prime_rehash_policyENSA_17_Hashtable_traitsILb0ELb0ELb1EEEE21_M_deallocate_bucketsEv
FN:456,_ZNSt10_HashtableINSt7__cxx1112basic_stringIcSt11char_traitsIcESaIcEEESt4pairIKS5_St6vectorIjSaIjEEESaISB_ENSt8__detail10_Select1stESt8equal_toIS5_ESt4hashIS5_ENSD_18_Mod_range_hashingENSD_20_Default_ranged_hashENSD_20_Prime_rehash_policyENSD_17_Hashtable_traitsILb1ELb0ELb1EEEE21_M_deallocate_bucketsEv
FN:456,_ZNSt10_HashtableImSt4pairIKmSt6vectorIS0_IbN11MetaPhysicL10DualNumberIdNS3_28SemiDynamicSparseNumberArrayIdmNS3_8NWrapperILm64EEEEELb1EEEESaISA_EEESaISD_ENSt8__detail10_Select1stESt8equal_toImESt4hashImENSF_18_Mod_range_hashingENSF_20_Default_ranged_hashENSF_20_Prime_rehash_policyENSF_17_Hashtable_traitsILb0ELb0ELb1EEEE21_M_deallocate_bucketsEv
FN:456,_ZNSt10_HashtableINSt7__cxx1112basic_stringIcSt11char_traitsIcESaIcEEESt4pairIKS5_St10unique_ptrI10MooseArrayIN7libMesh11VectorValueIdEEESt14default_deleteISD_EEESaISH_ENSt8__detail10_Select1stESt8equal_toIS5_ESt4hashIS5_ENSJ_18_Mod_range_hashingENSJ_20_Default_ranged_hashENSJ_20_Prime_rehash_policyENSJ_17_Hashtable_traitsILb1ELb0ELb1EEEE21_M_deallocate_bucketsEv
FN:456,_ZNSt10_HashtableINSt7__cxx1112basic_stringIcSt11char_traitsIcESaIcEEESt4pairIKS5_St6vectorIP19MooseVariableScalarSaISA_EEESaISD_ENSt8__detail10_Select1stESt8equal_toIS5_ESt4hashIS5_ENSF_18_Mod_range_hashingENSF_20_Default_ranged_hashENSF_20_Prime_rehash_policyENSF_17_Hashtable_traitsILb1ELb0ELb1EEEE21_M_deallocate_bucketsEv
FN:456,_ZNSt10_HashtableImSt4pairIKmSt6vectorIS2_IS0_IbN11MetaPhysicL10DualNumberIdNS3_28SemiDynamicSparseNumberArrayIdmNS3_8NWrapperILm64EEEEELb1EEEESaISA_EESaISC_EEESaISF_ENSt8__detail10_Select1stESt8equal_toImESt4hashImENSH_18_Mod_range_hashingENSH_20_Default_ranged_hashENSH_20_Prime_rehash_policyENSH_17_Hashtable_traitsILb0ELb0ELb1EEEE21_M_deallocate_bucketsEv
FN:456,_ZNSt10_HashtableINSt7__cxx1112basic_stringIcSt11char_traitsIcESaIcEEESt4pairIKS5_St6vectorISt10unique_ptrI10MooseArrayIdESt14default_deleteISB_EESaISE_EEESaISH_ENSt8__detail10_Select1stESt8equal_toIS5_ESt4hashIS5_ENSJ_18_Mod_range_hashingENSJ_20_Default_ranged_hashENSJ_20_Prime_rehash_policyENSJ_17_Hashtable_traitsILb1ELb0ELb1EEEE21_M_deallocate_bucketsEv
FN:1924,_ZNKSt10_HashtableImSt4pairIKmSt6vectorIS0_IbN11MetaPhysicL10DualNumberIdNS3_28SemiDynamicSparseNumberArrayIdmNS3_8NWrapperILm64EEEEELb1EEEESaISA_EEESaISD_ENSt8__detail10_Select1stESt8equal_toImESt4hashImENSF_18_Mod_range_hashingENSF_20_Default_ranged_hashENSF_20_Prime_rehash_policyENSF_17_Hashtable_traitsILb0ELb0ELb1EEEE19_M_find_before_nodeEmRS1_m
FN:1924,_ZNKSt10_HashtableImSt4pairIKmSt6vectorIS2_IS0_IbdESaIS3_EESaIS5_EEESaIS8_ENSt8__detail10_Select1stESt8equal_toImESt4hashImENSA_18_Mod_range_hashingENSA_20_Default_ranged_hashENSA_20_Prime_rehash_policyENSA_17_Hashtable_traitsILb0ELb0ELb1EEEE19_M_find_before_nodeEmRS1_m
FN:1924,_ZNKSt10_HashtableImSt4pairIKmSt6vectorIS0_IbdESaIS3_EEESaIS6_ENSt8__detail10_Select1stESt8equal_toImESt4hashImENS8_18_Mod_range_hashingENS8_20_Default_ranged_hashENS8_20_Prime_rehash_policyENS8_17_Hashtable_traitsILb0ELb0ELb1EEEE19_M_find_before_nodeEmRS1_m
FN:1924,_ZNKSt10_HashtableImSt4pairIKmSt6vectorIS2_IS0_IbN11MetaPhysicL10DualNumberIdNS3_28SemiDynamicSparseNumberArrayIdmNS3_8NWrapperILm64EEEEELb1EEEESaISA_EESaISC_EEESaISF_ENSt8__detail10_Select1stESt8equal_toImESt4hashImENSH_18_Mod_range_hashingENSH_20_Default_ranged_hashENSH_20_Prime_rehash_policyENSH_17_Hashtable_traitsILb0ELb0ELb1EEEE19_M_find_before_nodeEmRS1_m
FN:1954,_ZNKSt10_HashtableIjjSaIjENSt8__detail9_IdentityESt8equal_toIjESt4hashIjENS1_18_Mod_range_hashingENS1_20_Default_ranged_hashENS1_20_Prime_rehash_policyENS1_17_Hashtable_traitsILb0ELb1ELb1EEEE22_M_find_before_node_trIjEEPNS1_15_Hash_node_baseEmRKT_m
FN:1983,_ZNSt10_HashtableImSt4pairIKmSt6vectorIS2_IS0_IbN11MetaPhysicL10DualNumberIdNS3_28SemiDynamicSparseNumberArrayIdmNS3_8NWrapperILm64EEEEELb1EEEESaISA_EESaISC_EEESaISF_ENSt8__detail10_Select1stESt8equal_toImESt4hashImENSH_18_Mod_range_hashingENSH_20_Default_ranged_hashENSH_20_Prime_rehash_policyENSH_17_Hashtable_traitsILb0ELb0ELb1EEEE22_M_insert_bucket_beginEmPNSH_10_Hash_nodeISF_Lb0EEE
FN:1983,_ZNSt10_HashtableImSt4pairIKmSt6vectorIS0_IbdESaIS3_EEESaIS6_ENSt8__detail10_Select1stESt8equal_toImESt4hashImENS8_18_Mod_range_hashingENS8_20_Default_ranged_hashENS8_20_Prime_rehash_policyENS8_17_Hashtable_traitsILb0ELb0ELb1EEEE22_M_insert_bucket_beginEmPNS8_10_Hash_nodeIS6_Lb0EEE
FN:1983,_ZNSt10_HashtableImSt4pairIKmSt6vectorIS0_IbN11MetaPhysicL10DualNumberIdNS3_28SemiDynamicSparseNumberArrayIdmNS3_8NWrapperILm64EEEEELb1EEEESaISA_EEESaISD_ENSt8__detail10_Select1stESt8equal_toImESt4hashImENSF_18_Mod_range_hashingENSF_20_Default_ranged_hashENSF_20_Prime_rehash_policyENSF_17_Hashtable_traitsILb0ELb0ELb1EEEE22_M_insert_bucket_beginEmPNSF_10_Hash_nodeISD_Lb0EEE
FN:1983,_ZNSt10_HashtableIjjSaIjENSt8__detail9_IdentityESt8equal_toIjESt4hashIjENS1_18_Mod_range_hashingENS1_20_Default_ranged_hashENS1_20_Prime_rehash_policyENS1_17_Hashtable_traitsILb0ELb1ELb1EEEE22_M_insert_bucket_beginEmPNS1_10_Hash_nodeIjLb0EEE
FN:1983,_ZNSt10_HashtableImSt4pairIKmSt6vectorIS2_IS0_IbdESaIS3_EESaIS5_EEESaIS8_ENSt8__detail10_Select1stESt8equal_toImESt4hashImENSA_18_Mod_range_hashingENSA_20_Default_ranged_hashENSA_20_Prime_rehash_policyENSA_17_Hashtable_traitsILb0ELb0ELb1EEEE22_M_insert_bucket_beginEmPNSA_10_Hash_nodeIS8_Lb0EEE
FN:2142,_ZNSt10_HashtableImSt4pairIKmSt6vectorIS2_IS0_IbdESaIS3_EESaIS5_EEESaIS8_ENSt8__detail10_Select1stESt8equal_toImESt4hashImENSA_18_Mod_range_hashingENSA_20_Default_ranged_hashENSA_20_Prime_rehash_policyENSA_17_Hashtable_traitsILb0ELb0ELb1EEEE21_M_insert_unique_nodeEmmPNSA_10_Hash_nodeIS8_Lb0EEEm
FN:2142,_ZNSt10_HashtableImSt4pairIKmSt6vectorIS2_IS0_IbN11MetaPhysicL10DualNumberIdNS3_28SemiDynamicSparseNumberArrayIdmNS3_8NWrapperILm64EEEEELb1EEEESaISA_EESaISC_EEESaISF_ENSt8__detail10_Select1stESt8equal_toImESt4hashImENSH_18_Mod_range_hashingENSH_20_Default_ranged_hashENSH_20_Prime_rehash_policyENSH_17_Hashtable_traitsILb0ELb0ELb1EEEE21_M_insert_unique_nodeEmmPNSH_10_Hash_nodeISF_Lb0EEEm
FN:2142,_ZNSt10_HashtableIjjSaIjENSt8__detail9_IdentityESt8equal_toIjESt4hashIjENS1_18_Mod_range_hashingENS1_20_Default_ranged_hashENS1_20_Prime_rehash_policyENS1_17_Hashtable_traitsILb0ELb1ELb1EEEE21_M_insert_unique_nodeEmmPNS1_10_Hash_nodeIjLb0EEEm
FN:2142,_ZNSt10_HashtableImSt4pairIKmSt6vectorIS0_IbN11MetaPhysicL10DualNumberIdNS3_28SemiDynamicSparseNumberArrayIdmNS3_8NWrapperILm64EEEEELb1EEEESaISA_EEESaISD_ENSt8__detail10_Select1stESt8equal_toImESt4hashImENSF_18_Mod_range_hashingENSF_20_Default_ranged_hashENSF_20_Prime_rehash_policyENSF_17_Hashtable_traitsILb0ELb0ELb1EEEE21_M_insert_unique_nodeEmmPNSF_10_Hash_nodeISD_Lb0EEEm
FN:2142,_ZNSt10_HashtableImSt4pairIKmSt6vectorIS0_IbdESaIS3_EEESaIS6_ENSt8__detail10_Select1stESt8equal_toImESt4hashImENS8_18_Mod_range_hashingENS8_20_Default_ranged_hashENS8_20_Prime_rehash_policyENS8_17_Hashtable_traitsILb0ELb0ELb1EEEE21_M_insert_unique_nodeEmmPNS8_10_Hash_nodeIS6_Lb0EEEm
FN:2229,_ZNSt10_HashtableIjjSaIjENSt8__detail9_IdentityESt8equal_toIjESt4hashIjENS1_18_Mod_range_hashingENS1_20_Default_ranged_hashENS1_20_Prime_rehash_policyENS1_17_Hashtable_traitsILb0ELb1ELb1EEEE16_M_insert_uniqueIjjNS1_10_AllocNodeISaINS1_10_Hash_nodeIjLb0EEEEEEEESt4pairINS1_14_Node_iteratorIjLb1ELb0EEEbEOT_OT0_RKT1_
FN:2496,_ZNSt10_HashtableImSt4pairIKmSt6vectorIS0_IbN11MetaPhysicL10DualNumberIdNS3_28SemiDynamicSparseNumberArrayIdmNS3_8NWrapperILm64EEEEELb1EEEESaISA_EEESaISD_ENSt8__detail10_Select1stESt8equal_toImESt4hashImENSF_18_Mod_range_hashingENSF_20_Default_ranged_hashENSF_20_Prime_rehash_policyENSF_17_Hashtable_traitsILb0ELb0ELb1EEEE5clearEv
FN:2496,_ZNSt10_HashtableINSt7__cxx1112basic_stringIcSt11char_traitsIcESaIcEEESt4pairIKS5_St10unique_ptrI10MooseArrayIN7libMesh11VectorValueIdEEESt14default_deleteISD_EEESaISH_ENSt8__detail10_Select1stESt8equal_toIS5_ESt4hashIS5_ENSJ_18_Mod_range_hashingENSJ_20_Default_ranged_hashENSJ_20_Prime_rehash_policyENSJ_17_Hashtable_traitsILb1ELb0ELb1EEEE5clearEv
FN:2496,_ZNSt10_HashtableImSt4pairIKmSt6vectorIS2_IS0_IbN11MetaPhysicL10DualNumberIdNS3_28SemiDynamicSparseNumberArrayIdmNS3_8NWrapperILm64EEEEELb1EEEESaISA_EESaISC_EEESaISF_ENSt8__detail10_Select1stESt8equal_toImESt4hashImENSH_18_Mod_range_hashingENSH_20_Default_ranged_hashENSH_20_Prime_rehash_policyENSH_17_Hashtable_traitsILb0ELb0ELb1EEEE5clearEv
FN:2496,_ZNSt10_HashtableINSt7__cxx1112basic_stringIcSt11char_traitsIcESaIcEEESt4pairIKS5_St10unique_ptrI10MooseArrayIN5Eigen6MatrixIdLin1ELi1ELi0ELin1ELi1EEEESt14default_deleteISD_EEESaISH_ENSt8__detail10_Select1stESt8equal_toIS5_ESt4hashIS5_ENSJ_18_Mod_range_hashingENSJ_20_Default_ranged_hashENSJ_20_Prime_rehash_policyENSJ_17_Hashtable_traitsILb1ELb0ELb1EEEE5clearEv
FN:2496,_ZNSt10_HashtableIssSaIsENSt8__detail9_IdentityESt8equal_toIsESt4hashIsENS1_18_Mod_range_hashingENS1_20_Default_ranged_hashENS1_20_Prime_rehash_policyENS1_17_Hashtable_traitsILb0ELb1ELb1EEEE5clearEv
FN:2496,_ZNSt10_HashtableImSt4pairIKmSt6vectorIS2_IS0_IbdESaIS3_EESaIS5_EEESaIS8_ENSt8__detail10_Select1stESt8equal_toImESt4hashImENSA_18_Mod_range_hashingENSA_20_Default_ranged_hashENSA_20_Prime_rehash_policyENSA_17_Hashtable_traitsILb0ELb0ELb1EEEE5clearEv
FN:2496,_ZNSt10_HashtableIjSt4pairIKjjESaIS2_ENSt8__detail10_Select1stESt8equal_toIjESt4hashIjENS4_18_Mod_range_hashingENS4_20_Default_ranged_hashENS4_20_Prime_rehash_policyENS4_17_Hashtable_traitsILb0ELb0ELb1EEEE5clearEv
FN:2496,_ZNSt10_HashtableINSt7__cxx1112basic_stringIcSt11char_traitsIcESaIcEEESt4pairIKS5_St6vectorIjSaIjEEESaISB_ENSt8__detail10_Select1stESt8equal_toIS5_ESt4hashIS5_ENSD_18_Mod_range_hashingENSD_20_Default_ranged_hashENSD_20_Prime_rehash_policyENSD_17_Hashtable_traitsILb1ELb0ELb1EEEE5clearEv
FN:2496,_ZNSt10_HashtableINSt7__cxx1112basic_stringIcSt11char_traitsIcESaIcEEESt4pairIKS5_St6vectorIP22MooseVariableFieldBaseSaISA_EEESaISD_ENSt8__detail10_Select1stESt8equal_toIS5_ESt4hashIS5_ENSF_18_Mod_range_hashingENSF_20_Default_ranged_hashENSF_20_Prime_rehash_policyENSF_17_Hashtable_traitsILb1ELb0ELb1EEEE5clearEv
FN:2496,_ZNSt10_HashtableINSt7__cxx1112basic_stringIcSt11char_traitsIcESaIcEEESt4pairIKS5_St10unique_ptrI10MooseArrayIN7libMesh11VectorValueIN11MetaPhysicL10DualNumberIdNSC_28SemiDynamicSparseNumberArrayIdmNSC_8NWrapperILm64EEEEELb1EEEEEESt14default_deleteISK_EEESaISO_ENSt8__detail10_Select1stESt8equal_toIS5_ESt4hashIS5_ENSQ_18_Mod_range_hashingENSQ_20_Default_ranged_hashENSQ_20_Prime_rehash_policyENSQ_17_Hashtable_traitsILb1ELb0ELb1EEEE5clearEv
FN:2496,_ZNSt10_HashtableINSt7__cxx1112basic_stringIcSt11char_traitsIcESaIcEEESt4pairIKS5_St6vectorISt10unique_ptrI10MooseArrayIdESt14default_deleteISB_EESaISE_EEESaISH_ENSt8__detail10_Select1stESt8equal_toIS5_ESt4hashIS5_ENSJ_18_Mod_range_hashingENSJ_20_Default_ranged_hashENSJ_20_Prime_rehash_policyENSJ_17_Hashtable_traitsILb1ELb0ELb1EEEE5clearEv
FN:2496,_ZNSt10_HashtableImSt4pairIKmSt6vectorIS0_IbdESaIS3_EEESaIS6_ENSt8__detail10_Select1stESt8equal_toImESt4hashImENS8_18_Mod_range_hashingENS8_20_Default_ranged_hashENS8_20_Prime_rehash_policyENS8_17_Hashtable_traitsILb0ELb0ELb1EEEE5clearEv
FN:2496,_ZNSt10_HashtableINSt7__cxx1112basic_stringIcSt11char_traitsIcESaIcEEESt4pairIKS5_S5_ESaIS8_ENSt8__detail10_Select1stESt8equal_toIS5_ESt4hashIS5_ENSA_18_Mod_range_hashingENSA_20_Default_ranged_hashENSA_20_Prime_rehash_policyENSA_17_Hashtable_traitsILb1ELb0ELb1EEEE5clearEv
FN:2496,_ZNSt10_HashtableINSt7__cxx1112basic_stringIcSt11char_traitsIcESaIcEEESt4pairIKS5_St6vectorIP19MooseVariableScalarSaISA_EEESaISD_ENSt8__detail10_Select1stESt8equal_toIS5_ESt4hashIS5_ENSF_18_Mod_range_hashingENSF_20_Default_ranged_hashENSF_20_Prime_rehash_policyENSF_17_Hashtable_traitsILb1ELb0ELb1EEEE5clearEv
FN:2496,_ZNSt10_HashtableINSt7__cxx1112basic_stringIcSt11char_traitsIcESaIcEEESt4pairIKS5_St10unique_ptrI10MooseArrayIN11MetaPhysicL10DualNumberIdNSA_28SemiDynamicSparseNumberArrayIdmNSA_8NWrapperILm64EEEEELb1EEEESt14default_deleteISH_EEESaISL_ENSt8__detail10_Select1stESt8equal_toIS5_ESt4hashIS5_ENSN_18_Mod_range_hashingENSN_20_Default_ranged_hashENSN_20_Prime_rehash_policyENSN_17_Hashtable_traitsILb1ELb0ELb1EEEE5clearEv
FN:2496,_ZNSt10_HashtableINSt7__cxx1112basic_stringIcSt11char_traitsIcESaIcEEESt4pairIKS5_St10unique_ptrI10MooseArrayIdESt14default_deleteISA_EEESaISE_ENSt8__detail10_Select1stESt8equal_toIS5_ESt4hashIS5_ENSG_18_Mod_range_hashingENSG_20_Default_ranged_hashENSG_20_Prime_rehash_policyENSG_17_Hashtable_traitsILb1ELb0ELb1EEEE5clearEv
FN:2496,_ZNSt10_HashtableIjjSaIjENSt8__detail9_IdentityESt8equal_toIjESt4hashIjENS1_18_Mod_range_hashingENS1_20_Default_ranged_hashENS1_20_Prime_rehash_policyENS1_17_Hashtable_traitsILb0ELb1ELb1EEEE5clearEv
FN:2535,_ZNSt10_HashtableImSt4pairIKmSt6vectorIS0_IbdESaIS3_EEESaIS6_ENSt8__detail10_Select1stESt8equal_toImESt4hashImENS8_18_Mod_range_hashingENS8_20_Default_ranged_hashENS8_20_Prime_rehash_policyENS8_17_Hashtable_traitsILb0ELb0ELb1EEEE9_M_rehashEmRS1_
FN:2535,_ZNSt10_HashtableImSt4pairIKmSt6vectorIS0_IbN11MetaPhysicL10DualNumberIdNS3_28SemiDynamicSparseNumberArrayIdmNS3_8NWrapperILm64EEEEELb1EEEESaISA_EEESaISD_ENSt8__detail10_Select1stESt8equal_toImESt4hashImENSF_18_Mod_range_hashingENSF_20_Default_ranged_hashENSF_20_Prime_rehash_policyENSF_17_Hashtable_traitsILb0ELb0ELb1EEEE9_M_rehashEmRS1_
FN:2535,_ZNSt10_HashtableImSt4pairIKmSt6vectorIS2_IS0_IbdESaIS3_EESaIS5_EEESaIS8_ENSt8__detail10_Select1stESt8equal_toImESt4hashImENSA_18_Mod_range_hashingENSA_20_Default_ranged_hashENSA_20_Prime_rehash_policyENSA_17_Hashtable_traitsILb0ELb0ELb1EEEE9_M_rehashEmRS1_
FN:2535,_ZNSt10_HashtableIjjSaIjENSt8__detail9_IdentityESt8equal_toIjESt4hashIjENS1_18_Mod_range_hashingENS1_20_Default_ranged_hashENS1_20_Prime_rehash_policyENS1_17_Hashtable_traitsILb0ELb1ELb1EEEE9_M_rehashEmRKm
FN:2535,_ZNSt10_HashtableImSt4pairIKmSt6vectorIS2_IS0_IbN11MetaPhysicL10DualNumberIdNS3_28SemiDynamicSparseNumberArrayIdmNS3_8NWrapperILm64EEEEELb1EEEESaISA_EESaISC_EEESaISF_ENSt8__detail10_Select1stESt8equal_toImESt4hashImENSH_18_Mod_range_hashingENSH_20_Default_ranged_hashENSH_20_Prime_rehash_policyENSH_17_Hashtable_traitsILb0ELb0ELb1EEEE9_M_rehashEmRS1_
FN:2558,_ZNSt10_HashtableImSt4pairIKmSt6vectorIS0_IbdESaIS3_EEESaIS6_ENSt8__detail10_Select1stESt8equal_toImESt4hashImENS8_18_Mod_range_hashingENS8_20_Default_ranged_hashENS8_20_Prime_rehash_policyENS8_17_Hashtable_traitsILb0ELb0ELb1EEEE13_M_rehash_auxEmSt17integral_constantIbLb1EE
FN:2558,_ZNSt10_HashtableImSt4pairIKmSt6vectorIS2_IS0_IbdESaIS3_EESaIS5_EEESaIS8_ENSt8__detail10_Select1stESt8equal_toImESt4hashImENSA_18_Mod_range_hashingENSA_20_Default_ranged_hashENSA_20_Prime_rehash_policyENSA_17_Hashtable_traitsILb0ELb0ELb1EEEE13_M_rehash_auxEmSt17integral_constantIbLb1EE
FN:2558,_ZNSt10_HashtableIjjSaIjENSt8__detail9_IdentityESt8equal_toIjESt4hashIjENS1_18_Mod_range_hashingENS1_20_Default_ranged_hashENS1_20_Prime_rehash_policyENS1_17_Hashtable_traitsILb0ELb1ELb1EEEE13_M_rehash_auxEmSt17integral_constantIbLb1EE
FN:2558,_ZNSt10_HashtableImSt4pairIKmSt6vectorIS0_IbN11MetaPhysicL10DualNumberIdNS3_28SemiDynamicSparseNumberArrayIdmNS3_8NWrapperILm64EEEEELb1EEEESaISA_EEESaISD_ENSt8__detail10_Select1stESt8equal_toImESt4hashImENSF_18_Mod_range_hashingENSF_20_Default_ranged_hashENSF_20_Prime_rehash_policyENSF_17_Hashtable_traitsILb0ELb0ELb1EEEE13_M_rehash_auxEmSt17integral_constantIbLb1EE
FN:2558,_ZNSt10_HashtableImSt4pairIKmSt6vectorIS2_IS0_IbN11MetaPhysicL10DualNumberIdNS3_28SemiDynamicSparseNumberArrayIdmNS3_8NWrapperILm64EEEEELb1EEEESaISA_EESaISC_EEESaISF_ENSt8__detail10_Select1stESt8equal_toImESt4hashImENSH_18_Mod_range_hashingENSH_20_Default_ranged_hashENSH_20_Prime_rehash_policyENSH_17_Hashtable_traitsILb0ELb0ELb1EEEE13_M_rehash_auxEmSt17integral_constantIbLb1EE
FNDA:0,_ZNSt10_HashtableImSt4pairIKmSt6vectorIS2_IS0_IbN11MetaPhysicL10DualNumberIdNS3_28SemiDynamicSparseNumberArrayIdmNS3_8NWrapperILm64EEEEELb1EEEESaISA_EESaISC_EEESaISF_ENSt8__detail10_Select1stESt8equal_toImESt4hashImENSH_18_Mod_range_hashingENSH_20_Default_ranged_hashENSH_20_Prime_rehash_policyENSH_17_Hashtable_traitsILb0ELb0ELb1EEEE22_M_insert_bucket_beginEmPNSH_10_Hash_nodeISF_Lb0EEE
FNDA:0,_ZNSt10_HashtableINSt7__cxx1112basic_stringIcSt11char_traitsIcESaIcEEESt4pairIKS5_St10unique_ptrI10MooseArrayIN5Eigen6MatrixIdLin1ELi1ELi0ELin1ELi1EEEESt14default_deleteISD_EEESaISH_ENSt8__detail10_Select1stESt8equal_toIS5_ESt4hashIS5_ENSJ_18_Mod_range_hashingENSJ_20_Default_ranged_hashENSJ_20_Prime_rehash_policyENSJ_17_Hashtable_traitsILb1ELb0ELb1EEEE5clearEv
FNDA:0,_ZNKSt10_HashtableImSt4pairIKmSt6vectorIS2_IS0_IbdESaIS3_EESaIS5_EEESaIS8_ENSt8__detail10_Select1stESt8equal_toImESt4hashImENSA_18_Mod_range_hashingENSA_20_Default_ranged_hashENSA_20_Prime_rehash_policyENSA_17_Hashtable_traitsILb0ELb0ELb1EEEE19_M_find_before_nodeEmRS1_m
FNDA:0,_ZNSt10_HashtableIjjSaIjENSt8__detail9_IdentityESt8equal_toIjESt4hashIjENS1_18_Mod_range_hashingENS1_20_Default_ranged_hashENS1_20_Prime_rehash_policyENS1_17_Hashtable_traitsILb0ELb1ELb1EEEE21_M_insert_unique_nodeEmmPNS1_10_Hash_nodeIjLb0EEEm
FNDA:297,_ZNSt10_HashtableINSt7__cxx1112basic_stringIcSt11char_traitsIcESaIcEEESt4pairIKS5_St10unique_ptrI10MooseArrayIdESt14default_deleteISA_EEESaISE_ENSt8__detail10_Select1stESt8equal_toIS5_ESt4hashIS5_ENSG_18_Mod_range_hashingENSG_20_Default_ranged_hashENSG_20_Prime_rehash_policyENSG_17_Hashtable_traitsILb1ELb0ELb1EEEE21_M_deallocate_bucketsEv
FNDA:6,_ZNSt10_HashtableIssSaIsENSt8__detail9_IdentityESt8equal_toIsESt4hashIsENS1_18_Mod_range_hashingENS1_20_Default_ranged_hashENS1_20_Prime_rehash_policyENS1_17_Hashtable_traitsILb0ELb1ELb1EEEE21_M_deallocate_bucketsEv
FNDA:594,_ZNSt10_HashtableINSt7__cxx1112basic_stringIcSt11char_traitsIcESaIcEEESt4pairIKS5_St6vectorIP22MooseVariableFieldBaseSaISA_EEESaISD_ENSt8__detail10_Select1stESt8equal_toIS5_ESt4hashIS5_ENSF_18_Mod_range_hashingENSF_20_Default_ranged_hashENSF_20_Prime_rehash_policyENSF_17_Hashtable_traitsILb1ELb0ELb1EEEE21_M_deallocate_bucketsEv
FNDA:0,_ZNKSt10_HashtableImSt4pairIKmSt6vectorIS2_IS0_IbN11MetaPhysicL10DualNumberIdNS3_28SemiDynamicSparseNumberArrayIdmNS3_8NWrapperILm64EEEEELb1EEEESaISA_EESaISC_EEESaISF_ENSt8__detail10_Select1stESt8equal_toImESt4hashImENSH_18_Mod_range_hashingENSH_20_Default_ranged_hashENSH_20_Prime_rehash_policyENSH_17_Hashtable_traitsILb0ELb0ELb1EEEE19_M_find_before_nodeEmRS1_m
FNDA:0,_ZNSt10_HashtableImSt4pairIKmSt6vectorIS0_IbN11MetaPhysicL10DualNumberIdNS3_28SemiDynamicSparseNumberArrayIdmNS3_8NWrapperILm64EEEEELb1EEEESaISA_EEESaISD_ENSt8__detail10_Select1stESt8equal_toImESt4hashImENSF_18_Mod_range_hashingENSF_20_Default_ranged_hashENSF_20_Prime_rehash_policyENSF_17_Hashtable_traitsILb0ELb0ELb1EEEE22_M_insert_bucket_beginEmPNSF_10_Hash_nodeISD_Lb0EEE
FNDA:0,_ZNSt10_HashtableImSt4pairIKmSt6vectorIS2_IS0_IbdESaIS3_EESaIS5_EEESaIS8_ENSt8__detail10_Select1stESt8equal_toImESt4hashImENSA_18_Mod_range_hashingENSA_20_Default_ranged_hashENSA_20_Prime_rehash_policyENSA_17_Hashtable_traitsILb0ELb0ELb1EEEE9_M_rehashEmRS1_
FNDA:0,_ZNSt10_HashtableImSt4pairIKmSt6vectorIS0_IbdESaIS3_EEESaIS6_ENSt8__detail10_Select1stESt8equal_toImESt4hashImENS8_18_Mod_range_hashingENS8_20_Default_ranged_hashENS8_20_Prime_rehash_policyENS8_17_Hashtable_traitsILb0ELb0ELb1EEEE22_M_insert_bucket_beginEmPNS8_10_Hash_nodeIS6_Lb0EEE
FNDA:0,_ZNKSt10_HashtableImSt4pairIKmSt6vectorIS0_IbdESaIS3_EEESaIS6_ENSt8__detail10_Select1stESt8equal_toImESt4hashImENS8_18_Mod_range_hashingENS8_20_Default_ranged_hashENS8_20_Prime_rehash_policyENS8_17_Hashtable_traitsILb0ELb0ELb1EEEE19_M_find_before_nodeEmRS1_m
FNDA:0,_ZNSt10_HashtableImSt4pairIKmSt6vectorIS0_IbN11MetaPhysicL10DualNumberIdNS3_28SemiDynamicSparseNumberArrayIdmNS3_8NWrapperILm64EEEEELb1EEEESaISA_EEESaISD_ENSt8__detail10_Select1stESt8equal_toImESt4hashImENSF_18_Mod_range_hashingENSF_20_Default_ranged_hashENSF_20_Prime_rehash_policyENSF_17_Hashtable_traitsILb0ELb0ELb1EEEE21_M_insert_unique_nodeEmmPNSF_10_Hash_nodeISD_Lb0EEEm
FNDA:0,_ZNSt10_HashtableImSt4pairIKmSt6vectorIS0_IbN11MetaPhysicL10DualNumberIdNS3_28SemiDynamicSparseNumberArrayIdmNS3_8NWrapperILm64EEEEELb1EEEESaISA_EEESaISD_ENSt8__detail10_Select1stESt8equal_toImESt4hashImENSF_18_Mod_range_hashingENSF_20_Default_ranged_hashENSF_20_Prime_rehash_policyENSF_17_Hashtable_traitsILb0ELb0ELb1EEEE5clearEv
FNDA:0,_ZNSt10_HashtableImSt4pairIKmSt6vectorIS2_IS0_IbN11MetaPhysicL10DualNumberIdNS3_28SemiDynamicSparseNumberArrayIdmNS3_8NWrapperILm64EEEEELb1EEEESaISA_EESaISC_EEESaISF_ENSt8__detail10_Select1stESt8equal_toImESt4hashImENSH_18_Mod_range_hashingENSH_20_Default_ranged_hashENSH_20_Prime_rehash_policyENSH_17_Hashtable_traitsILb0ELb0ELb1EEEE21_M_insert_unique_nodeEmmPNSH_10_Hash_nodeISF_Lb0EEEm
FNDA:0,_ZNSt10_HashtableImSt4pairIKmSt6vectorIS0_IbdESaIS3_EEESaIS6_ENSt8__detail10_Select1stESt8equal_toImESt4hashImENS8_18_Mod_range_hashingENS8_20_Default_ranged_hashENS8_20_Prime_rehash_policyENS8_17_Hashtable_traitsILb0ELb0ELb1EEEE21_M_deallocate_bucketsEv
FNDA:0,_ZNSt10_HashtableImSt4pairIKmSt6vectorIS2_IS0_IbdESaIS3_EESaIS5_EEESaIS8_ENSt8__detail10_Select1stESt8equal_toImESt4hashImENSA_18_Mod_range_hashingENSA_20_Default_ranged_hashENSA_20_Prime_rehash_policyENSA_17_Hashtable_traitsILb0ELb0ELb1EEEE21_M_insert_unique_nodeEmmPNSA_10_Hash_nodeIS8_Lb0EEEm
FNDA:594,_ZNSt10_HashtableINSt7__cxx1112basic_stringIcSt11char_traitsIcESaIcEEESt4pairIKS5_St10unique_ptrI10MooseArrayIN11MetaPhysicL10DualNumberIdNSA_28SemiDynamicSparseNumberArrayIdmNSA_8NWrapperILm64EEEEELb1EEEESt14default_deleteISH_EEESaISL_ENSt8__detail10_Select1stESt8equal_toIS5_ESt4hashIS5_ENSN_18_Mod_range_hashingENSN_20_Default_ranged_hashENSN_20_Prime_rehash_policyENSN_17_Hashtable_traitsILb1ELb0ELb1EEEE21_M_deallocate_bucketsEv
FNDA:460,_ZNSt10_HashtableIjjSaIjENSt8__detail9_IdentityESt8equal_toIjESt4hashIjENS1_18_Mod_range_hashingENS1_20_Default_ranged_hashENS1_20_Prime_rehash_policyENS1_17_Hashtable_traitsILb0ELb1ELb1EEEE21_M_deallocate_bucketsEv
FNDA:0,_ZNSt10_HashtableImSt4pairIKmSt6vectorIS2_IS0_IbN11MetaPhysicL10DualNumberIdNS3_28SemiDynamicSparseNumberArrayIdmNS3_8NWrapperILm64EEEEELb1EEEESaISA_EESaISC_EEESaISF_ENSt8__detail10_Select1stESt8equal_toImESt4hashImENSH_18_Mod_range_hashingENSH_20_Default_ranged_hashENSH_20_Prime_rehash_policyENSH_17_Hashtable_traitsILb0ELb0ELb1EEEE5clearEv
FNDA:26,_ZNSt10_HashtableINSt7__cxx1112basic_stringIcSt11char_traitsIcESaIcEEESt4pairIKS5_S5_ESaIS8_ENSt8__detail10_Select1stESt8equal_toIS5_ESt4hashIS5_ENSA_18_Mod_range_hashingENSA_20_Default_ranged_hashENSA_20_Prime_rehash_policyENSA_17_Hashtable_traitsILb1ELb0ELb1EEEE21_M_deallocate_bucketsEv
FNDA:0,_ZNSt10_HashtableINSt7__cxx1112basic_stringIcSt11char_traitsIcESaIcEEESt4pairIKS5_St10unique_ptrI10MooseArrayIN7libMesh11VectorValueIdEEESt14default_deleteISD_EEESaISH_ENSt8__detail10_Select1stESt8equal_toIS5_ESt4hashIS5_ENSJ_18_Mod_range_hashingENSJ_20_Default_ranged_hashENSJ_20_Prime_rehash_policyENSJ_17_Hashtable_traitsILb1ELb0ELb1EEEE5clearEv
FNDA:0,_ZNSt10_HashtableImSt4pairIKmSt6vectorIS0_IbdESaIS3_EEESaIS6_ENSt8__detail10_Select1stESt8equal_toImESt4hashImENS8_18_Mod_range_hashingENS8_20_Default_ranged_hashENS8_20_Prime_rehash_policyENS8_17_Hashtable_traitsILb0ELb0ELb1EEEE9_M_rehashEmRS1_
FNDA:297,_ZNSt10_HashtableINSt7__cxx1112basic_stringIcSt11char_traitsIcESaIcEEESt4pairIKS5_St10unique_ptrI10MooseArrayIN7libMesh11VectorValueIN11MetaPhysicL10DualNumberIdNSC_28SemiDynamicSparseNumberArrayIdmNSC_8NWrapperILm64EEEEELb1EEEEEESt14default_deleteISK_EEESaISO_ENSt8__detail10_Select1stESt8equal_toIS5_ESt4hashIS5_ENSQ_18_Mod_range_hashingENSQ_20_Default_ranged_hashENSQ_20_Prime_rehash_policyENSQ_17_Hashtable_traitsILb1ELb0ELb1EEEE21_M_deallocate_bucketsEv
FNDA:0,_ZNSt10_HashtableImSt4pairIKmSt6vectorIS0_IbdESaIS3_EEESaIS6_ENSt8__detail10_Select1stESt8equal_toImESt4hashImENS8_18_Mod_range_hashingENS8_20_Default_ranged_hashENS8_20_Prime_rehash_policyENS8_17_Hashtable_traitsILb0ELb0ELb1EEEE13_M_rehash_auxEmSt17integral_constantIbLb1EE
FNDA:0,_ZNSt10_HashtableImSt4pairIKmSt6vectorIS2_IS0_IbdESaIS3_EESaIS5_EEESaIS8_ENSt8__detail10_Select1stESt8equal_toImESt4hashImENSA_18_Mod_range_hashingENSA_20_Default_ranged_hashENSA_20_Prime_rehash_policyENSA_17_Hashtable_traitsILb0ELb0ELb1EEEE13_M_rehash_auxEmSt17integral_constantIbLb1EE
FNDA:163,_ZNSt10_HashtableIjSt4pairIKjjESaIS2_ENSt8__detail10_Select1stESt8equal_toIjESt4hashIjENS4_18_Mod_range_hashingENS4_20_Default_ranged_hashENS4_20_Prime_rehash_policyENS4_17_Hashtable_traitsILb0ELb0ELb1EEEE21_M_deallocate_bucketsEv
FNDA:0,_ZNSt10_HashtableImSt4pairIKmSt6vectorIS0_IbN11MetaPhysicL10DualNumberIdNS3_28SemiDynamicSparseNumberArrayIdmNS3_8NWrapperILm64EEEEELb1EEEESaISA_EEESaISD_ENSt8__detail10_Select1stESt8equal_toImESt4hashImENSF_18_Mod_range_hashingENSF_20_Default_ranged_hashENSF_20_Prime_rehash_policyENSF_17_Hashtable_traitsILb0ELb0ELb1EEEE13_M_rehash_auxEmSt17integral_constantIbLb1EE
FNDA:0,_ZNSt10_HashtableIjjSaIjENSt8__detail9_IdentityESt8equal_toIjESt4hashIjENS1_18_Mod_range_hashingENS1_20_Default_ranged_hashENS1_20_Prime_rehash_policyENS1_17_Hashtable_traitsILb0ELb1ELb1EEEE13_M_rehash_auxEmSt17integral_constantIbLb1EE
FNDA:0,_ZNKSt10_HashtableImSt4pairIKmSt6vectorIS0_IbN11MetaPhysicL10DualNumberIdNS3_28SemiDynamicSparseNumberArrayIdmNS3_8NWrapperILm64EEEEELb1EEEESaISA_EEESaISD_ENSt8__detail10_Select1stESt8equal_toImESt4hashImENSF_18_Mod_range_hashingENSF_20_Default_ranged_hashENSF_20_Prime_rehash_policyENSF_17_Hashtable_traitsILb0ELb0ELb1EEEE19_M_find_before_nodeEmRS1_m
FNDA:0,_ZNSt10_HashtableImSt4pairIKmSt6vectorIS0_IbN11MetaPhysicL10DualNumberIdNS3_28SemiDynamicSparseNumberArrayIdmNS3_8NWrapperILm64EEEEELb1EEEESaISA_EEESaISD_ENSt8__detail10_Select1stESt8equal_toImESt4hashImENSF_18_Mod_range_hashingENSF_20_Default_ranged_hashENSF_20_Prime_rehash_policyENSF_17_Hashtable_traitsILb0ELb0ELb1EEEE9_M_rehashEmRS1_
FNDA:0,_ZNSt10_HashtableImSt4pairIKmSt6vectorIS0_IbN11MetaPhysicL10DualNumberIdNS3_28SemiDynamicSparseNumberArrayIdmNS3_8NWrapperILm64EEEEELb1EEEESaISA_EEESaISD_ENSt8__detail10_Select1stESt8equal_toImESt4hashImENSF_18_Mod_range_hashingENSF_20_Default_ranged_hashENSF_20_Prime_rehash_policyENSF_17_Hashtable_traitsILb0ELb0ELb1EEEE12_Scoped_nodeD2Ev
FNDA:0,_ZNSt10_HashtableINSt7__cxx1112basic_stringIcSt11char_traitsIcESaIcEEESt4pairIKS5_S5_ESaIS8_ENSt8__detail10_Select1stESt8equal_toIS5_ESt4hashIS5_ENSA_18_Mod_range_hashingENSA_20_Default_ranged_hashENSA_20_Prime_rehash_policyENSA_17_Hashtable_traitsILb1ELb0ELb1EEEE5clearEv
FNDA:0,_ZNSt10_HashtableINSt7__cxx1112basic_stringIcSt11char_traitsIcESaIcEEESt4pairIKS5_St6vectorISt10unique_ptrI10MooseArrayIdESt14default_deleteISB_EESaISE_EEESaISH_ENSt8__detail10_Select1stESt8equal_toIS5_ESt4hashIS5_ENSJ_18_Mod_range_hashingENSJ_20_Default_ranged_hashENSJ_20_Prime_rehash_policyENSJ_17_Hashtable_traitsILb1ELb0ELb1EEEE5clearEv
FNDA:0,_ZNSt10_HashtableImSt4pairIKmSt6vectorIS0_IbdESaIS3_EEESaIS6_ENSt8__detail10_Select1stESt8equal_toImESt4hashImENS8_18_Mod_range_hashingENS8_20_Default_ranged_hashENS8_20_Prime_rehash_policyENS8_17_Hashtable_traitsILb0ELb0ELb1EEEE5clearEv
FNDA:0,_ZNSt10_HashtableImSt4pairIKmSt6vectorIS2_IS0_IbN11MetaPhysicL10DualNumberIdNS3_28SemiDynamicSparseNumberArrayIdmNS3_8NWrapperILm64EEEEELb1EEEESaISA_EESaISC_EEESaISF_ENSt8__detail10_Select1stESt8equal_toImESt4hashImENSH_18_Mod_range_hashingENSH_20_Default_ranged_hashENSH_20_Prime_rehash_policyENSH_17_Hashtable_traitsILb0ELb0ELb1EEEE13_M_rehash_auxEmSt17integral_constantIbLb1EE
FNDA:0,_ZNSt10_HashtableImSt4pairIKmSt6vectorIS2_IS0_IbdESaIS3_EESaIS5_EEESaIS8_ENSt8__detail10_Select1stESt8equal_toImESt4hashImENSA_18_Mod_range_hashingENSA_20_Default_ranged_hashENSA_20_Prime_rehash_policyENSA_17_Hashtable_traitsILb0ELb0ELb1EEEE12_Scoped_nodeD2Ev
FNDA:0,_ZNSt10_HashtableIjjSaIjENSt8__detail9_IdentityESt8equal_toIjESt4hashIjENS1_18_Mod_range_hashingENS1_20_Default_ranged_hashENS1_20_Prime_rehash_policyENS1_17_Hashtable_traitsILb0ELb1ELb1EEEE16_M_insert_uniqueIjjNS1_10_AllocNodeISaINS1_10_Hash_nodeIjLb0EEEEEEEESt4pairINS1_14_Node_iteratorIjLb1ELb0EEEbEOT_OT0_RKT1_
FNDA:0,_ZNSt10_HashtableImSt4pairIKmSt6vectorIS0_IbdESaIS3_EEESaIS6_ENSt8__detail10_Select1stESt8equal_toImESt4hashImENS8_18_Mod_range_hashingENS8_20_Default_ranged_hashENS8_20_Prime_rehash_policyENS8_17_Hashtable_traitsILb0ELb0ELb1EEEE12_Scoped_nodeD2Ev
FNDA:297,_ZNSt10_HashtableINSt7__cxx1112basic_stringIcSt11char_traitsIcESaIcEEESt4pairIKS5_St10unique_ptrI10MooseArrayIN7libMesh11VectorValueIdEEESt14default_deleteISD_EEESaISH_ENSt8__detail10_Select1stESt8equal_toIS5_ESt4hashIS5_ENSJ_18_Mod_range_hashingENSJ_20_Default_ranged_hashENSJ_20_Prime_rehash_policyENSJ_17_Hashtable_traitsILb1ELb0ELb1EEEE21_M_deallocate_bucketsEv
FNDA:0,_ZNSt10_HashtableImSt4pairIKmSt6vectorIS2_IS0_IbN11MetaPhysicL10DualNumberIdNS3_28SemiDynamicSparseNumberArrayIdmNS3_8NWrapperILm64EEEEELb1EEEESaISA_EESaISC_EEESaISF_ENSt8__detail10_Select1stESt8equal_toImESt4hashImENSH_18_Mod_range_hashingENSH_20_Default_ranged_hashENSH_20_Prime_rehash_policyENSH_17_Hashtable_traitsILb0ELb0ELb1EEEE9_M_rehashEmRS1_
FNDA:0,_ZNSt10_HashtableINSt7__cxx1112basic_stringIcSt11char_traitsIcESaIcEEESt4pairIKS5_St6vectorIP19MooseVariableScalarSaISA_EEESaISD_ENSt8__detail10_Select1stESt8equal_toIS5_ESt4hashIS5_ENSF_18_Mod_range_hashingENSF_20_Default_ranged_hashENSF_20_Prime_rehash_policyENSF_17_Hashtable_traitsILb1ELb0ELb1EEEE5clearEv
FNDA:0,_ZNSt10_HashtableImSt4pairIKmSt6vectorIS2_IS0_IbN11MetaPhysicL10DualNumberIdNS3_28SemiDynamicSparseNumberArrayIdmNS3_8NWrapperILm64EEEEELb1EEEESaISA_EESaISC_EEESaISF_ENSt8__detail10_Select1stESt8equal_toImESt4hashImENSH_18_Mod_range_hashingENSH_20_Default_ranged_hashENSH_20_Prime_rehash_policyENSH_17_Hashtable_traitsILb0ELb0ELb1EEEE12_Scoped_nodeD2Ev
FNDA:0,_ZNSt10_HashtableINSt7__cxx1112basic_stringIcSt11char_traitsIcESaIcEEESt4pairIKS5_St10unique_ptrI10MooseArrayIN11MetaPhysicL10DualNumberIdNSA_28SemiDynamicSparseNumberArrayIdmNSA_8NWrapperILm64EEEEELb1EEEESt14default_deleteISH_EEESaISL_ENSt8__detail10_Select1stESt8equal_toIS5_ESt4hashIS5_ENSN_18_Mod_range_hashingENSN_20_Default_ranged_hashENSN_20_Prime_rehash_policyENSN_17_Hashtable_traitsILb1ELb0ELb1EEEE5clearEv
FNDA:0,_ZNSt10_HashtableINSt7__cxx1112basic_stringIcSt11char_traitsIcESaIcEEESt4pairIKS5_St10unique_ptrI10MooseArrayIdESt14default_deleteISA_EEESaISE_ENSt8__detail10_Select1stESt8equal_toIS5_ESt4hashIS5_ENSG_18_Mod_range_hashingENSG_20_Default_ranged_hashENSG_20_Prime_rehash_policyENSG_17_Hashtable_traitsILb1ELb0ELb1EEEE5clearEv
FNDA:0,_ZNSt10_HashtableImSt4pairIKmSt6vectorIS0_IbdESaIS3_EEESaIS6_ENSt8__detail10_Select1stESt8equal_toImESt4hashImENS8_18_Mod_range_hashingENS8_20_Default_ranged_hashENS8_20_Prime_rehash_policyENS8_17_Hashtable_traitsILb0ELb0ELb1EEEE21_M_insert_unique_nodeEmmPNS8_10_Hash_nodeIS6_Lb0EEEm
FNDA:0,_ZNSt10_HashtableImSt4pairIKmSt6vectorIS2_IS0_IbdESaIS3_EESaIS5_EEESaIS8_ENSt8__detail10_Select1stESt8equal_toImESt4hashImENSA_18_Mod_range_hashingENSA_20_Default_ranged_hashENSA_20_Prime_rehash_policyENSA_17_Hashtable_traitsILb0ELb0ELb1EEEE22_M_insert_bucket_beginEmPNSA_10_Hash_nodeIS8_Lb0EEE
FNDA:0,_ZNSt10_HashtableImSt4pairIKmSt6vectorIS2_IS0_IbN11MetaPhysicL10DualNumberIdNS3_28SemiDynamicSparseNumberArrayIdmNS3_8NWrapperILm64EEEEELb1EEEESaISA_EESaISC_EEESaISF_ENSt8__detail10_Select1stESt8equal_toImESt4hashImENSH_18_Mod_range_hashingENSH_20_Default_ranged_hashENSH_20_Prime_rehash_policyENSH_17_Hashtable_traitsILb0ELb0ELb1EEEE21_M_deallocate_bucketsEv
FNDA:297,_ZNSt10_HashtableIjjSaIjENSt8__detail9_IdentityESt8equal_toIjESt4hashIjENS1_18_Mod_range_hashingENS1_20_Default_ranged_hashENS1_20_Prime_rehash_policyENS1_17_Hashtable_traitsILb0ELb1ELb1EEEE5clearEv
FNDA:297,_ZNSt10_HashtableINSt7__cxx1112basic_stringIcSt11char_traitsIcESaIcEEESt4pairIKS5_St6vectorISt10unique_ptrI10MooseArrayIdESt14default_deleteISB_EESaISE_EEESaISH_ENSt8__detail10_Select1stESt8equal_toIS5_ESt4hashIS5_ENSJ_18_Mod_range_hashingENSJ_20_Default_ranged_hashENSJ_20_Prime_rehash_policyENSJ_17_Hashtable_traitsILb1ELb0ELb1EEEE21_M_deallocate_bucketsEv
FNDA:594,_ZNSt10_HashtableINSt7__cxx1112basic_stringIcSt11char_traitsIcESaIcEEESt4pairIKS5_St6vectorIP19MooseVariableScalarSaISA_EEESaISD_ENSt8__detail10_Select1stESt8equal_toIS5_ESt4hashIS5_ENSF_18_Mod_range_hashingENSF_20_Default_ranged_hashENSF_20_Prime_rehash_policyENSF_17_Hashtable_traitsILb1ELb0ELb1EEEE21_M_deallocate_bucketsEv
FNDA:0,_ZNSt10_HashtableImSt4pairIKmSt6vectorIS2_IS0_IbdESaIS3_EESaIS5_EEESaIS8_ENSt8__detail10_Select1stESt8equal_toImESt4hashImENSA_18_Mod_range_hashingENSA_20_Default_ranged_hashENSA_20_Prime_rehash_policyENSA_17_Hashtable_traitsILb0ELb0ELb1EEEE21_M_deallocate_bucketsEv
FNDA:0,_ZNSt10_HashtableIssSaIsENSt8__detail9_IdentityESt8equal_toIsESt4hashIsENS1_18_Mod_range_hashingENS1_20_Default_ranged_hashENS1_20_Prime_rehash_policyENS1_17_Hashtable_traitsILb0ELb1ELb1EEEE5clearEv
FNDA:297,_ZNSt10_HashtableINSt7__cxx1112basic_stringIcSt11char_traitsIcESaIcEEESt4pairIKS5_St10unique_ptrI10MooseArrayIN5Eigen6MatrixIdLin1ELi1ELi0ELin1ELi1EEEESt14default_deleteISD_EEESaISH_ENSt8__detail10_Select1stESt8equal_toIS5_ESt4hashIS5_ENSJ_18_Mod_range_hashingENSJ_20_Default_ranged_hashENSJ_20_Prime_rehash_policyENSJ_17_Hashtable_traitsILb1ELb0ELb1EEEE21_M_deallocate_bucketsEv
FNDA:0,_ZNSt10_HashtableIjjSaIjENSt8__detail9_IdentityESt8equal_toIjESt4hashIjENS1_18_Mod_range_hashingENS1_20_Default_ranged_hashENS1_20_Prime_rehash_policyENS1_17_Hashtable_traitsILb0ELb1ELb1EEEE22_M_insert_bucket_beginEmPNS1_10_Hash_nodeIjLb0EEE
FNDA:0,_ZNSt10_HashtableImSt4pairIKmSt6vectorIS0_IbN11MetaPhysicL10DualNumberIdNS3_28SemiDynamicSparseNumberArrayIdmNS3_8NWrapperILm64EEEEELb1EEEESaISA_EEESaISD_ENSt8__detail10_Select1stESt8equal_toImESt4hashImENSF_18_Mod_range_hashingENSF_20_Default_ranged_hashENSF_20_Prime_rehash_policyENSF_17_Hashtable_traitsILb0ELb0ELb1EEEE21_M_deallocate_bucketsEv
FNDA:297,_ZNSt10_HashtableINSt7__cxx1112basic_stringIcSt11char_traitsIcESaIcEEESt4pairIKS5_St6vectorIjSaIjEEESaISB_ENSt8__detail10_Select1stESt8equal_toIS5_ESt4hashIS5_ENSD_18_Mod_range_hashingENSD_20_Default_ranged_hashENSD_20_Prime_rehash_policyENSD_17_Hashtable_traitsILb1ELb0ELb1EEEE21_M_deallocate_bucketsEv
FNDA:0,_ZNSt10_HashtableImSt4pairIKmSt6vectorIS2_IS0_IbdESaIS3_EESaIS5_EEESaIS8_ENSt8__detail10_Select1stESt8equal_toImESt4hashImENSA_18_Mod_range_hashingENSA_20_Default_ranged_hashENSA_20_Prime_rehash_policyENSA_17_Hashtable_traitsILb0ELb0ELb1EEEE5clearEv
FNDA:0,_ZNSt10_HashtableIjjSaIjENSt8__detail9_IdentityESt8equal_toIjESt4hashIjENS1_18_Mod_range_hashingENS1_20_Default_ranged_hashENS1_20_Prime_rehash_policyENS1_17_Hashtable_traitsILb0ELb1ELb1EEEE12_Scoped_nodeD2Ev
FNDA:0,_ZNSt10_HashtableINSt7__cxx1112basic_stringIcSt11char_traitsIcESaIcEEESt4pairIKS5_St6vectorIjSaIjEEESaISB_ENSt8__detail10_Select1stESt8equal_toIS5_ESt4hashIS5_ENSD_18_Mod_range_hashingENSD_20_Default_ranged_hashENSD_20_Prime_rehash_policyENSD_17_Hashtable_traitsILb1ELb0ELb1EEEE5clearEv
FNDA:0,_ZNKSt10_HashtableIjjSaIjENSt8__detail9_IdentityESt8equal_toIjESt4hashIjENS1_18_Mod_range_hashingENS1_20_Default_ranged_hashENS1_20_Prime_rehash_policyENS1_17_Hashtable_traitsILb0ELb1ELb1EEEE22_M_find_before_node_trIjEEPNS1_15_Hash_node_baseEmRKT_m
FNDA:163,_ZNSt10_HashtableIjSt4pairIKjjESaIS2_ENSt8__detail10_Select1stESt8equal_toIjESt4hashIjENS4_18_Mod_range_hashingENS4_20_Default_ranged_hashENS4_20_Prime_rehash_policyENS4_17_Hashtable_traitsILb0ELb0ELb1EEEE5clearEv
FNDA:0,_ZNSt10_HashtableIjjSaIjENSt8__detail9_IdentityESt8equal_toIjESt4hashIjENS1_18_Mod_range_hashingENS1_20_Default_ranged_hashENS1_20_Prime_rehash_policyENS1_17_Hashtable_traitsILb0ELb1ELb1EEEE9_M_rehashEmRKm
FNDA:0,_ZNSt10_HashtableINSt7__cxx1112basic_stringIcSt11char_traitsIcESaIcEEESt4pairIKS5_St10unique_ptrI10MooseArrayIN7libMesh11VectorValueIN11MetaPhysicL10DualNumberIdNSC_28SemiDynamicSparseNumberArrayIdmNSC_8NWrapperILm64EEEEELb1EEEEEESt14default_deleteISK_EEESaISO_ENSt8__detail10_Select1stESt8equal_toIS5_ESt4hashIS5_ENSQ_18_Mod_range_hashingENSQ_20_Default_ranged_hashENSQ_20_Prime_rehash_policyENSQ_17_Hashtable_traitsILb1ELb0ELb1EEEE5clearEv
FNDA:0,_ZNSt10_HashtableINSt7__cxx1112basic_stringIcSt11char_traitsIcESaIcEEESt4pairIKS5_St6vectorIP22MooseVariableFieldBaseSaISA_EEESaISD_ENSt8__detail10_Select1stESt8equal_toIS5_ESt4hashIS5_ENSF_18_Mod_range_hashingENSF_20_Default_ranged_hashENSF_20_Prime_rehash_policyENSF_17_Hashtable_traitsILb1ELb0ELb1EEEE5clearEv
FNF:65
FNH:15
DA:301,0
DA:302,0
DA:306,0
DA:307,0
DA:308,0
DA:312,0
DA:418,4219
DA:437,0
DA:439,0
DA:440,0
DA:443,0
DA:449,4219
DA:456,4219
DA:457,4219
DA:466,0
DA:649,0
DA:794,0
DA:798,0
DA:816,0
DA:817,0
DA:818,0
DA:827,0
DA:828,0
DA:829,0
DA:906,0
DA:1584,26
DA:1585,26
DA:1924,0
DA:1930,0
DA:1931,0
DA:1934,0
DA:1938,0
DA:1940,0
DA:1954,0
DA:1960,0
DA:1961,0
DA:1964,0
DA:1968,0
DA:1970,0
DA:1983,0
DA:1987,0
DA:1991,0
DA:1992,0
DA:1999,0
DA:2000,0
DA:2002,0
DA:2005,0
DA:2007,0
DA:2009,0
DA:2142,0
DA:2148,0
DA:2150,0
DA:2153,0
DA:2155,0
DA:2162,0
DA:2163,0
DA:2164,0
DA:2229,0
DA:2235,0
DA:2236,0
DA:2237,0
DA:2238,0
DA:2243,0
DA:2244,0
DA:2245,0
DA:2254,0
DA:2255,0
DA:2256,0
DA:2257,0
DA:2496,460
DA:2500,0
DA:2501,460
DA:2502,460
DA:2503,460
DA:2504,460
DA:2505,460
DA:2535,0
DA:2541,0
DA:2543,0
DA:2547,0
DA:2548,0
DA:2550,0
DA:2558,0
DA:2564,0
DA:2566,0
DA:2571,0
DA:2573,0
DA:2574,0
DA:2575,0
DA:2576,0
DA:2577,0
DA:2582,0
DA:2583,0
DA:2589,0
DA:2590,0
DA:2591,0
DA:2592,0
LF:97
LH:12
end_of_record
TN:
SF:/usr/share/miniconda3/envs/moose/x86_64-conda-linux-gnu/include/c++/12.3.0/bits/hashtable_policy.h
FN:767,_ZNSt8__detail9_Map_baseImSt4pairIKmSt6vectorIS1_IbN11MetaPhysicL10DualNumberIdNS4_28SemiDynamicSparseNumberArrayIdmNS4_8NWrapperILm64EEEEELb1EEEESaISB_EEESaISE_ENS_10_Select1stESt8equal_toImESt4hashImENS_18_Mod_range_hashingENS_20_Default_ranged_hashENS_20_Prime_rehash_policyENS_17_Hashtable_traitsILb0ELb0ELb1EEELb1EEixERS2_
FN:767,_ZNSt8__detail9_Map_baseImSt4pairIKmSt6vectorIS3_IS1_IbN11MetaPhysicL10DualNumberIdNS4_28SemiDynamicSparseNumberArrayIdmNS4_8NWrapperILm64EEEEELb1EEEESaISB_EESaISD_EEESaISG_ENS_10_Select1stESt8equal_toImESt4hashImENS_18_Mod_range_hashingENS_20_Default_ranged_hashENS_20_Prime_rehash_policyENS_17_Hashtable_traitsILb0ELb0ELb1EEELb1EEixERS2_
FN:767,_ZNSt8__detail9_Map_baseImSt4pairIKmSt6vectorIS1_IbdESaIS4_EEESaIS7_ENS_10_Select1stESt8equal_toImESt4hashImENS_18_Mod_range_hashingENS_20_Default_ranged_hashENS_20_Prime_rehash_policyENS_17_Hashtable_traitsILb0ELb0ELb1EEELb1EEixERS2_
FN:767,_ZNSt8__detail9_Map_baseImSt4pairIKmSt6vectorIS3_IS1_IbdESaIS4_EESaIS6_EEESaIS9_ENS_10_Select1stESt8equal_toImESt4hashImENS_18_Mod_range_hashingENS_20_Default_ranged_hashENS_20_Prime_rehash_policyENS_17_Hashtable_traitsILb0ELb0ELb1EEELb1EEixERS2_
FN:1031,_ZNSt8__detail7_InsertIjjSaIjENS_9_IdentityESt8equal_toIjESt4hashIjENS_18_Mod_range_hashingENS_20_Default_ranged_hashENS_20_Prime_rehash_policyENS_17_Hashtable_traitsILb0ELb1ELb1EEELb1EE6insertEOj
FN:1960,_ZNSt8__detail16_Hashtable_allocISaINS_10_Hash_nodeISt4pairIKmSt6vectorIS4_IS2_IbdESaIS5_EESaIS7_EEELb0EEEEE16_M_allocate_nodeIJRKSt21piecewise_construct_tSt5tupleIJRS3_EESI_IJEEEEEPSB_DpOT_
FN:1960,_ZNSt8__detail16_Hashtable_allocISaINS_10_Hash_nodeISt4pairIKmSt6vectorIS4_IS2_IbN11MetaPhysicL10DualNumberIdNS5_28SemiDynamicSparseNumberArrayIdmNS5_8NWrapperILm64EEEEELb1EEEESaISC_EESaISE_EEELb0EEEEE16_M_allocate_nodeIJRKSt21piecewise_construct_tSt5tupleIJRS3_EESP_IJEEEEEPSI_DpOT_
FN:1960,_ZNSt8__detail16_Hashtable_allocISaINS_10_Hash_nodeISt4pairIKmSt6vectorIS2_IbN11MetaPhysicL10DualNumberIdNS5_28SemiDynamicSparseNumberArrayIdmNS5_8NWrapperILm64EEEEELb1EEEESaISC_EEELb0EEEEE16_M_allocate_nodeIJRKSt21piecewise_construct_tSt5tupleIJRS3_EESN_IJEEEEEPSG_DpOT_
FN:1960,_ZNSt8__detail16_Hashtable_allocISaINS_10_Hash_nodeIjLb0EEEEE16_M_allocate_nodeIJjEEEPS2_DpOT_
FN:1960,_ZNSt8__detail16_Hashtable_allocISaINS_10_Hash_nodeISt4pairIKmSt6vectorIS2_IbdESaIS5_EEELb0EEEEE16_M_allocate_nodeIJRKSt21piecewise_construct_tSt5tupleIJRS3_EESG_IJEEEEEPS9_DpOT_
FN:1982,_ZNSt8__detail16_Hashtable_allocISaINS_10_Hash_nodeISt4pairIKNSt7__cxx1112basic_stringIcSt11char_traitsIcESaIcEEESt6vectorIP19MooseVariableScalarSaISC_EEELb1EEEEE18_M_deallocate_nodeEPSG_
FN:1982,_ZNSt8__detail16_Hashtable_allocISaINS_10_Hash_nodeISt4pairIKNSt7__cxx1112basic_stringIcSt11char_traitsIcESaIcEEESt10unique_ptrI10MooseArrayIN7libMesh11VectorValueIdEEESt14default_deleteISF_EEELb1EEEEE18_M_deallocate_nodeEPSK_
FN:1982,_ZNSt8__detail16_Hashtable_allocISaINS_10_Hash_nodeISt4pairIKNSt7__cxx1112basic_stringIcSt11char_traitsIcESaIcEEESt10unique_ptrI10MooseArrayIdESt14default_deleteISC_EEELb1EEEEE18_M_deallocate_nodeEPSH_
FN:1982,_ZNSt8__detail16_Hashtable_allocISaINS_10_Hash_nodeISt4pairIKNSt7__cxx1112basic_stringIcSt11char_traitsIcESaIcEEES8_ELb1EEEEE18_M_deallocate_nodeEPSB_
FN:1982,_ZNSt8__detail16_Hashtable_allocISaINS_10_Hash_nodeISt4pairIKNSt7__cxx1112basic_stringIcSt11char_traitsIcESaIcEEESt6vectorIjSaIjEEELb1EEEEE18_M_deallocate_nodeEPSE_
FN:1982,_ZNSt8__detail16_Hashtable_allocISaINS_10_Hash_nodeISt4pairIKNSt7__cxx1112basic_stringIcSt11char_traitsIcESaIcEEESt6vectorISt10unique_ptrI10MooseArrayIdESt14default_deleteISD_EESaISG_EEELb1EEEEE18_M_deallocate_nodeEPSK_
FN:1982,_ZNSt8__detail16_Hashtable_allocISaINS_10_Hash_nodeISt4pairIKNSt7__cxx1112basic_stringIcSt11char_traitsIcESaIcEEESt10unique_ptrI10MooseArrayIN5Eigen6MatrixIdLin1ELi1ELi0ELin1ELi1EEEESt14default_deleteISF_EEELb1EEEEE18_M_deallocate_nodeEPSK_
FN:1982,_ZNSt8__detail16_Hashtable_allocISaINS_10_Hash_nodeISt4pairIKNSt7__cxx1112basic_stringIcSt11char_traitsIcESaIcEEESt10unique_ptrI10MooseArrayIN11MetaPhysicL10DualNumberIdNSC_28SemiDynamicSparseNumberArrayIdmNSC_8NWrapperILm64EEEEELb1EEEESt14default_deleteISJ_EEELb1EEEEE18_M_deallocate_nodeEPSO_
FN:1982,_ZNSt8__detail16_Hashtable_allocISaINS_10_Hash_nodeISt4pairIKNSt7__cxx1112basic_stringIcSt11char_traitsIcESaIcEEESt6vectorIP22MooseVariableFieldBaseSaISC_EEELb1EEEEE18_M_deallocate_nodeEPSG_
FN:1982,_ZNSt8__detail16_Hashtable_allocISaINS_10_Hash_nodeISt4pairIKNSt7__cxx1112basic_stringIcSt11char_traitsIcESaIcEEESt10unique_ptrI10MooseArrayIN7libMesh11VectorValueIN11MetaPhysicL10DualNumberIdNSE_28SemiDynamicSparseNumberArrayIdmNSE_8NWrapperILm64EEEEELb1EEEEEESt14default_deleteISM_EEELb1EEEEE18_M_deallocate_nodeEPSR_
FN:2000,_ZNSt8__detail16_Hashtable_allocISaINS_10_Hash_nodeISt4pairIKmSt6vectorIS4_IS2_IbN11MetaPhysicL10DualNumberIdNS5_28SemiDynamicSparseNumberArrayIdmNS5_8NWrapperILm64EEEEELb1EEEESaISC_EESaISE_EEELb0EEEEE19_M_deallocate_nodesEPSI_
FN:2000,_ZNSt8__detail16_Hashtable_allocISaINS_10_Hash_nodeISt4pairIKmSt6vectorIS4_IS2_IbdESaIS5_EESaIS7_EEELb0EEEEE19_M_deallocate_nodesEPSB_
FN:2000,_ZNSt8__detail16_Hashtable_allocISaINS_10_Hash_nodeISt4pairIKmSt6vectorIS2_IbdESaIS5_EEELb0EEEEE19_M_deallocate_nodesEPS9_
FN:2000,_ZNSt8__detail16_Hashtable_allocISaINS_10_Hash_nodeISt4pairIKmSt6vectorIS2_IbN11MetaPhysicL10DualNumberIdNS5_28SemiDynamicSparseNumberArrayIdmNS5_8NWrapperILm64EEEEELb1EEEESaISC_EEELb0EEEEE19_M_deallocate_nodesEPSG_
FN:2012,_ZNSt8__detail16_Hashtable_allocISaINS_10_Hash_nodeISt4pairIKmSt6vectorIS4_IS2_IbdESaIS5_EESaIS7_EEELb0EEEEE19_M_allocate_bucketsEm
FN:2012,_ZNSt8__detail16_Hashtable_allocISaINS_10_Hash_nodeISt4pairIKmSt6vectorIS4_IS2_IbN11MetaPhysicL10DualNumberIdNS5_28SemiDynamicSparseNumberArrayIdmNS5_8NWrapperILm64EEEEELb1EEEESaISC_EESaISE_EEELb0EEEEE19_M_allocate_bucketsEm
FN:2012,_ZNSt8__detail16_Hashtable_allocISaINS_10_Hash_nodeISt4pairIKmSt6vectorIS2_IbdESaIS5_EEELb0EEEEE19_M_allocate_bucketsEm
FN:2012,_ZNSt8__detail16_Hashtable_allocISaINS_10_Hash_nodeIjLb0EEEEE19_M_allocate_bucketsEm
FN:2012,_ZNSt8__detail16_Hashtable_allocISaINS_10_Hash_nodeISt4pairIKmSt6vectorIS2_IbN11MetaPhysicL10DualNumberIdNS5_28SemiDynamicSparseNumberArrayIdmNS5_8NWrapperILm64EEEEELb1EEEESaISC_EEELb0EEEEE19_M_allocate_bucketsEm
FNDA:0,_ZNSt8__detail9_Map_baseImSt4pairIKmSt6vectorIS3_IS1_IbdESaIS4_EESaIS6_EEESaIS9_ENS_10_Select1stESt8equal_toImESt4hashImENS_18_Mod_range_hashingENS_20_Default_ranged_hashENS_20_Prime_rehash_policyENS_17_Hashtable_traitsILb0ELb0ELb1EEELb1EEixERS2_
FNDA:0,_ZNSt8__detail16_Hashtable_allocISaINS_10_Hash_nodeISt4pairIKmSt6vectorIS2_IbN11MetaPhysicL10DualNumberIdNS5_28SemiDynamicSparseNumberArrayIdmNS5_8NWrapperILm64EEEEELb1EEEESaISC_EEELb0EEEEE19_M_allocate_bucketsEm
FNDA:0,_ZNSt8__detail16_Hashtable_allocISaINS_10_Hash_nodeISt4pairIKmSt6vectorIS2_IbN11MetaPhysicL10DualNumberIdNS5_28SemiDynamicSparseNumberArrayIdmNS5_8NWrapperILm64EEEEELb1EEEESaISC_EEELb0EEEEE19_M_deallocate_nodesEPSG_
FNDA:0,_ZNSt8__detail16_Hashtable_allocISaINS_10_Hash_nodeISt4pairIKmSt6vectorIS2_IbdESaIS5_EEELb0EEEEE19_M_deallocate_nodesEPS9_
FNDA:0,_ZNSt8__detail16_Hashtable_allocISaINS_10_Hash_nodeISt4pairIKmSt6vectorIS2_IbdESaIS5_EEELb0EEEEE19_M_allocate_bucketsEm
FNDA:0,_ZNSt8__detail16_Hashtable_allocISaINS_10_Hash_nodeISt4pairIKNSt7__cxx1112basic_stringIcSt11char_traitsIcESaIcEEESt6vectorIP22MooseVariableFieldBaseSaISC_EEELb1EEEEE18_M_deallocate_nodeEPSG_
FNDA:0,_ZNSt8__detail7_InsertIjjSaIjENS_9_IdentityESt8equal_toIjESt4hashIjENS_18_Mod_range_hashingENS_20_Default_ranged_hashENS_20_Prime_rehash_policyENS_17_Hashtable_traitsILb0ELb1ELb1EEELb1EE6insertEOj
FNDA:0,_ZNSt8__detail16_Hashtable_allocISaINS_10_Hash_nodeIjLb0EEEEE19_M_allocate_bucketsEm
FNDA:0,_ZNSt8__detail16_Hashtable_allocISaINS_10_Hash_nodeISt4pairIKNSt7__cxx1112basic_stringIcSt11char_traitsIcESaIcEEESt10unique_ptrI10MooseArrayIN7libMesh11VectorValueIN11MetaPhysicL10DualNumberIdNSE_28SemiDynamicSparseNumberArrayIdmNSE_8NWrapperILm64EEEEELb1EEEEEESt14default_deleteISM_EEELb1EEEEE18_M_deallocate_nodeEPSR_
FNDA:0,_ZNSt8__detail16_Hashtable_allocISaINS_10_Hash_nodeISt4pairIKNSt7__cxx1112basic_stringIcSt11char_traitsIcESaIcEEESt10unique_ptrI10MooseArrayIN5Eigen6MatrixIdLin1ELi1ELi0ELin1ELi1EEEESt14default_deleteISF_EEELb1EEEEE18_M_deallocate_nodeEPSK_
FNDA:0,_ZNSt8__detail16_Hashtable_allocISaINS_10_Hash_nodeISt4pairIKNSt7__cxx1112basic_stringIcSt11char_traitsIcESaIcEEESt10unique_ptrI10MooseArrayIN11MetaPhysicL10DualNumberIdNSC_28SemiDynamicSparseNumberArrayIdmNSC_8NWrapperILm64EEEEELb1EEEESt14default_deleteISJ_EEELb1EEEEE18_M_deallocate_nodeEPSO_
FNDA:0,_ZNSt8__detail16_Hashtable_allocISaINS_10_Hash_nodeISt4pairIKNSt7__cxx1112basic_stringIcSt11char_traitsIcESaIcEEESt6vectorIjSaIjEEELb1EEEEE18_M_deallocate_nodeEPSE_
FNDA:0,_ZNSt8__detail9_Map_baseImSt4pairIKmSt6vectorIS1_IbdESaIS4_EEESaIS7_ENS_10_Select1stESt8equal_toImESt4hashImENS_18_Mod_range_hashingENS_20_Default_ranged_hashENS_20_Prime_rehash_policyENS_17_Hashtable_traitsILb0ELb0ELb1EEELb1EEixERS2_
FNDA:0,_ZNSt8__detail16_Hashtable_allocISaINS_10_Hash_nodeISt4pairIKmSt6vectorIS2_IbdESaIS5_EEELb0EEEEE16_M_allocate_nodeIJRKSt21piecewise_construct_tSt5tupleIJRS3_EESG_IJEEEEEPS9_DpOT_
FNDA:0,_ZNSt8__detail16_Hashtable_allocISaINS_10_Hash_nodeISt4pairIKNSt7__cxx1112basic_stringIcSt11char_traitsIcESaIcEEESt6vectorISt10unique_ptrI10MooseArrayIdESt14default_deleteISD_EESaISG_EEELb1EEEEE18_M_deallocate_nodeEPSK_
FNDA:0,_ZNSt8__detail16_Hashtable_allocISaINS_10_Hash_nodeIjLb0EEEEE16_M_allocate_nodeIJjEEEPS2_DpOT_
FNDA:0,_ZNSt8__detail16_Hashtable_allocISaINS_10_Hash_nodeISt4pairIKmSt6vectorIS4_IS2_IbdESaIS5_EESaIS7_EEELb0EEEEE19_M_deallocate_nodesEPSB_
FNDA:0,_ZNSt8__detail16_Hashtable_allocISaINS_10_Hash_nodeISt4pairIKNSt7__cxx1112basic_stringIcSt11char_traitsIcESaIcEEES8_ELb1EEEEE18_M_deallocate_nodeEPSB_
FNDA:0,_ZNSt8__detail9_Map_baseImSt4pairIKmSt6vectorIS3_IS1_IbN11MetaPhysicL10DualNumberIdNS4_28SemiDynamicSparseNumberArrayIdmNS4_8NWrapperILm64EEEEELb1EEEESaISB_EESaISD_EEESaISG_ENS_10_Select1stESt8equal_toImESt4hashImENS_18_Mod_range_hashingENS_20_Default_ranged_hashENS_20_Prime_rehash_policyENS_17_Hashtable_traitsILb0ELb0ELb1EEELb1EEixERS2_
FNDA:0,_ZNSt8__detail16_Hashtable_allocISaINS_10_Hash_nodeISt4pairIKmSt6vectorIS4_IS2_IbN11MetaPhysicL10DualNumberIdNS5_28SemiDynamicSparseNumberArrayIdmNS5_8NWrapperILm64EEEEELb1EEEESaISC_EESaISE_EEELb0EEEEE19_M_deallocate_nodesEPSI_
FNDA:0,_ZNSt8__detail16_Hashtable_allocISaINS_10_Hash_nodeISt4pairIKmSt6vectorIS2_IbN11MetaPhysicL10DualNumberIdNS5_28SemiDynamicSparseNumberArrayIdmNS5_8NWrapperILm64EEEEELb1EEEESaISC_EEELb0EEEEE16_M_allocate_nodeIJRKSt21piecewise_construct_tSt5tupleIJRS3_EESN_IJEEEEEPSG_DpOT_
FNDA:0,_ZNSt8__detail9_Map_baseImSt4pairIKmSt6vectorIS1_IbN11MetaPhysicL10DualNumberIdNS4_28SemiDynamicSparseNumberArrayIdmNS4_8NWrapperILm64EEEEELb1EEEESaISB_EEESaISE_ENS_10_Select1stESt8equal_toImESt4hashImENS_18_Mod_range_hashingENS_20_Default_ranged_hashENS_20_Prime_rehash_policyENS_17_Hashtable_traitsILb0ELb0ELb1EEELb1EEixERS2_
FNDA:0,_ZNSt8__detail16_Hashtable_allocISaINS_10_Hash_nodeISt4pairIKNSt7__cxx1112basic_stringIcSt11char_traitsIcESaIcEEESt10unique_ptrI10MooseArrayIN7libMesh11VectorValueIdEEESt14default_deleteISF_EEELb1EEEEE18_M_deallocate_nodeEPSK_
FNDA:0,_ZNSt8__detail16_Hashtable_allocISaINS_10_Hash_nodeISt4pairIKNSt7__cxx1112basic_stringIcSt11char_traitsIcESaIcEEESt10unique_ptrI10MooseArrayIdESt14default_deleteISC_EEELb1EEEEE18_M_deallocate_nodeEPSH_
FNDA:0,_ZNSt8__detail16_Hashtable_allocISaINS_10_Hash_nodeISt4pairIKmSt6vectorIS4_IS2_IbdESaIS5_EESaIS7_EEELb0EEEEE19_M_allocate_bucketsEm
FNDA:0,_ZNSt8__detail16_Hashtable_allocISaINS_10_Hash_nodeISt4pairIKNSt7__cxx1112basic_stringIcSt11char_traitsIcESaIcEEESt6vectorIP19MooseVariableScalarSaISC_EEELb1EEEEE18_M_deallocate_nodeEPSG_
FNDA:0,_ZNSt8__detail16_Hashtable_allocISaINS_10_Hash_nodeISt4pairIKmSt6vectorIS4_IS2_IbdESaIS5_EESaIS7_EEELb0EEEEE16_M_allocate_nodeIJRKSt21piecewise_construct_tSt5tupleIJRS3_EESI_IJEEEEEPSB_DpOT_
FNDA:0,_ZNSt8__detail16_Hashtable_allocISaINS_10_Hash_nodeISt4pairIKmSt6vectorIS4_IS2_IbN11MetaPhysicL10DualNumberIdNS5_28SemiDynamicSparseNumberArrayIdmNS5_8NWrapperILm64EEEEELb1EEEESaISC_EESaISE_EEELb0EEEEE16_M_allocate_nodeIJRKSt21piecewise_construct_tSt5tupleIJRS3_EESP_IJEEEEEPSI_DpOT_
FNDA:0,_ZNSt8__detail16_Hashtable_allocISaINS_10_Hash_nodeISt4pairIKmSt6vectorIS4_IS2_IbN11MetaPhysicL10DualNumberIdNS5_28SemiDynamicSparseNumberArrayIdmNS5_8NWrapperILm64EEEEELb1EEEESaISC_EESaISE_EEELb0EEEEE19_M_allocate_bucketsEm
FNF:29
FNH:0
DA:206,0
DA:207,0
DA:212,0
DA:277,0
DA:341,0
DA:405,0
DA:411,0
DA:488,0
DA:532,0
DA:540,0
DA:767,0
DA:775,0
DA:776,0
DA:781,0
DA:782,0
DA:785,0
DA:786,0
DA:787,0
DA:788,0
DA:1031,0
DA:1035,0
DA:1270,0
DA:1279,0
DA:1707,0
DA:1714,0
DA:1960,0
DA:1971,0
DA:1982,0
DA:1986,605
DA:1994,605
DA:2000,0
DA:2002,1065
DA:2006,0
DA:2008,0
DA:2012,0
DA:2019,0
DA:2020,0
DA:2033,855
LF:38
LH:4
end_of_record
TN:
SF:/usr/share/miniconda3/envs/moose/x86_64-conda-linux-gnu/include/c++/12.3.0/bits/ios_base.h
FNF:0
FNH:0
DA:167,0
LF:1
LH:0
end_of_record
TN:
SF:/usr/share/miniconda3/envs/moose/x86_64-conda-linux-gnu/include/c++/12.3.0/bits/locale_facets.h
FN:880,_ZNKSt5ctypeIcE5widenEc
FN:1092,_ZNKSt5ctypeIcE8do_widenEc
FNDA:0,_ZNKSt5ctypeIcE8do_widenEc
FNDA:0,_ZNKSt5ctypeIcE5widenEc
FNF:2
FNH:0
DA:880,0
DA:882,0
DA:883,0
DA:884,0
DA:885,0
DA:1092,0
DA:1093,0
LF:7
LH:0
end_of_record
TN:
SF:/usr/share/miniconda3/envs/moose/x86_64-conda-linux-gnu/include/c++/12.3.0/bits/move.h
FNF:0
FNH:0
DA:204,0
DA:205,0
DA:206,0
LF:3
LH:0
end_of_record
TN:
SF:/usr/share/miniconda3/envs/moose/x86_64-conda-linux-gnu/include/c++/12.3.0/bits/new_allocator.h
FN:112,_ZNSt15__new_allocatorIP21BVInelasticUpdateBaseE8allocateEmPKv
FN:112,_ZNSt15__new_allocatorISt23_Sp_counted_ptr_inplaceI13RegistryEntryI31BVSinglePhaseFlowSoluteMaterialESaIvELN9__gnu_cxx12_Lock_policyE2EEE8allocateEmPKv
FN:112,_ZNSt15__new_allocatorISt13_Rb_tree_nodeISt4pairIKsSt3setISt6vectorImSaImEESt4lessIS6_ESaIS6_EEEEE8allocateEmPKv
FN:112,_ZNSt15__new_allocatorISt23_Sp_counted_ptr_inplaceI13RegistryEntryI16BVMisesStressAuxESaIvELN9__gnu_cxx12_Lock_policyE2EEE8allocateEmPKv
FN:112,_ZNSt15__new_allocatorISt23_Sp_counted_ptr_inplaceI13RegistryEntryI22BVConstantPermeabilityESaIvELN9__gnu_cxx12_Lock_policyE2EEE8allocateEmPKv
FN:112,_ZNSt15__new_allocatorISt23_Sp_counted_ptr_inplaceI13RegistryEntryI14BVEqvStrainAuxESaIvELN9__gnu_cxx12_Lock_policyE2EEE8allocateEmPKv
FN:112,_ZNSt15__new_allocatorISt13_Rb_tree_nodeISt4pairIKN5Moose7ElemArgEdEEE8allocateEmPKv
FN:112,_ZNSt15__new_allocatorISt13_Rb_tree_nodeISt4pairIK13MooseEnumItemS2_EEE8allocateEmPKv
FN:112,_ZNSt15__new_allocatorISt13_Rb_tree_nodeISt4pairIKNSt7__cxx1112basic_stringIcSt11char_traitsIcESaIcEEESt10unique_ptrI23AppFactoryBuildInfoBaseSt14default_deleteISA_EEEEE8allocateEmPKv
FN:112,_ZNSt15__new_allocatorISt23_Sp_counted_ptr_inplaceI13RegistryEntryI27BVFVMultiPhasePressureDarcyESaIvELN9__gnu_cxx12_Lock_policyE2EEE8allocateEmPKv
FN:112,_ZNSt15__new_allocatorIPK8FunctionE8allocateEmPKv
FN:112,_ZNSt15__new_allocatorISt13_Rb_tree_nodeISt4pairIKsSt3setImSt4lessImESaImEEEEE8allocateEmPKv
FN:112,_ZNSt15__new_allocatorISt13_Rb_tree_nodeISt4pairIKN5Moose7ElemArgEN11MetaPhysicL10DualNumberIdNS5_28SemiDynamicSparseNumberArrayIdmNS5_8NWrapperILm64EEEEELb1EEEEEE8allocateEmPKv
FN:112,_ZNSt15__new_allocatorISt23_Sp_counted_ptr_inplaceI13RegistryEntryI23BVPoroMechanicsMaterialESaIvELN9__gnu_cxx12_Lock_policyE2EEE8allocateEmPKv
FN:112,_ZNSt15__new_allocatorISt23_Sp_counted_ptr_inplaceI13RegistryEntryI20BVFVSinglePhaseDarcyESaIvELN9__gnu_cxx12_Lock_policyE2EEE8allocateEmPKv
FN:112,_ZNSt15__new_allocatorISt13_Rb_tree_nodeISt4pairIKmSt6vectorImSaImEEEEE8allocateEmPKv
FN:112,_ZNSt15__new_allocatorIPNSt8__detail15_Hash_node_baseEE8allocateEmPKv
FN:112,_ZNSt15__new_allocatorISt23_Sp_counted_ptr_inplaceI13RegistryEntryI19BVBurgerModelUpdateESaIvELN9__gnu_cxx12_Lock_policyE2EEE8allocateEmPKv
FN:112,_ZNSt15__new_allocatorISt13_Rb_tree_nodeImEE8allocateEmPKv
FN:112,_ZNSt15__new_allocatorISt23_Sp_counted_ptr_inplaceI13RegistryEntryI12BVPressureBCESaIvELN9__gnu_cxx12_Lock_policyE2EEE8allocateEmPKv
FN:112,_ZNSt15__new_allocatorISt23_Sp_counted_ptr_inplaceI13RegistryEntryI13BVPressureAuxESaIvELN9__gnu_cxx12_Lock_policyE2EEE8allocateEmPKv
FN:112,_ZNSt15__new_allocatorISt23_Sp_counted_ptr_inplaceI13RegistryEntryI20BVStrainComponentAuxESaIvELN9__gnu_cxx12_Lock_policyE2EEE8allocateEmPKv
FN:112,_ZNSt15__new_allocatorISt23_Sp_counted_ptr_inplaceI13RegistryEntryI26BVKelvinViscoelasticUpdateESaIvELN9__gnu_cxx12_Lock_policyE2EEE8allocateEmPKv
FN:112,_ZNSt15__new_allocatorISt23_Sp_counted_ptr_inplaceI13RegistryEntryI24BVMultiPhaseFlowMaterialESaIvELN9__gnu_cxx12_Lock_policyE2EEE8allocateEmPKv
FN:112,_ZNSt15__new_allocatorISt23_Sp_counted_ptr_inplaceI13RegistryEntryI18BVSinglePhaseDarcyESaIvELN9__gnu_cxx12_Lock_policyE2EEE8allocateEmPKv
FN:112,_ZNSt15__new_allocatorISt23_Sp_counted_ptr_inplaceI13RegistryEntryI17BVShearTractionBCESaIvELN9__gnu_cxx12_Lock_policyE2EEE8allocateEmPKv
FN:112,_ZNSt15__new_allocatorISt23_Sp_counted_ptr_inplaceI13RegistryEntryI21BVMechanicalInterfaceESaIvELN9__gnu_cxx12_Lock_policyE2EEE8allocateEmPKv
FN:112,_ZNSt15__new_allocatorI12FunctionNameE8allocateEmPKv
FN:112,_ZNSt15__new_allocatorINSt8__detail10_Hash_nodeISt4pairIKmSt6vectorIS4_IS2_IbdESaIS5_EESaIS7_EEELb0EEEE8allocateEmPKv
FN:112,_ZNSt15__new_allocatorISt23_Sp_counted_ptr_inplaceI13RegistryEntryI22BVFaultNormalStressAuxESaIvELN9__gnu_cxx12_Lock_policyE2EEE8allocateEmPKv
FN:112,_ZNSt15__new_allocatorImE8allocateEmPKv
FN:112,_ZNSt15__new_allocatorIPK10MooseArrayIN7libMesh11VectorValueIdEEEE8allocateEmPKv
FN:112,_ZNSt15__new_allocatorISt23_Sp_counted_ptr_inplaceI9BeaverAppSaIvELN9__gnu_cxx12_Lock_policyE2EEE8allocateEmPKv
FN:112,_ZNSt15__new_allocatorISt23_Sp_counted_ptr_inplaceI13RegistryEntryI20BVConstantDispersionESaIvELN9__gnu_cxx12_Lock_policyE2EEE8allocateEmPKv
FN:112,_ZNSt15__new_allocatorISt23_Sp_counted_ptr_inplaceI13RegistryEntryI26BVFVSinglePhaseSoluteDarcyESaIvELN9__gnu_cxx12_Lock_policyE2EEE8allocateEmPKv
FN:112,_ZNSt15__new_allocatorISt23_Sp_counted_ptr_inplaceI13RegistryEntryI20BVStressComponentAuxESaIvELN9__gnu_cxx12_Lock_policyE2EEE8allocateEmPKv
FN:112,_ZNSt15__new_allocatorIPK10MooseArrayIN11MetaPhysicL10DualNumberIdNS1_28SemiDynamicSparseNumberArrayIdmNS1_8NWrapperILm64EEEEELb1EEEEE8allocateEmPKv
FN:112,_ZNSt15__new_allocatorISt23_Sp_counted_ptr_inplaceI13RegistryEntryI29BVFVSinglePhaseTimeDerivativeESaIvELN9__gnu_cxx12_Lock_policyE2EEE8allocateEmPKv
FN:112,_ZNSt15__new_allocatorINSt7__cxx1112basic_stringIcSt11char_traitsIcESaIcEEEE8allocateEmPKv
FN:112,_ZNSt15__new_allocatorINSt8__detail10_Hash_nodeISt4pairIKmSt6vectorIS4_IS2_IbN11MetaPhysicL10DualNumberIdNS5_28SemiDynamicSparseNumberArrayIdmNS5_8NWrapperILm64EEEEELb1EEEESaISC_EESaISE_EEELb0EEEE8allocateEmPKv
FN:112,_ZNSt15__new_allocatorISt13_Rb_tree_nodeISt4pairIKN5Moose7FaceArgEN11MetaPhysicL10DualNumberIdNS5_28SemiDynamicSparseNumberArrayIdmNS5_8NWrapperILm64EEEEELb1EEEEEE8allocateEmPKv
FN:112,_ZNSt15__new_allocatorISt23_Sp_counted_ptr_inplaceI13RegistryEntryI36BVFVMultiPhasePressureTimeDerivativeESaIvELN9__gnu_cxx12_Lock_policyE2EEE8allocateEmPKv
FN:112,_ZNSt15__new_allocatorIPK10MooseArrayIN7libMesh11VectorValueIN11MetaPhysicL10DualNumberIdNS3_28SemiDynamicSparseNumberArrayIdmNS3_8NWrapperILm64EEEEELb1EEEEEEE8allocateEmPKv
FN:112,_ZNSt15__new_allocatorISt23_Sp_counted_ptr_inplaceI13RegistryEntryI18BVEqvStrainRateAuxESaIvELN9__gnu_cxx12_Lock_policyE2EEE8allocateEmPKv
FN:112,_ZNSt15__new_allocatorISt23_Sp_counted_ptr_inplaceI13RegistryEntryI27BVSinglePhaseTimeDerivativeESaIvELN9__gnu_cxx12_Lock_policyE2EEE8allocateEmPKv
FN:112,_ZNSt15__new_allocatorISt6vectorISt4pairIbN11MetaPhysicL10DualNumberIdNS2_28SemiDynamicSparseNumberArrayIdmNS2_8NWrapperILm64EEEEELb1EEEESaIS9_EEE8allocateEmPKv
FN:112,_ZNSt15__new_allocatorISt13_Rb_tree_nodeIsEE8allocateEmPKv
FN:112,_ZNSt15__new_allocatorISt23_Sp_counted_ptr_inplaceI13RegistryEntryI29BVFVMultiPhaseSaturationDarcyESaIvELN9__gnu_cxx12_Lock_policyE2EEE8allocateEmPKv
FN:112,_ZNSt15__new_allocatorISt23_Sp_counted_ptr_inplaceI13RegistryEntryI35BVFVSinglePhaseSoluteTimeDerivativeESaIvELN9__gnu_cxx12_Lock_policyE2EEE8allocateEmPKv
FN:112,_ZNSt15__new_allocatorIP10BndElementE8allocateEmPKv
FN:112,_ZNSt15__new_allocatorISt23_Sp_counted_ptr_inplaceI13RegistryEntryI18BVDarcyVelocityAuxESaIvELN9__gnu_cxx12_Lock_policyE2EEE8allocateEmPKv
FN:112,_ZNSt15__new_allocatorISt13_Rb_tree_nodeI13MooseEnumItemEE8allocateEmPKv
FN:112,_ZNSt15__new_allocatorISt23_Sp_counted_ptr_inplaceI13RegistryEntryI18BVStressDivergenceESaIvELN9__gnu_cxx12_Lock_policyE2EEE8allocateEmPKv
FN:112,_ZNSt15__new_allocatorISt23_Sp_counted_ptr_inplaceI13RegistryEntryI27BVMaxwellViscoelasticUpdateESaIvELN9__gnu_cxx12_Lock_policyE2EEE8allocateEmPKv
FN:112,_ZNSt15__new_allocatorISt10unique_ptrI13PropertyValueSt14default_deleteIS1_EEE8allocateEmPKv
FN:112,_ZNSt15__new_allocatorISt13_Rb_tree_nodeISt4pairIKNSt7__cxx1112basic_stringIcSt11char_traitsIcESaIcEEES7_EEE8allocateEmPKv
FN:112,_ZNSt15__new_allocatorISt13_Rb_tree_nodeISt6vectorImSaImEEEE8allocateEmPKv
FN:112,_ZNSt15__new_allocatorISt23_Sp_counted_ptr_inplaceI13RegistryEntryI21BVFaultShearStressAuxESaIvELN9__gnu_cxx12_Lock_policyE2EEE8allocateEmPKv
FN:112,_ZNSt15__new_allocatorISt10shared_ptrI17RegistryEntryBaseEE8allocateEmPKv
FN:112,_ZNSt15__new_allocatorISt13_Rb_tree_nodeINSt7__cxx1112basic_stringIcSt11char_traitsIcESaIcEEEEE8allocateEmPKv
FN:112,_ZNSt15__new_allocatorISt4pairIbdEE8allocateEmPKv
FN:112,_ZNSt15__new_allocatorISt23_Sp_counted_ptr_inplaceI13RegistryEntryI16BVPressureActionESaIvELN9__gnu_cxx12_Lock_policyE2EEE8allocateEmPKv
FN:112,_ZNSt15__new_allocatorISt6vectorIN11MetaPhysicL10DualNumberIdNS1_28SemiDynamicSparseNumberArrayIdmNS1_8NWrapperILm64EEEEELb1EEESaIS7_EEE8allocateEmPKv
FN:112,_ZNSt15__new_allocatorISt23_Sp_counted_ptr_inplaceI13RegistryEntryI29BVMechanicalInterfaceMaterialESaIvELN9__gnu_cxx12_Lock_policyE2EEE8allocateEmPKv
FN:112,_ZNSt15__new_allocatorIN11MetaPhysicL10DualNumberIdNS0_28SemiDynamicSparseNumberArrayIdmNS0_8NWrapperILm64EEEEELb1EEEE8allocateEmPKv
FN:112,_ZNSt15__new_allocatorINSt8__detail10_Hash_nodeISt4pairIKmSt6vectorIS2_IbN11MetaPhysicL10DualNumberIdNS5_28SemiDynamicSparseNumberArrayIdmNS5_8NWrapperILm64EEEEELb1EEEESaISC_EEELb0EEEE8allocateEmPKv
FN:112,_ZNSt15__new_allocatorIPK10MooseArrayIdEE8allocateEmPKv
FN:112,_ZNSt15__new_allocatorISt4pairIbN11MetaPhysicL10DualNumberIdNS1_28SemiDynamicSparseNumberArrayIdmNS1_8NWrapperILm64EEEEELb1EEEEE8allocateEmPKv
FN:112,_ZNSt15__new_allocatorISt23_Sp_counted_ptr_inplaceI16BVPressureActionSaIvELN9__gnu_cxx12_Lock_policyE2EEE8allocateEmPKv
FN:112,_ZNSt15__new_allocatorISt13_Rb_tree_nodeISt4pairIKNSt7__cxx1112basic_stringIcSt11char_traitsIcESaIcEEESt10unique_ptrIN7libMesh10Parameters5ValueESt14default_deleteISC_EEEEE8allocateEmPKv
FN:112,_ZNSt15__new_allocatorISt6vectorISt4pairIbdESaIS2_EEE8allocateEmPKv
FN:112,_ZNSt15__new_allocatorI21NonlinearVariableNameE8allocateEmPKv
FN:112,_ZNSt15__new_allocatorISt23_Sp_counted_ptr_inplaceI13RegistryEntryI30BVRelativePermeabilityPowerLawESaIvELN9__gnu_cxx12_Lock_policyE2EEE8allocateEmPKv
FN:112,_ZNSt15__new_allocatorISt23_Sp_counted_ptr_inplaceI13RegistryEntryI25BVSinglePhaseFlowMaterialESaIvELN9__gnu_cxx12_Lock_policyE2EEE8allocateEmPKv
FN:112,_ZNSt15__new_allocatorISt23_Sp_counted_ptr_inplaceI13RegistryEntryI20BVRTL2020ModelUpdateESaIvELN9__gnu_cxx12_Lock_policyE2EEE8allocateEmPKv
FN:112,_ZNSt15__new_allocatorISt23_Sp_counted_ptr_inplaceI21BVShearTractionActionSaIvELN9__gnu_cxx12_Lock_policyE2EEE8allocateEmPKv
FN:112,_ZNSt15__new_allocatorI12MaterialNameE8allocateEmPKv
FN:112,_ZNSt15__new_allocatorISt13_Rb_tree_nodeISt4pairIK13MooseEnumItemNSt7__cxx1112basic_stringIcSt11char_traitsIcESaIcEEEEEE8allocateEmPKv
FN:112,_ZNSt15__new_allocatorISt23_Sp_counted_ptr_inplaceI13RegistryEntryI25BVFaultInterfaceGeneratorESaIvELN9__gnu_cxx12_Lock_policyE2EEE8allocateEmPKv
FN:112,_ZNSt15__new_allocatorISt13_Rb_tree_nodeISt4pairIKN5Moose7FaceArgEdEEE8allocateEmPKv
FN:112,_ZNSt15__new_allocatorINSt8__detail10_Hash_nodeIjLb0EEEE8allocateEmPKv
FN:112,_ZNSt15__new_allocatorI12BoundaryNameE8allocateEmPKv
FN:112,_ZNSt15__new_allocatorISt23_Sp_counted_ptr_inplaceI13RegistryEntryI20BVMechanicalMaterialESaIvELN9__gnu_cxx12_Lock_policyE2EEE8allocateEmPKv
FN:112,_ZNSt15__new_allocatorISt23_Sp_counted_ptr_inplaceI13RegistryEntryI18BVConstantPorosityESaIvELN9__gnu_cxx12_Lock_policyE2EEE8allocateEmPKv
FN:112,_ZNSt15__new_allocatorISt23_Sp_counted_ptr_inplaceI13RegistryEntryI27BVCapillaryPressurePowerLawESaIvELN9__gnu_cxx12_Lock_policyE2EEE8allocateEmPKv
FN:112,_ZNSt15__new_allocatorISt13_Rb_tree_nodeISt4pairIKNSt7__cxx1112basic_stringIcSt11char_traitsIcESaIcEEEN15InputParameters8MetadataEEEE8allocateEmPKv
FN:112,_ZNSt15__new_allocatorISt13_Rb_tree_nodeISt4pairIKmjEEE8allocateEmPKv
FN:112,_ZNSt15__new_allocatorINSt8__detail10_Hash_nodeISt4pairIKmSt6vectorIS2_IbdESaIS5_EEELb0EEEE8allocateEmPKv
FN:112,_ZNSt15__new_allocatorISt13_Rb_tree_nodeISt4pairIKNSt7__cxx1112basic_stringIcSt11char_traitsIcESaIcEEESt6vectorISt10shared_ptrI17RegistryEntryBaseESaISC_EEEEE8allocateEmPKv
FN:112,_ZNSt15__new_allocatorISt23_Sp_counted_ptr_inplaceI13RegistryEntryI24BVConstantFrictionUpdateESaIvELN9__gnu_cxx12_Lock_policyE2EEE8allocateEmPKv
FN:112,_ZNSt15__new_allocatorISt23_Sp_counted_ptr_inplaceI13RegistryEntryI38BVFVMultiPhaseSaturationTimeDerivativeESaIvELN9__gnu_cxx12_Lock_policyE2EEE8allocateEmPKv
FN:112,_ZNSt15__new_allocatorIdE8allocateEmPKv
FN:112,_ZNSt15__new_allocatorISt23_Sp_counted_ptr_inplaceI13RegistryEntryI19BVLubby2ModelUpdateESaIvELN9__gnu_cxx12_Lock_policyE2EEE8allocateEmPKv
FN:112,_ZNSt15__new_allocatorISt23_Sp_counted_ptr_inplaceI13RegistryEntryI21BVShearTractionActionESaIvELN9__gnu_cxx12_Lock_policyE2EEE8allocateEmPKv
FN:112,_ZNSt15__new_allocatorISt23_Sp_counted_ptr_inplaceI13RegistryEntryI17BVFluidPropertiesESaIvELN9__gnu_cxx12_Lock_policyE2EEE8allocateEmPKv
FNDA:424,_ZNSt15__new_allocatorImE8allocateEmPKv
FNDA:48,_ZNSt15__new_allocatorIPK10MooseArrayIN7libMesh11VectorValueIdEEEE8allocateEmPKv
FNDA:0,_ZNSt15__new_allocatorISt23_Sp_counted_ptr_inplaceI9BeaverAppSaIvELN9__gnu_cxx12_Lock_policyE2EEE8allocateEmPKv
FNDA:26,_ZNSt15__new_allocatorISt23_Sp_counted_ptr_inplaceI13RegistryEntryI20BVConstantDispersionESaIvELN9__gnu_cxx12_Lock_policyE2EEE8allocateEmPKv
FNDA:26,_ZNSt15__new_allocatorISt23_Sp_counted_ptr_inplaceI13RegistryEntryI20BVStressComponentAuxESaIvELN9__gnu_cxx12_Lock_policyE2EEE8allocateEmPKv
FNDA:26,_ZNSt15__new_allocatorISt23_Sp_counted_ptr_inplaceI13RegistryEntryI26BVFVSinglePhaseSoluteDarcyESaIvELN9__gnu_cxx12_Lock_policyE2EEE8allocateEmPKv
FNDA:8,_ZNSt15__new_allocatorIPK10MooseArrayIN11MetaPhysicL10DualNumberIdNS1_28SemiDynamicSparseNumberArrayIdmNS1_8NWrapperILm64EEEEELb1EEEEE8allocateEmPKv
FNDA:26,_ZNSt15__new_allocatorISt23_Sp_counted_ptr_inplaceI13RegistryEntryI29BVFVSinglePhaseTimeDerivativeESaIvELN9__gnu_cxx12_Lock_policyE2EEE8allocateEmPKv
FNDA:0,_ZNSt15__new_allocatorINSt7__cxx1112basic_stringIcSt11char_traitsIcESaIcEEEE8allocateEmPKv
FNDA:0,_ZNSt15__new_allocatorINSt8__detail10_Hash_nodeISt4pairIKmSt6vectorIS4_IS2_IbN11MetaPhysicL10DualNumberIdNS5_28SemiDynamicSparseNumberArrayIdmNS5_8NWrapperILm64EEEEELb1EEEESaISC_EESaISE_EEELb0EEEE8allocateEmPKv
FNDA:0,_ZNSt15__new_allocatorISt13_Rb_tree_nodeISt4pairIKN5Moose7FaceArgEN11MetaPhysicL10DualNumberIdNS5_28SemiDynamicSparseNumberArrayIdmNS5_8NWrapperILm64EEEEELb1EEEEEE8allocateEmPKv
FNDA:26,_ZNSt15__new_allocatorISt23_Sp_counted_ptr_inplaceI13RegistryEntryI36BVFVMultiPhasePressureTimeDerivativeESaIvELN9__gnu_cxx12_Lock_policyE2EEE8allocateEmPKv
FNDA:48,_ZNSt15__new_allocatorIPK10MooseArrayIN7libMesh11VectorValueIN11MetaPhysicL10DualNumberIdNS3_28SemiDynamicSparseNumberArrayIdmNS3_8NWrapperILm64EEEEELb1EEEEEEE8allocateEmPKv
FNDA:26,_ZNSt15__new_allocatorISt23_Sp_counted_ptr_inplaceI13RegistryEntryI18BVEqvStrainRateAuxESaIvELN9__gnu_cxx12_Lock_policyE2EEE8allocateEmPKv
FNDA:26,_ZNSt15__new_allocatorISt23_Sp_counted_ptr_inplaceI13RegistryEntryI27BVSinglePhaseTimeDerivativeESaIvELN9__gnu_cxx12_Lock_policyE2EEE8allocateEmPKv
FNDA:26,_ZNSt15__new_allocatorISt23_Sp_counted_ptr_inplaceI13RegistryEntryI18BVSinglePhaseDarcyESaIvELN9__gnu_cxx12_Lock_policyE2EEE8allocateEmPKv
FNDA:26,_ZNSt15__new_allocatorISt23_Sp_counted_ptr_inplaceI13RegistryEntryI17BVShearTractionBCESaIvELN9__gnu_cxx12_Lock_policyE2EEE8allocateEmPKv
FNDA:26,_ZNSt15__new_allocatorISt23_Sp_counted_ptr_inplaceI13RegistryEntryI21BVMechanicalInterfaceESaIvELN9__gnu_cxx12_Lock_policyE2EEE8allocateEmPKv
FNDA:21,_ZNSt15__new_allocatorI12FunctionNameE8allocateEmPKv
FNDA:0,_ZNSt15__new_allocatorINSt8__detail10_Hash_nodeISt4pairIKmSt6vectorIS4_IS2_IbdESaIS5_EESaIS7_EEELb0EEEE8allocateEmPKv
FNDA:26,_ZNSt15__new_allocatorISt23_Sp_counted_ptr_inplaceI13RegistryEntryI22BVFaultNormalStressAuxESaIvELN9__gnu_cxx12_Lock_policyE2EEE8allocateEmPKv
FNDA:26,_ZNSt15__new_allocatorISt23_Sp_counted_ptr_inplaceI13RegistryEntryI23BVPoroMechanicsMaterialESaIvELN9__gnu_cxx12_Lock_policyE2EEE8allocateEmPKv
FNDA:34,_ZNSt15__new_allocatorISt13_Rb_tree_nodeISt4pairIKsSt3setImSt4lessImESaImEEEEE8allocateEmPKv
FNDA:26,_ZNSt15__new_allocatorISt23_Sp_counted_ptr_inplaceI13RegistryEntryI20BVFVSinglePhaseDarcyESaIvELN9__gnu_cxx12_Lock_policyE2EEE8allocateEmPKv
FNDA:456,_ZNSt15__new_allocatorISt13_Rb_tree_nodeISt4pairIKmSt6vectorImSaImEEEEE8allocateEmPKv
FNDA:0,_ZNSt15__new_allocatorISt13_Rb_tree_nodeISt4pairIKN5Moose7ElemArgEN11MetaPhysicL10DualNumberIdNS5_28SemiDynamicSparseNumberArrayIdmNS5_8NWrapperILm64EEEEELb1EEEEEE8allocateEmPKv
FNDA:0,_ZNSt15__new_allocatorIPNSt8__detail15_Hash_node_baseEE8allocateEmPKv
FNDA:26,_ZNSt15__new_allocatorISt23_Sp_counted_ptr_inplaceI13RegistryEntryI19BVBurgerModelUpdateESaIvELN9__gnu_cxx12_Lock_policyE2EEE8allocateEmPKv
FNDA:212,_ZNSt15__new_allocatorISt13_Rb_tree_nodeImEE8allocateEmPKv
FNDA:26,_ZNSt15__new_allocatorISt23_Sp_counted_ptr_inplaceI13RegistryEntryI12BVPressureBCESaIvELN9__gnu_cxx12_Lock_policyE2EEE8allocateEmPKv
FNDA:26,_ZNSt15__new_allocatorISt23_Sp_counted_ptr_inplaceI13RegistryEntryI13BVPressureAuxESaIvELN9__gnu_cxx12_Lock_policyE2EEE8allocateEmPKv
FNDA:26,_ZNSt15__new_allocatorISt23_Sp_counted_ptr_inplaceI13RegistryEntryI20BVStrainComponentAuxESaIvELN9__gnu_cxx12_Lock_policyE2EEE8allocateEmPKv
FNDA:26,_ZNSt15__new_allocatorISt23_Sp_counted_ptr_inplaceI13RegistryEntryI26BVKelvinViscoelasticUpdateESaIvELN9__gnu_cxx12_Lock_policyE2EEE8allocateEmPKv
FNDA:26,_ZNSt15__new_allocatorISt23_Sp_counted_ptr_inplaceI13RegistryEntryI24BVMultiPhaseFlowMaterialESaIvELN9__gnu_cxx12_Lock_policyE2EEE8allocateEmPKv
FNDA:12,_ZNSt15__new_allocatorIP21BVInelasticUpdateBaseE8allocateEmPKv
FNDA:26,_ZNSt15__new_allocatorISt23_Sp_counted_ptr_inplaceI13RegistryEntryI31BVSinglePhaseFlowSoluteMaterialESaIvELN9__gnu_cxx12_Lock_policyE2EEE8allocateEmPKv
FNDA:5,_ZNSt15__new_allocatorISt13_Rb_tree_nodeISt4pairIKsSt3setISt6vectorImSaImEESt4lessIS6_ESaIS6_EEEEE8allocateEmPKv
FNDA:26,_ZNSt15__new_allocatorISt23_Sp_counted_ptr_inplaceI13RegistryEntryI16BVMisesStressAuxESaIvELN9__gnu_cxx12_Lock_policyE2EEE8allocateEmPKv
FNDA:26,_ZNSt15__new_allocatorISt23_Sp_counted_ptr_inplaceI13RegistryEntryI22BVConstantPermeabilityESaIvELN9__gnu_cxx12_Lock_policyE2EEE8allocateEmPKv
FNDA:26,_ZNSt15__new_allocatorISt23_Sp_counted_ptr_inplaceI13RegistryEntryI14BVEqvStrainAuxESaIvELN9__gnu_cxx12_Lock_policyE2EEE8allocateEmPKv
FNDA:0,_ZNSt15__new_allocatorISt13_Rb_tree_nodeISt4pairIKN5Moose7ElemArgEdEEE8allocateEmPKv
FNDA:0,_ZNSt15__new_allocatorISt13_Rb_tree_nodeISt4pairIK13MooseEnumItemS2_EEE8allocateEmPKv
FNDA:0,_ZNSt15__new_allocatorISt13_Rb_tree_nodeISt4pairIKNSt7__cxx1112basic_stringIcSt11char_traitsIcESaIcEEESt10unique_ptrI23AppFactoryBuildInfoBaseSt14default_deleteISA_EEEEE8allocateEmPKv
FNDA:26,_ZNSt15__new_allocatorISt23_Sp_counted_ptr_inplaceI13RegistryEntryI27BVFVMultiPhasePressureDarcyESaIvELN9__gnu_cxx12_Lock_policyE2EEE8allocateEmPKv
FNDA:0,_ZNSt15__new_allocatorIPK8FunctionE8allocateEmPKv
FNDA:5,_ZNSt15__new_allocatorI12BoundaryNameE8allocateEmPKv
FNDA:26,_ZNSt15__new_allocatorISt23_Sp_counted_ptr_inplaceI13RegistryEntryI20BVMechanicalMaterialESaIvELN9__gnu_cxx12_Lock_policyE2EEE8allocateEmPKv
FNDA:26,_ZNSt15__new_allocatorISt23_Sp_counted_ptr_inplaceI13RegistryEntryI18BVConstantPorosityESaIvELN9__gnu_cxx12_Lock_policyE2EEE8allocateEmPKv
FNDA:26,_ZNSt15__new_allocatorISt23_Sp_counted_ptr_inplaceI13RegistryEntryI27BVCapillaryPressurePowerLawESaIvELN9__gnu_cxx12_Lock_policyE2EEE8allocateEmPKv
FNDA:154,_ZNSt15__new_allocatorISt13_Rb_tree_nodeISt4pairIKNSt7__cxx1112basic_stringIcSt11char_traitsIcESaIcEEEN15InputParameters8MetadataEEEE8allocateEmPKv
FNDA:0,_ZNSt15__new_allocatorISt13_Rb_tree_nodeISt4pairIKmjEEE8allocateEmPKv
FNDA:0,_ZNSt15__new_allocatorINSt8__detail10_Hash_nodeISt4pairIKmSt6vectorIS2_IbdESaIS5_EEELb0EEEE8allocateEmPKv
FNDA:52,_ZNSt15__new_allocatorISt13_Rb_tree_nodeISt4pairIKNSt7__cxx1112basic_stringIcSt11char_traitsIcESaIcEEESt6vectorISt10shared_ptrI17RegistryEntryBaseESaISC_EEEEE8allocateEmPKv
FNDA:26,_ZNSt15__new_allocatorISt23_Sp_counted_ptr_inplaceI13RegistryEntryI38BVFVMultiPhaseSaturationTimeDerivativeESaIvELN9__gnu_cxx12_Lock_policyE2EEE8allocateEmPKv
FNDA:26,_ZNSt15__new_allocatorISt23_Sp_counted_ptr_inplaceI13RegistryEntryI24BVConstantFrictionUpdateESaIvELN9__gnu_cxx12_Lock_policyE2EEE8allocateEmPKv
FNDA:21040,_ZNSt15__new_allocatorIdE8allocateEmPKv
FNDA:26,_ZNSt15__new_allocatorISt23_Sp_counted_ptr_inplaceI13RegistryEntryI19BVLubby2ModelUpdateESaIvELN9__gnu_cxx12_Lock_policyE2EEE8allocateEmPKv
FNDA:26,_ZNSt15__new_allocatorISt23_Sp_counted_ptr_inplaceI13RegistryEntryI21BVShearTractionActionESaIvELN9__gnu_cxx12_Lock_policyE2EEE8allocateEmPKv
FNDA:26,_ZNSt15__new_allocatorISt23_Sp_counted_ptr_inplaceI13RegistryEntryI17BVFluidPropertiesESaIvELN9__gnu_cxx12_Lock_policyE2EEE8allocateEmPKv
FNDA:154,_ZNSt15__new_allocatorISt13_Rb_tree_nodeISt4pairIKNSt7__cxx1112basic_stringIcSt11char_traitsIcESaIcEEESt10unique_ptrIN7libMesh10Parameters5ValueESt14default_deleteISC_EEEEE8allocateEmPKv
FNDA:10,_ZNSt15__new_allocatorI21NonlinearVariableNameE8allocateEmPKv
FNDA:0,_ZNSt15__new_allocatorISt6vectorISt4pairIbdESaIS2_EEE8allocateEmPKv
FNDA:26,_ZNSt15__new_allocatorISt23_Sp_counted_ptr_inplaceI13RegistryEntryI30BVRelativePermeabilityPowerLawESaIvELN9__gnu_cxx12_Lock_policyE2EEE8allocateEmPKv
FNDA:26,_ZNSt15__new_allocatorISt23_Sp_counted_ptr_inplaceI13RegistryEntryI25BVSinglePhaseFlowMaterialESaIvELN9__gnu_cxx12_Lock_policyE2EEE8allocateEmPKv
FNDA:26,_ZNSt15__new_allocatorISt23_Sp_counted_ptr_inplaceI13RegistryEntryI20BVRTL2020ModelUpdateESaIvELN9__gnu_cxx12_Lock_policyE2EEE8allocateEmPKv
FNDA:2,_ZNSt15__new_allocatorISt23_Sp_counted_ptr_inplaceI21BVShearTractionActionSaIvELN9__gnu_cxx12_Lock_policyE2EEE8allocateEmPKv
FNDA:12,_ZNSt15__new_allocatorI12MaterialNameE8allocateEmPKv
FNDA:0,_ZNSt15__new_allocatorISt13_Rb_tree_nodeISt4pairIK13MooseEnumItemNSt7__cxx1112basic_stringIcSt11char_traitsIcESaIcEEEEEE8allocateEmPKv
FNDA:26,_ZNSt15__new_allocatorISt23_Sp_counted_ptr_inplaceI13RegistryEntryI25BVFaultInterfaceGeneratorESaIvELN9__gnu_cxx12_Lock_policyE2EEE8allocateEmPKv
FNDA:0,_ZNSt15__new_allocatorISt13_Rb_tree_nodeISt4pairIKN5Moose7FaceArgEdEEE8allocateEmPKv
FNDA:0,_ZNSt15__new_allocatorINSt8__detail10_Hash_nodeIjLb0EEEE8allocateEmPKv
FNDA:52,_ZNSt15__new_allocatorISt13_Rb_tree_nodeINSt7__cxx1112basic_stringIcSt11char_traitsIcESaIcEEEEE8allocateEmPKv
FNDA:0,_ZNSt15__new_allocatorISt10shared_ptrI17RegistryEntryBaseEE8allocateEmPKv
FNDA:0,_ZNSt15__new_allocatorISt4pairIbdEE8allocateEmPKv
FNDA:26,_ZNSt15__new_allocatorISt23_Sp_counted_ptr_inplaceI13RegistryEntryI16BVPressureActionESaIvELN9__gnu_cxx12_Lock_policyE2EEE8allocateEmPKv
FNDA:1298688,_ZNSt15__new_allocatorISt6vectorIN11MetaPhysicL10DualNumberIdNS1_28SemiDynamicSparseNumberArrayIdmNS1_8NWrapperILm64EEEEELb1EEESaIS7_EEE8allocateEmPKv
FNDA:26,_ZNSt15__new_allocatorISt23_Sp_counted_ptr_inplaceI13RegistryEntryI29BVMechanicalInterfaceMaterialESaIvELN9__gnu_cxx12_Lock_policyE2EEE8allocateEmPKv
FNDA:6652160,_ZNSt15__new_allocatorIN11MetaPhysicL10DualNumberIdNS0_28SemiDynamicSparseNumberArrayIdmNS0_8NWrapperILm64EEEEELb1EEEE8allocateEmPKv
FNDA:8,_ZNSt15__new_allocatorIPK10MooseArrayIdEE8allocateEmPKv
FNDA:0,_ZNSt15__new_allocatorINSt8__detail10_Hash_nodeISt4pairIKmSt6vectorIS2_IbN11MetaPhysicL10DualNumberIdNS5_28SemiDynamicSparseNumberArrayIdmNS5_8NWrapperILm64EEEEELb1EEEESaISC_EEELb0EEEE8allocateEmPKv
FNDA:0,_ZNSt15__new_allocatorISt4pairIbN11MetaPhysicL10DualNumberIdNS1_28SemiDynamicSparseNumberArrayIdmNS1_8NWrapperILm64EEEEELb1EEEEE8allocateEmPKv
FNDA:8,_ZNSt15__new_allocatorISt23_Sp_counted_ptr_inplaceI16BVPressureActionSaIvELN9__gnu_cxx12_Lock_policyE2EEE8allocateEmPKv
FNDA:0,_ZNSt15__new_allocatorISt6vectorISt4pairIbN11MetaPhysicL10DualNumberIdNS2_28SemiDynamicSparseNumberArrayIdmNS2_8NWrapperILm64EEEEELb1EEEESaIS9_EEE8allocateEmPKv
FNDA:5,_ZNSt15__new_allocatorISt13_Rb_tree_nodeIsEE8allocateEmPKv
FNDA:26,_ZNSt15__new_allocatorISt23_Sp_counted_ptr_inplaceI13RegistryEntryI29BVFVMultiPhaseSaturationDarcyESaIvELN9__gnu_cxx12_Lock_policyE2EEE8allocateEmPKv
FNDA:26,_ZNSt15__new_allocatorISt23_Sp_counted_ptr_inplaceI13RegistryEntryI35BVFVSinglePhaseSoluteTimeDerivativeESaIvELN9__gnu_cxx12_Lock_policyE2EEE8allocateEmPKv
FNDA:0,_ZNSt15__new_allocatorIP10BndElementE8allocateEmPKv
FNDA:26,_ZNSt15__new_allocatorISt23_Sp_counted_ptr_inplaceI13RegistryEntryI18BVDarcyVelocityAuxESaIvELN9__gnu_cxx12_Lock_policyE2EEE8allocateEmPKv
FNDA:0,_ZNSt15__new_allocatorISt13_Rb_tree_nodeI13MooseEnumItemEE8allocateEmPKv
FNDA:26,_ZNSt15__new_allocatorISt23_Sp_counted_ptr_inplaceI13RegistryEntryI18BVStressDivergenceESaIvELN9__gnu_cxx12_Lock_policyE2EEE8allocateEmPKv
FNDA:26,_ZNSt15__new_allocatorISt23_Sp_counted_ptr_inplaceI13RegistryEntryI27BVMaxwellViscoelasticUpdateESaIvELN9__gnu_cxx12_Lock_policyE2EEE8allocateEmPKv
FNDA:0,_ZNSt15__new_allocatorISt10unique_ptrI13PropertyValueSt14default_deleteIS1_EEE8allocateEmPKv
FNDA:1144,_ZNSt15__new_allocatorISt13_Rb_tree_nodeISt4pairIKNSt7__cxx1112basic_stringIcSt11char_traitsIcESaIcEEES7_EEE8allocateEmPKv
FNDA:212,_ZNSt15__new_allocatorISt13_Rb_tree_nodeISt6vectorImSaImEEEE8allocateEmPKv
FNDA:26,_ZNSt15__new_allocatorISt23_Sp_counted_ptr_inplaceI13RegistryEntryI21BVFaultShearStressAuxESaIvELN9__gnu_cxx12_Lock_policyE2EEE8allocateEmPKv
FNF:95
FNH:70
DA:112,7976118
DA:120,7976118
DA:124,0
DA:125,0
DA:126,0
DA:137,7976118
DA:158,7987585
DA:175,4207
DA:181,0
LF:9
LH:5
end_of_record
TN:
SF:/usr/share/miniconda3/envs/moose/x86_64-conda-linux-gnu/include/c++/12.3.0/bits/predefined_ops.h
FNF:0
FNH:0
DA:45,761
LF:1
LH:1
end_of_record
TN:
SF:/usr/share/miniconda3/envs/moose/x86_64-conda-linux-gnu/include/c++/12.3.0/bits/shared_ptr.h
FN:463,_ZNSt10shared_ptrI13RegistryEntryI36BVFVMultiPhasePressureTimeDerivativeEEC2ISaIvEJRK17RegistryEntryDataEEESt20_Sp_alloc_shared_tagIT_EDpOT0_
FN:463,_ZNSt10shared_ptrI13RegistryEntryI35BVFVSinglePhaseSoluteTimeDerivativeEEC2ISaIvEJRK17RegistryEntryDataEEESt20_Sp_alloc_shared_tagIT_EDpOT0_
FN:463,_ZNSt10shared_ptrI13RegistryEntryI20BVMechanicalMaterialEEC2ISaIvEJRK17RegistryEntryDataEEESt20_Sp_alloc_shared_tagIT_EDpOT0_
FN:463,_ZNSt10shared_ptrI13RegistryEntryI24BVConstantFrictionUpdateEEC2ISaIvEJRK17RegistryEntryDataEEESt20_Sp_alloc_shared_tagIT_EDpOT0_
FN:463,_ZNSt10shared_ptrI13RegistryEntryI27BVFVMultiPhasePressureDarcyEEC2ISaIvEJRK17RegistryEntryDataEEESt20_Sp_alloc_shared_tagIT_EDpOT0_
FN:463,_ZNSt10shared_ptrI13RegistryEntryI26BVFVSinglePhaseSoluteDarcyEEC2ISaIvEJRK17RegistryEntryDataEEESt20_Sp_alloc_shared_tagIT_EDpOT0_
FN:463,_ZNSt10shared_ptrI13RegistryEntryI22BVFaultNormalStressAuxEEC2ISaIvEJRK17RegistryEntryDataEEESt20_Sp_alloc_shared_tagIT_EDpOT0_
FN:463,_ZNSt10shared_ptrI16BVPressureActionEC2ISaIvEJRK15InputParametersEEESt20_Sp_alloc_shared_tagIT_EDpOT0_
FN:463,_ZNSt10shared_ptrI13RegistryEntryI20BVStrainComponentAuxEEC2ISaIvEJRK17RegistryEntryDataEEESt20_Sp_alloc_shared_tagIT_EDpOT0_
FN:463,_ZNSt10shared_ptrI13RegistryEntryI20BVFVSinglePhaseDarcyEEC2ISaIvEJRK17RegistryEntryDataEEESt20_Sp_alloc_shared_tagIT_EDpOT0_
FN:463,_ZNSt10shared_ptrI13RegistryEntryI19BVBurgerModelUpdateEEC2ISaIvEJRK17RegistryEntryDataEEESt20_Sp_alloc_shared_tagIT_EDpOT0_
FN:463,_ZNSt10shared_ptrI13RegistryEntryI20BVRTL2020ModelUpdateEEC2ISaIvEJRK17RegistryEntryDataEEESt20_Sp_alloc_shared_tagIT_EDpOT0_
FN:463,_ZNSt10shared_ptrI13RegistryEntryI16BVPressureActionEEC2ISaIvEJRK17RegistryEntryDataEEESt20_Sp_alloc_shared_tagIT_EDpOT0_
FN:463,_ZNSt10shared_ptrI13RegistryEntryI29BVMechanicalInterfaceMaterialEEC2ISaIvEJRK17RegistryEntryDataEEESt20_Sp_alloc_shared_tagIT_EDpOT0_
FN:463,_ZNSt10shared_ptrI13RegistryEntryI14BVEqvStrainAuxEEC2ISaIvEJRK17RegistryEntryDataEEESt20_Sp_alloc_shared_tagIT_EDpOT0_
FN:463,_ZNSt10shared_ptrI13RegistryEntryI26BVKelvinViscoelasticUpdateEEC2ISaIvEJRK17RegistryEntryDataEEESt20_Sp_alloc_shared_tagIT_EDpOT0_
FN:463,_ZNSt10shared_ptrI13RegistryEntryI29BVFVMultiPhaseSaturationDarcyEEC2ISaIvEJRK17RegistryEntryDataEEESt20_Sp_alloc_shared_tagIT_EDpOT0_
FN:463,_ZNSt10shared_ptrI13RegistryEntryI18BVEqvStrainRateAuxEEC2ISaIvEJRK17RegistryEntryDataEEESt20_Sp_alloc_shared_tagIT_EDpOT0_
FN:463,_ZNSt10shared_ptrI13RegistryEntryI31BVSinglePhaseFlowSoluteMaterialEEC2ISaIvEJRK17RegistryEntryDataEEESt20_Sp_alloc_shared_tagIT_EDpOT0_
FN:463,_ZNSt10shared_ptrI9BeaverAppEC2ISaIvEJRK15InputParametersEEESt20_Sp_alloc_shared_tagIT_EDpOT0_
FN:463,_ZNSt10shared_ptrI13RegistryEntryI27BVMaxwellViscoelasticUpdateEEC2ISaIvEJRK17RegistryEntryDataEEESt20_Sp_alloc_shared_tagIT_EDpOT0_
FN:463,_ZNSt10shared_ptrI13RegistryEntryI18BVConstantPorosityEEC2ISaIvEJRK17RegistryEntryDataEEESt20_Sp_alloc_shared_tagIT_EDpOT0_
FN:463,_ZNSt10shared_ptrI13RegistryEntryI19BVLubby2ModelUpdateEEC2ISaIvEJRK17RegistryEntryDataEEESt20_Sp_alloc_shared_tagIT_EDpOT0_
FN:463,_ZNSt10shared_ptrI13RegistryEntryI24BVMultiPhaseFlowMaterialEEC2ISaIvEJRK17RegistryEntryDataEEESt20_Sp_alloc_shared_tagIT_EDpOT0_
FN:463,_ZNSt10shared_ptrI13RegistryEntryI20BVConstantDispersionEEC2ISaIvEJRK17RegistryEntryDataEEESt20_Sp_alloc_shared_tagIT_EDpOT0_
FN:463,_ZNSt10shared_ptrI13RegistryEntryI21BVFaultShearStressAuxEEC2ISaIvEJRK17RegistryEntryDataEEESt20_Sp_alloc_shared_tagIT_EDpOT0_
FN:463,_ZNSt10shared_ptrI13RegistryEntryI23BVPoroMechanicsMaterialEEC2ISaIvEJRK17RegistryEntryDataEEESt20_Sp_alloc_shared_tagIT_EDpOT0_
FN:463,_ZNSt10shared_ptrI13RegistryEntryI38BVFVMultiPhaseSaturationTimeDerivativeEEC2ISaIvEJRK17RegistryEntryDataEEESt20_Sp_alloc_shared_tagIT_EDpOT0_
FN:463,_ZNSt10shared_ptrI13RegistryEntryI18BVStressDivergenceEEC2ISaIvEJRK17RegistryEntryDataEEESt20_Sp_alloc_shared_tagIT_EDpOT0_
FN:463,_ZNSt10shared_ptrI13RegistryEntryI17BVFluidPropertiesEEC2ISaIvEJRK17RegistryEntryDataEEESt20_Sp_alloc_shared_tagIT_EDpOT0_
FN:463,_ZNSt10shared_ptrI13RegistryEntryI13BVPressureAuxEEC2ISaIvEJRK17RegistryEntryDataEEESt20_Sp_alloc_shared_tagIT_EDpOT0_
FN:463,_ZNSt10shared_ptrI13RegistryEntryI18BVDarcyVelocityAuxEEC2ISaIvEJRK17RegistryEntryDataEEESt20_Sp_alloc_shared_tagIT_EDpOT0_
FN:463,_ZNSt10shared_ptrI13RegistryEntryI17BVShearTractionBCEEC2ISaIvEJRK17RegistryEntryDataEEESt20_Sp_alloc_shared_tagIT_EDpOT0_
FN:463,_ZNSt10shared_ptrI13RegistryEntryI29BVFVSinglePhaseTimeDerivativeEEC2ISaIvEJRK17RegistryEntryDataEEESt20_Sp_alloc_shared_tagIT_EDpOT0_
FN:463,_ZNSt10shared_ptrI13RegistryEntryI21BVShearTractionActionEEC2ISaIvEJRK17RegistryEntryDataEEESt20_Sp_alloc_shared_tagIT_EDpOT0_
FN:463,_ZNSt10shared_ptrI13RegistryEntryI30BVRelativePermeabilityPowerLawEEC2ISaIvEJRK17RegistryEntryDataEEESt20_Sp_alloc_shared_tagIT_EDpOT0_
FN:463,_ZNSt10shared_ptrI13RegistryEntryI21BVMechanicalInterfaceEEC2ISaIvEJRK17RegistryEntryDataEEESt20_Sp_alloc_shared_tagIT_EDpOT0_
FN:463,_ZNSt10shared_ptrI13RegistryEntryI12BVPressureBCEEC2ISaIvEJRK17RegistryEntryDataEEESt20_Sp_alloc_shared_tagIT_EDpOT0_
FN:463,_ZNSt10shared_ptrI13RegistryEntryI16BVMisesStressAuxEEC2ISaIvEJRK17RegistryEntryDataEEESt20_Sp_alloc_shared_tagIT_EDpOT0_
FN:463,_ZNSt10shared_ptrI13RegistryEntryI25BVSinglePhaseFlowMaterialEEC2ISaIvEJRK17RegistryEntryDataEEESt20_Sp_alloc_shared_tagIT_EDpOT0_
FN:463,_ZNSt10shared_ptrI13RegistryEntryI22BVConstantPermeabilityEEC2ISaIvEJRK17RegistryEntryDataEEESt20_Sp_alloc_shared_tagIT_EDpOT0_
FN:463,_ZNSt10shared_ptrI13RegistryEntryI18BVSinglePhaseDarcyEEC2ISaIvEJRK17RegistryEntryDataEEESt20_Sp_alloc_shared_tagIT_EDpOT0_
FN:463,_ZNSt10shared_ptrI13RegistryEntryI20BVStressComponentAuxEEC2ISaIvEJRK17RegistryEntryDataEEESt20_Sp_alloc_shared_tagIT_EDpOT0_
FN:463,_ZNSt10shared_ptrI13RegistryEntryI27BVSinglePhaseTimeDerivativeEEC2ISaIvEJRK17RegistryEntryDataEEESt20_Sp_alloc_shared_tagIT_EDpOT0_
FN:463,_ZNSt10shared_ptrI13RegistryEntryI25BVFaultInterfaceGeneratorEEC2ISaIvEJRK17RegistryEntryDataEEESt20_Sp_alloc_shared_tagIT_EDpOT0_
FN:463,_ZNSt10shared_ptrI13RegistryEntryI27BVCapillaryPressurePowerLawEEC2ISaIvEJRK17RegistryEntryDataEEESt20_Sp_alloc_shared_tagIT_EDpOT0_
FN:463,_ZNSt10shared_ptrI21BVShearTractionActionEC2ISaIvEJRK15InputParametersEEESt20_Sp_alloc_shared_tagIT_EDpOT0_
FNDA:0,_ZNSt10shared_ptrI9BeaverAppEC2ISaIvEJRK15InputParametersEEESt20_Sp_alloc_shared_tagIT_EDpOT0_
FNDA:26,_ZNSt10shared_ptrI13RegistryEntryI27BVMaxwellViscoelasticUpdateEEC2ISaIvEJRK17RegistryEntryDataEEESt20_Sp_alloc_shared_tagIT_EDpOT0_
FNDA:26,_ZNSt10shared_ptrI13RegistryEntryI18BVConstantPorosityEEC2ISaIvEJRK17RegistryEntryDataEEESt20_Sp_alloc_shared_tagIT_EDpOT0_
FNDA:26,_ZNSt10shared_ptrI13RegistryEntryI31BVSinglePhaseFlowSoluteMaterialEEC2ISaIvEJRK17RegistryEntryDataEEESt20_Sp_alloc_shared_tagIT_EDpOT0_
FNDA:26,_ZNSt10shared_ptrI13RegistryEntryI19BVLubby2ModelUpdateEEC2ISaIvEJRK17RegistryEntryDataEEESt20_Sp_alloc_shared_tagIT_EDpOT0_
FNDA:26,_ZNSt10shared_ptrI13RegistryEntryI24BVMultiPhaseFlowMaterialEEC2ISaIvEJRK17RegistryEntryDataEEESt20_Sp_alloc_shared_tagIT_EDpOT0_
FNDA:26,_ZNSt10shared_ptrI13RegistryEntryI29BVFVMultiPhaseSaturationDarcyEEC2ISaIvEJRK17RegistryEntryDataEEESt20_Sp_alloc_shared_tagIT_EDpOT0_
FNDA:26,_ZNSt10shared_ptrI13RegistryEntryI18BVEqvStrainRateAuxEEC2ISaIvEJRK17RegistryEntryDataEEESt20_Sp_alloc_shared_tagIT_EDpOT0_
FNDA:26,_ZNSt10shared_ptrI13RegistryEntryI14BVEqvStrainAuxEEC2ISaIvEJRK17RegistryEntryDataEEESt20_Sp_alloc_shared_tagIT_EDpOT0_
FNDA:26,_ZNSt10shared_ptrI13RegistryEntryI26BVKelvinViscoelasticUpdateEEC2ISaIvEJRK17RegistryEntryDataEEESt20_Sp_alloc_shared_tagIT_EDpOT0_
FNDA:26,_ZNSt10shared_ptrI13RegistryEntryI20BVRTL2020ModelUpdateEEC2ISaIvEJRK17RegistryEntryDataEEESt20_Sp_alloc_shared_tagIT_EDpOT0_
FNDA:26,_ZNSt10shared_ptrI13RegistryEntryI19BVBurgerModelUpdateEEC2ISaIvEJRK17RegistryEntryDataEEESt20_Sp_alloc_shared_tagIT_EDpOT0_
FNDA:26,_ZNSt10shared_ptrI13RegistryEntryI16BVPressureActionEEC2ISaIvEJRK17RegistryEntryDataEEESt20_Sp_alloc_shared_tagIT_EDpOT0_
FNDA:26,_ZNSt10shared_ptrI13RegistryEntryI29BVMechanicalInterfaceMaterialEEC2ISaIvEJRK17RegistryEntryDataEEESt20_Sp_alloc_shared_tagIT_EDpOT0_
FNDA:26,_ZNSt10shared_ptrI13RegistryEntryI26BVFVSinglePhaseSoluteDarcyEEC2ISaIvEJRK17RegistryEntryDataEEESt20_Sp_alloc_shared_tagIT_EDpOT0_
FNDA:26,_ZNSt10shared_ptrI13RegistryEntryI22BVFaultNormalStressAuxEEC2ISaIvEJRK17RegistryEntryDataEEESt20_Sp_alloc_shared_tagIT_EDpOT0_
FNDA:8,_ZNSt10shared_ptrI16BVPressureActionEC2ISaIvEJRK15InputParametersEEESt20_Sp_alloc_shared_tagIT_EDpOT0_
FNDA:26,_ZNSt10shared_ptrI13RegistryEntryI20BVStrainComponentAuxEEC2ISaIvEJRK17RegistryEntryDataEEESt20_Sp_alloc_shared_tagIT_EDpOT0_
FNDA:26,_ZNSt10shared_ptrI13RegistryEntryI20BVFVSinglePhaseDarcyEEC2ISaIvEJRK17RegistryEntryDataEEESt20_Sp_alloc_shared_tagIT_EDpOT0_
FNDA:26,_ZNSt10shared_ptrI13RegistryEntryI27BVFVMultiPhasePressureDarcyEEC2ISaIvEJRK17RegistryEntryDataEEESt20_Sp_alloc_shared_tagIT_EDpOT0_
FNDA:26,_ZNSt10shared_ptrI13RegistryEntryI35BVFVSinglePhaseSoluteTimeDerivativeEEC2ISaIvEJRK17RegistryEntryDataEEESt20_Sp_alloc_shared_tagIT_EDpOT0_
FNDA:26,_ZNSt10shared_ptrI13RegistryEntryI20BVMechanicalMaterialEEC2ISaIvEJRK17RegistryEntryDataEEESt20_Sp_alloc_shared_tagIT_EDpOT0_
FNDA:26,_ZNSt10shared_ptrI13RegistryEntryI24BVConstantFrictionUpdateEEC2ISaIvEJRK17RegistryEntryDataEEESt20_Sp_alloc_shared_tagIT_EDpOT0_
FNDA:26,_ZNSt10shared_ptrI13RegistryEntryI36BVFVMultiPhasePressureTimeDerivativeEEC2ISaIvEJRK17RegistryEntryDataEEESt20_Sp_alloc_shared_tagIT_EDpOT0_
FNDA:26,_ZNSt10shared_ptrI13RegistryEntryI27BVCapillaryPressurePowerLawEEC2ISaIvEJRK17RegistryEntryDataEEESt20_Sp_alloc_shared_tagIT_EDpOT0_
FNDA:2,_ZNSt10shared_ptrI21BVShearTractionActionEC2ISaIvEJRK15InputParametersEEESt20_Sp_alloc_shared_tagIT_EDpOT0_
FNDA:26,_ZNSt10shared_ptrI13RegistryEntryI27BVSinglePhaseTimeDerivativeEEC2ISaIvEJRK17RegistryEntryDataEEESt20_Sp_alloc_shared_tagIT_EDpOT0_
FNDA:26,_ZNSt10shared_ptrI13RegistryEntryI20BVStressComponentAuxEEC2ISaIvEJRK17RegistryEntryDataEEESt20_Sp_alloc_shared_tagIT_EDpOT0_
FNDA:26,_ZNSt10shared_ptrI13RegistryEntryI25BVFaultInterfaceGeneratorEEC2ISaIvEJRK17RegistryEntryDataEEESt20_Sp_alloc_shared_tagIT_EDpOT0_
FNDA:26,_ZNSt10shared_ptrI13RegistryEntryI22BVConstantPermeabilityEEC2ISaIvEJRK17RegistryEntryDataEEESt20_Sp_alloc_shared_tagIT_EDpOT0_
FNDA:26,_ZNSt10shared_ptrI13RegistryEntryI25BVSinglePhaseFlowMaterialEEC2ISaIvEJRK17RegistryEntryDataEEESt20_Sp_alloc_shared_tagIT_EDpOT0_
FNDA:26,_ZNSt10shared_ptrI13RegistryEntryI18BVSinglePhaseDarcyEEC2ISaIvEJRK17RegistryEntryDataEEESt20_Sp_alloc_shared_tagIT_EDpOT0_
FNDA:26,_ZNSt10shared_ptrI13RegistryEntryI12BVPressureBCEEC2ISaIvEJRK17RegistryEntryDataEEESt20_Sp_alloc_shared_tagIT_EDpOT0_
FNDA:26,_ZNSt10shared_ptrI13RegistryEntryI16BVMisesStressAuxEEC2ISaIvEJRK17RegistryEntryDataEEESt20_Sp_alloc_shared_tagIT_EDpOT0_
FNDA:26,_ZNSt10shared_ptrI13RegistryEntryI30BVRelativePermeabilityPowerLawEEC2ISaIvEJRK17RegistryEntryDataEEESt20_Sp_alloc_shared_tagIT_EDpOT0_
FNDA:26,_ZNSt10shared_ptrI13RegistryEntryI21BVMechanicalInterfaceEEC2ISaIvEJRK17RegistryEntryDataEEESt20_Sp_alloc_shared_tagIT_EDpOT0_
FNDA:26,_ZNSt10shared_ptrI13RegistryEntryI29BVFVSinglePhaseTimeDerivativeEEC2ISaIvEJRK17RegistryEntryDataEEESt20_Sp_alloc_shared_tagIT_EDpOT0_
FNDA:26,_ZNSt10shared_ptrI13RegistryEntryI21BVShearTractionActionEEC2ISaIvEJRK17RegistryEntryDataEEESt20_Sp_alloc_shared_tagIT_EDpOT0_
FNDA:26,_ZNSt10shared_ptrI13RegistryEntryI38BVFVMultiPhaseSaturationTimeDerivativeEEC2ISaIvEJRK17RegistryEntryDataEEESt20_Sp_alloc_shared_tagIT_EDpOT0_
FNDA:26,_ZNSt10shared_ptrI13RegistryEntryI18BVStressDivergenceEEC2ISaIvEJRK17RegistryEntryDataEEESt20_Sp_alloc_shared_tagIT_EDpOT0_
FNDA:26,_ZNSt10shared_ptrI13RegistryEntryI17BVFluidPropertiesEEC2ISaIvEJRK17RegistryEntryDataEEESt20_Sp_alloc_shared_tagIT_EDpOT0_
FNDA:26,_ZNSt10shared_ptrI13RegistryEntryI18BVDarcyVelocityAuxEEC2ISaIvEJRK17RegistryEntryDataEEESt20_Sp_alloc_shared_tagIT_EDpOT0_
FNDA:26,_ZNSt10shared_ptrI13RegistryEntryI13BVPressureAuxEEC2ISaIvEJRK17RegistryEntryDataEEESt20_Sp_alloc_shared_tagIT_EDpOT0_
FNDA:26,_ZNSt10shared_ptrI13RegistryEntryI17BVShearTractionBCEEC2ISaIvEJRK17RegistryEntryDataEEESt20_Sp_alloc_shared_tagIT_EDpOT0_
FNDA:26,_ZNSt10shared_ptrI13RegistryEntryI20BVConstantDispersionEEC2ISaIvEJRK17RegistryEntryDataEEESt20_Sp_alloc_shared_tagIT_EDpOT0_
FNDA:26,_ZNSt10shared_ptrI13RegistryEntryI21BVFaultShearStressAuxEEC2ISaIvEJRK17RegistryEntryDataEEESt20_Sp_alloc_shared_tagIT_EDpOT0_
FNDA:26,_ZNSt10shared_ptrI13RegistryEntryI23BVPoroMechanicsMaterialEEC2ISaIvEJRK17RegistryEntryDataEEESt20_Sp_alloc_shared_tagIT_EDpOT0_
FNF:47
FNH:46
DA:175,2313
DA:463,1154
DA:464,1154
DA:465,1154
DA:930,302
DA:1010,1154
LF:6
LH:6
end_of_record
TN:
SF:/usr/share/miniconda3/envs/moose/x86_64-conda-linux-gnu/include/c++/12.3.0/bits/shared_ptr_base.h
FN:143,_ZNSt16_Sp_counted_baseILN9__gnu_cxx12_Lock_policyE2EE10_M_destroyEv
FN:151,_ZNSt16_Sp_counted_baseILN9__gnu_cxx12_Lock_policyE2EE15_M_add_ref_copyEv
FN:172,_ZNSt16_Sp_counted_baseILN9__gnu_cxx12_Lock_policyE2EE19_M_release_last_useEv
FN:198,_ZNSt16_Sp_counted_baseILN9__gnu_cxx12_Lock_policyE2EE24_M_release_last_use_coldEv
FN:208,_ZNSt16_Sp_counted_baseILN9__gnu_cxx12_Lock_policyE2EE15_M_weak_releaseEv
FN:317,_ZNSt16_Sp_counted_baseILN9__gnu_cxx12_Lock_policyE2EE10_M_releaseEv
FN:455,_ZNSt15_Sp_counted_ptrIDnLN9__gnu_cxx12_Lock_policyE2EE10_M_disposeEv
FN:608,_ZNSt23_Sp_counted_ptr_inplaceI21BVShearTractionActionSaIvELN9__gnu_cxx12_Lock_policyE2EED0Ev
FN:608,_ZNSt23_Sp_counted_ptr_inplaceI13RegistryEntryI19BVBurgerModelUpdateESaIvELN9__gnu_cxx12_Lock_policyE2EED2Ev
FN:608,_ZNSt23_Sp_counted_ptr_inplaceI13RegistryEntryI29BVFVSinglePhaseTimeDerivativeESaIvELN9__gnu_cxx12_Lock_policyE2EED2Ev
FN:608,_ZNSt23_Sp_counted_ptr_inplaceI13RegistryEntryI21BVShearTractionActionESaIvELN9__gnu_cxx12_Lock_policyE2EED2Ev
FN:608,_ZNSt23_Sp_counted_ptr_inplaceI13RegistryEntryI21BVMechanicalInterfaceESaIvELN9__gnu_cxx12_Lock_policyE2EED2Ev
FN:608,_ZNSt23_Sp_counted_ptr_inplaceI13RegistryEntryI14BVEqvStrainAuxESaIvELN9__gnu_cxx12_Lock_policyE2EED0Ev
FN:608,_ZNSt23_Sp_counted_ptr_inplaceI13RegistryEntryI20BVMechanicalMaterialESaIvELN9__gnu_cxx12_Lock_policyE2EED0Ev
FN:608,_ZNSt23_Sp_counted_ptr_inplaceI13RegistryEntryI12BVPressureBCESaIvELN9__gnu_cxx12_Lock_policyE2EED0Ev
FN:608,_ZNSt23_Sp_counted_ptr_inplaceI13RegistryEntryI22BVFaultNormalStressAuxESaIvELN9__gnu_cxx12_Lock_policyE2EED2Ev
FN:608,_ZNSt23_Sp_counted_ptr_inplaceI13RegistryEntryI27BVCapillaryPressurePowerLawESaIvELN9__gnu_cxx12_Lock_policyE2EED0Ev
FN:608,_ZNSt23_Sp_counted_ptr_inplaceI13RegistryEntryI23BVPoroMechanicsMaterialESaIvELN9__gnu_cxx12_Lock_policyE2EED0Ev
FN:608,_ZNSt23_Sp_counted_ptr_inplaceI13RegistryEntryI22BVConstantPermeabilityESaIvELN9__gnu_cxx12_Lock_policyE2EED2Ev
FN:608,_ZNSt23_Sp_counted_ptr_inplaceI16BVPressureActionSaIvELN9__gnu_cxx12_Lock_policyE2EED0Ev
FN:608,_ZNSt23_Sp_counted_ptr_inplaceI16BVPressureActionSaIvELN9__gnu_cxx12_Lock_policyE2EED2Ev
FN:608,_ZNSt23_Sp_counted_ptr_inplaceI13RegistryEntryI27BVCapillaryPressurePowerLawESaIvELN9__gnu_cxx12_Lock_policyE2EED2Ev
FN:608,_ZNSt23_Sp_counted_ptr_inplaceI13RegistryEntryI20BVConstantDispersionESaIvELN9__gnu_cxx12_Lock_policyE2EED2Ev
FN:608,_ZNSt23_Sp_counted_ptr_inplaceI13RegistryEntryI24BVConstantFrictionUpdateESaIvELN9__gnu_cxx12_Lock_policyE2EED0Ev
FN:608,_ZNSt23_Sp_counted_ptr_inplaceI13RegistryEntryI20BVMechanicalMaterialESaIvELN9__gnu_cxx12_Lock_policyE2EED2Ev
FN:608,_ZNSt23_Sp_counted_ptr_inplaceI13RegistryEntryI27BVFVMultiPhasePressureDarcyESaIvELN9__gnu_cxx12_Lock_policyE2EED2Ev
FN:608,_ZNSt23_Sp_counted_ptr_inplaceI13RegistryEntryI25BVSinglePhaseFlowMaterialESaIvELN9__gnu_cxx12_Lock_policyE2EED0Ev
FN:608,_ZNSt23_Sp_counted_ptr_inplaceI13RegistryEntryI36BVFVMultiPhasePressureTimeDerivativeESaIvELN9__gnu_cxx12_Lock_policyE2EED0Ev
FN:608,_ZNSt23_Sp_counted_ptr_inplaceI13RegistryEntryI18BVStressDivergenceESaIvELN9__gnu_cxx12_Lock_policyE2EED0Ev
FN:608,_ZNSt23_Sp_counted_ptr_inplaceI13RegistryEntryI38BVFVMultiPhaseSaturationTimeDerivativeESaIvELN9__gnu_cxx12_Lock_policyE2EED0Ev
FN:608,_ZNSt23_Sp_counted_ptr_inplaceI13RegistryEntryI17BVFluidPropertiesESaIvELN9__gnu_cxx12_Lock_policyE2EED0Ev
FN:608,_ZNSt23_Sp_counted_ptr_inplaceI13RegistryEntryI18BVSinglePhaseDarcyESaIvELN9__gnu_cxx12_Lock_policyE2EED0Ev
FN:608,_ZNSt23_Sp_counted_ptr_inplaceISt5mutexSaIvELN9__gnu_cxx12_Lock_policyE2EED0Ev
FN:608,_ZNSt23_Sp_counted_ptr_inplaceI13RegistryEntryI20BVFVSinglePhaseDarcyESaIvELN9__gnu_cxx12_Lock_policyE2EED0Ev
FN:608,_ZNSt23_Sp_counted_ptr_inplaceI13RegistryEntryI27BVMaxwellViscoelasticUpdateESaIvELN9__gnu_cxx12_Lock_policyE2EED2Ev
FN:608,_ZNSt23_Sp_counted_ptr_inplaceI13RegistryEntryI31BVSinglePhaseFlowSoluteMaterialESaIvELN9__gnu_cxx12_Lock_policyE2EED2Ev
FN:608,_ZNSt23_Sp_counted_ptr_inplaceI13RegistryEntryI19BVLubby2ModelUpdateESaIvELN9__gnu_cxx12_Lock_policyE2EED0Ev
FN:608,_ZNSt23_Sp_counted_ptr_inplaceI13RegistryEntryI22BVFaultNormalStressAuxESaIvELN9__gnu_cxx12_Lock_policyE2EED0Ev
FN:608,_ZNSt23_Sp_counted_ptr_inplaceI13RegistryEntryI29BVFVSinglePhaseTimeDerivativeESaIvELN9__gnu_cxx12_Lock_policyE2EED0Ev
FN:608,_ZNSt23_Sp_counted_ptr_inplaceI13RegistryEntryI30BVRelativePermeabilityPowerLawESaIvELN9__gnu_cxx12_Lock_policyE2EED2Ev
FN:608,_ZNSt23_Sp_counted_ptr_inplaceI13RegistryEntryI24BVConstantFrictionUpdateESaIvELN9__gnu_cxx12_Lock_policyE2EED2Ev
FN:608,_ZNSt23_Sp_counted_ptr_inplaceI13RegistryEntryI29BVMechanicalInterfaceMaterialESaIvELN9__gnu_cxx12_Lock_policyE2EED0Ev
FN:608,_ZNSt23_Sp_counted_ptr_inplaceI13RegistryEntryI23BVPoroMechanicsMaterialESaIvELN9__gnu_cxx12_Lock_policyE2EED2Ev
FN:608,_ZNSt23_Sp_counted_ptr_inplaceI13RegistryEntryI26BVKelvinViscoelasticUpdateESaIvELN9__gnu_cxx12_Lock_policyE2EED0Ev
FN:608,_ZNSt23_Sp_counted_ptr_inplaceI13RegistryEntryI35BVFVSinglePhaseSoluteTimeDerivativeESaIvELN9__gnu_cxx12_Lock_policyE2EED2Ev
FN:608,_ZNSt23_Sp_counted_ptr_inplaceI13RegistryEntryI18BVConstantPorosityESaIvELN9__gnu_cxx12_Lock_policyE2EED0Ev
FN:608,_ZNSt23_Sp_counted_ptr_inplaceI13RegistryEntryI12BVPressureBCESaIvELN9__gnu_cxx12_Lock_policyE2EED2Ev
FN:608,_ZNSt23_Sp_counted_ptr_inplaceI13RegistryEntryI18BVEqvStrainRateAuxESaIvELN9__gnu_cxx12_Lock_policyE2EED0Ev
FN:608,_ZNSt23_Sp_counted_ptr_inplaceI13RegistryEntryI22BVConstantPermeabilityESaIvELN9__gnu_cxx12_Lock_policyE2EED0Ev
FN:608,_ZNSt23_Sp_counted_ptr_inplaceI13RegistryEntryI26BVFVSinglePhaseSoluteDarcyESaIvELN9__gnu_cxx12_Lock_policyE2EED0Ev
FN:608,_ZNSt23_Sp_counted_ptr_inplaceI13RegistryEntryI38BVFVMultiPhaseSaturationTimeDerivativeESaIvELN9__gnu_cxx12_Lock_policyE2EED2Ev
FN:608,_ZNSt23_Sp_counted_ptr_inplaceI13RegistryEntryI31BVSinglePhaseFlowSoluteMaterialESaIvELN9__gnu_cxx12_Lock_policyE2EED0Ev
FN:608,_ZNSt23_Sp_counted_ptr_inplaceI13RegistryEntryI20BVFVSinglePhaseDarcyESaIvELN9__gnu_cxx12_Lock_policyE2EED2Ev
FN:608,_ZNSt23_Sp_counted_ptr_inplaceI13RegistryEntryI18BVConstantPorosityESaIvELN9__gnu_cxx12_Lock_policyE2EED2Ev
FN:608,_ZNSt23_Sp_counted_ptr_inplaceI13RegistryEntryI36BVFVMultiPhasePressureTimeDerivativeESaIvELN9__gnu_cxx12_Lock_policyE2EED2Ev
FN:608,_ZNSt23_Sp_counted_ptr_inplaceI13RegistryEntryI14BVEqvStrainAuxESaIvELN9__gnu_cxx12_Lock_policyE2EED2Ev
FN:608,_ZNSt23_Sp_counted_ptr_inplaceI13RegistryEntryI21BVShearTractionActionESaIvELN9__gnu_cxx12_Lock_policyE2EED0Ev
FN:608,_ZNSt23_Sp_counted_ptr_inplaceI13RegistryEntryI18BVDarcyVelocityAuxESaIvELN9__gnu_cxx12_Lock_policyE2EED2Ev
FN:608,_ZNSt23_Sp_counted_ptr_inplaceI13RegistryEntryI18BVStressDivergenceESaIvELN9__gnu_cxx12_Lock_policyE2EED2Ev
FN:608,_ZNSt23_Sp_counted_ptr_inplaceI13RegistryEntryI29BVFVMultiPhaseSaturationDarcyESaIvELN9__gnu_cxx12_Lock_policyE2EED2Ev
FN:608,_ZNSt23_Sp_counted_ptr_inplaceI13RegistryEntryI18BVSinglePhaseDarcyESaIvELN9__gnu_cxx12_Lock_policyE2EED2Ev
FN:608,_ZNSt23_Sp_counted_ptr_inplaceINSt13__future_base13_State_baseV2ESaIvELN9__gnu_cxx12_Lock_policyE2EED0Ev
FN:608,_ZNSt23_Sp_counted_ptr_inplaceI13RegistryEntryI20BVRTL2020ModelUpdateESaIvELN9__gnu_cxx12_Lock_policyE2EED2Ev
FN:608,_ZNSt23_Sp_counted_ptr_inplaceI13RegistryEntryI21BVMechanicalInterfaceESaIvELN9__gnu_cxx12_Lock_policyE2EED0Ev
FN:608,_ZNSt23_Sp_counted_ptr_inplaceI13RegistryEntryI26BVFVSinglePhaseSoluteDarcyESaIvELN9__gnu_cxx12_Lock_policyE2EED2Ev
FN:608,_ZNSt23_Sp_counted_ptr_inplaceI13RegistryEntryI27BVSinglePhaseTimeDerivativeESaIvELN9__gnu_cxx12_Lock_policyE2EED0Ev
FN:608,_ZNSt23_Sp_counted_ptr_inplaceI13RegistryEntryI18BVDarcyVelocityAuxESaIvELN9__gnu_cxx12_Lock_policyE2EED0Ev
FN:608,_ZNSt23_Sp_counted_ptr_inplaceI13RegistryEntryI27BVSinglePhaseTimeDerivativeESaIvELN9__gnu_cxx12_Lock_policyE2EED2Ev
FN:608,_ZNSt23_Sp_counted_ptr_inplaceI13RegistryEntryI25BVSinglePhaseFlowMaterialESaIvELN9__gnu_cxx12_Lock_policyE2EED2Ev
FN:608,_ZNSt23_Sp_counted_ptr_inplaceI13RegistryEntryI17BVShearTractionBCESaIvELN9__gnu_cxx12_Lock_policyE2EED0Ev
FN:608,_ZNSt23_Sp_counted_ptr_inplaceI13RegistryEntryI24BVMultiPhaseFlowMaterialESaIvELN9__gnu_cxx12_Lock_policyE2EED0Ev
FN:608,_ZNSt23_Sp_counted_ptr_inplaceI13RegistryEntryI25BVFaultInterfaceGeneratorESaIvELN9__gnu_cxx12_Lock_policyE2EED2Ev
FN:608,_ZNSt23_Sp_counted_ptr_inplaceI13RegistryEntryI20BVRTL2020ModelUpdateESaIvELN9__gnu_cxx12_Lock_policyE2EED0Ev
FN:608,_ZNSt23_Sp_counted_ptr_inplaceI13RegistryEntryI20BVStressComponentAuxESaIvELN9__gnu_cxx12_Lock_policyE2EED2Ev
FN:608,_ZNSt23_Sp_counted_ptr_inplaceI13RegistryEntryI20BVStressComponentAuxESaIvELN9__gnu_cxx12_Lock_policyE2EED0Ev
FN:608,_ZNSt23_Sp_counted_ptr_inplaceI13RegistryEntryI18BVEqvStrainRateAuxESaIvELN9__gnu_cxx12_Lock_policyE2EED2Ev
FN:608,_ZNSt23_Sp_counted_ptr_inplaceI13RegistryEntryI16BVMisesStressAuxESaIvELN9__gnu_cxx12_Lock_policyE2EED2Ev
FN:608,_ZNSt23_Sp_counted_ptr_inplaceI13RegistryEntryI16BVPressureActionESaIvELN9__gnu_cxx12_Lock_policyE2EED0Ev
FN:608,_ZNSt23_Sp_counted_ptr_inplaceI13RegistryEntryI27BVFVMultiPhasePressureDarcyESaIvELN9__gnu_cxx12_Lock_policyE2EED0Ev
FN:608,_ZNSt23_Sp_counted_ptr_inplaceI13RegistryEntryI25BVFaultInterfaceGeneratorESaIvELN9__gnu_cxx12_Lock_policyE2EED0Ev
FN:608,_ZNSt23_Sp_counted_ptr_inplaceI13RegistryEntryI20BVStrainComponentAuxESaIvELN9__gnu_cxx12_Lock_policyE2EED0Ev
FN:608,_ZNSt23_Sp_counted_ptr_inplaceI13RegistryEntryI29BVFVMultiPhaseSaturationDarcyESaIvELN9__gnu_cxx12_Lock_policyE2EED0Ev
FN:608,_ZNSt23_Sp_counted_ptr_inplaceI13RegistryEntryI16BVMisesStressAuxESaIvELN9__gnu_cxx12_Lock_policyE2EED0Ev
FN:608,_ZNSt23_Sp_counted_ptr_inplaceI9BeaverAppSaIvELN9__gnu_cxx12_Lock_policyE2EED0Ev
FN:608,_ZNSt23_Sp_counted_ptr_inplaceI13RegistryEntryI19BVLubby2ModelUpdateESaIvELN9__gnu_cxx12_Lock_policyE2EED2Ev
FN:608,_ZNSt23_Sp_counted_ptr_inplaceI13RegistryEntryI20BVStrainComponentAuxESaIvELN9__gnu_cxx12_Lock_policyE2EED2Ev
FN:608,_ZNSt23_Sp_counted_ptr_inplaceISt5mutexSaIvELN9__gnu_cxx12_Lock_policyE2EED2Ev
FN:608,_ZNSt23_Sp_counted_ptr_inplaceI13RegistryEntryI27BVMaxwellViscoelasticUpdateESaIvELN9__gnu_cxx12_Lock_policyE2EED0Ev
FN:608,_ZNSt23_Sp_counted_ptr_inplaceI13RegistryEntryI30BVRelativePermeabilityPowerLawESaIvELN9__gnu_cxx12_Lock_policyE2EED0Ev
FN:608,_ZNSt23_Sp_counted_ptr_inplaceI13RegistryEntryI17BVShearTractionBCESaIvELN9__gnu_cxx12_Lock_policyE2EED2Ev
FN:608,_ZNSt23_Sp_counted_ptr_inplaceI13RegistryEntryI13BVPressureAuxESaIvELN9__gnu_cxx12_Lock_policyE2EED0Ev
FN:608,_ZNSt23_Sp_counted_ptr_inplaceI13RegistryEntryI21BVFaultShearStressAuxESaIvELN9__gnu_cxx12_Lock_policyE2EED2Ev
FN:608,_ZNSt23_Sp_counted_ptr_inplaceI13RegistryEntryI21BVFaultShearStressAuxESaIvELN9__gnu_cxx12_Lock_policyE2EED0Ev
FN:608,_ZNSt23_Sp_counted_ptr_inplaceI13RegistryEntryI29BVMechanicalInterfaceMaterialESaIvELN9__gnu_cxx12_Lock_policyE2EED2Ev
FN:608,_ZNSt23_Sp_counted_ptr_inplaceI13RegistryEntryI13BVPressureAuxESaIvELN9__gnu_cxx12_Lock_policyE2EED2Ev
FN:608,_ZNSt23_Sp_counted_ptr_inplaceI13RegistryEntryI24BVMultiPhaseFlowMaterialESaIvELN9__gnu_cxx12_Lock_policyE2EED2Ev
FN:608,_ZNSt23_Sp_counted_ptr_inplaceI13RegistryEntryI35BVFVSinglePhaseSoluteTimeDerivativeESaIvELN9__gnu_cxx12_Lock_policyE2EED0Ev
FN:608,_ZNSt23_Sp_counted_ptr_inplaceI13RegistryEntryI26BVKelvinViscoelasticUpdateESaIvELN9__gnu_cxx12_Lock_policyE2EED2Ev
FN:608,_ZNSt23_Sp_counted_ptr_inplaceI13RegistryEntryI20BVConstantDispersionESaIvELN9__gnu_cxx12_Lock_policyE2EED0Ev
FN:608,_ZNSt23_Sp_counted_ptr_inplaceI21BVShearTractionActionSaIvELN9__gnu_cxx12_Lock_policyE2EED2Ev
FN:608,_ZNSt23_Sp_counted_ptr_inplaceI13RegistryEntryI17BVFluidPropertiesESaIvELN9__gnu_cxx12_Lock_policyE2EED2Ev
FN:608,_ZNSt23_Sp_counted_ptr_inplaceI13RegistryEntryI16BVPressureActionESaIvELN9__gnu_cxx12_Lock_policyE2EED2Ev
FN:608,_ZNSt23_Sp_counted_ptr_inplaceINSt13__future_base13_State_baseV2ESaIvELN9__gnu_cxx12_Lock_policyE2EED2Ev
FN:608,_ZNSt23_Sp_counted_ptr_inplaceI13RegistryEntryI19BVBurgerModelUpdateESaIvELN9__gnu_cxx12_Lock_policyE2EED0Ev
FN:608,_ZNSt23_Sp_counted_ptr_inplaceI9BeaverAppSaIvELN9__gnu_cxx12_Lock_policyE2EED2Ev
FN:611,_ZNSt23_Sp_counted_ptr_inplaceI13RegistryEntryI21BVMechanicalInterfaceESaIvELN9__gnu_cxx12_Lock_policyE2EE10_M_disposeEv
FN:611,_ZNSt23_Sp_counted_ptr_inplaceI13RegistryEntryI19BVBurgerModelUpdateESaIvELN9__gnu_cxx12_Lock_policyE2EE10_M_disposeEv
FN:611,_ZNSt23_Sp_counted_ptr_inplaceI13RegistryEntryI16BVMisesStressAuxESaIvELN9__gnu_cxx12_Lock_policyE2EE10_M_disposeEv
FN:611,_ZNSt23_Sp_counted_ptr_inplaceI13RegistryEntryI27BVSinglePhaseTimeDerivativeESaIvELN9__gnu_cxx12_Lock_policyE2EE10_M_disposeEv
FN:611,_ZNSt23_Sp_counted_ptr_inplaceI13RegistryEntryI16BVPressureActionESaIvELN9__gnu_cxx12_Lock_policyE2EE10_M_disposeEv
FN:611,_ZNSt23_Sp_counted_ptr_inplaceI13RegistryEntryI27BVFVMultiPhasePressureDarcyESaIvELN9__gnu_cxx12_Lock_policyE2EE10_M_disposeEv
FN:611,_ZNSt23_Sp_counted_ptr_inplaceI13RegistryEntryI17BVShearTractionBCESaIvELN9__gnu_cxx12_Lock_policyE2EE10_M_disposeEv
FN:611,_ZNSt23_Sp_counted_ptr_inplaceI13RegistryEntryI13BVPressureAuxESaIvELN9__gnu_cxx12_Lock_policyE2EE10_M_disposeEv
FN:611,_ZNSt23_Sp_counted_ptr_inplaceI13RegistryEntryI21BVShearTractionActionESaIvELN9__gnu_cxx12_Lock_policyE2EE10_M_disposeEv
FN:611,_ZNSt23_Sp_counted_ptr_inplaceI13RegistryEntryI17BVFluidPropertiesESaIvELN9__gnu_cxx12_Lock_policyE2EE10_M_disposeEv
FN:611,_ZNSt23_Sp_counted_ptr_inplaceI13RegistryEntryI29BVMechanicalInterfaceMaterialESaIvELN9__gnu_cxx12_Lock_policyE2EE10_M_disposeEv
FN:611,_ZNSt23_Sp_counted_ptr_inplaceI13RegistryEntryI14BVEqvStrainAuxESaIvELN9__gnu_cxx12_Lock_policyE2EE10_M_disposeEv
FN:611,_ZNSt23_Sp_counted_ptr_inplaceI13RegistryEntryI18BVConstantPorosityESaIvELN9__gnu_cxx12_Lock_policyE2EE10_M_disposeEv
FN:611,_ZNSt23_Sp_counted_ptr_inplaceI13RegistryEntryI26BVFVSinglePhaseSoluteDarcyESaIvELN9__gnu_cxx12_Lock_policyE2EE10_M_disposeEv
FN:611,_ZNSt23_Sp_counted_ptr_inplaceI13RegistryEntryI25BVFaultInterfaceGeneratorESaIvELN9__gnu_cxx12_Lock_policyE2EE10_M_disposeEv
FN:611,_ZNSt23_Sp_counted_ptr_inplaceI13RegistryEntryI22BVFaultNormalStressAuxESaIvELN9__gnu_cxx12_Lock_policyE2EE10_M_disposeEv
FN:611,_ZNSt23_Sp_counted_ptr_inplaceI13RegistryEntryI29BVFVMultiPhaseSaturationDarcyESaIvELN9__gnu_cxx12_Lock_policyE2EE10_M_disposeEv
FN:611,_ZNSt23_Sp_counted_ptr_inplaceI13RegistryEntryI27BVCapillaryPressurePowerLawESaIvELN9__gnu_cxx12_Lock_policyE2EE10_M_disposeEv
FN:611,_ZNSt23_Sp_counted_ptr_inplaceISt5mutexSaIvELN9__gnu_cxx12_Lock_policyE2EE10_M_disposeEv
FN:611,_ZNSt23_Sp_counted_ptr_inplaceI13RegistryEntryI30BVRelativePermeabilityPowerLawESaIvELN9__gnu_cxx12_Lock_policyE2EE10_M_disposeEv
FN:611,_ZNSt23_Sp_counted_ptr_inplaceINSt13__future_base13_State_baseV2ESaIvELN9__gnu_cxx12_Lock_policyE2EE10_M_disposeEv
FN:611,_ZNSt23_Sp_counted_ptr_inplaceI13RegistryEntryI24BVConstantFrictionUpdateESaIvELN9__gnu_cxx12_Lock_policyE2EE10_M_disposeEv
FN:611,_ZNSt23_Sp_counted_ptr_inplaceI13RegistryEntryI18BVStressDivergenceESaIvELN9__gnu_cxx12_Lock_policyE2EE10_M_disposeEv
FN:611,_ZNSt23_Sp_counted_ptr_inplaceI16BVPressureActionSaIvELN9__gnu_cxx12_Lock_policyE2EE10_M_disposeEv
FN:611,_ZNSt23_Sp_counted_ptr_inplaceI13RegistryEntryI29BVFVSinglePhaseTimeDerivativeESaIvELN9__gnu_cxx12_Lock_policyE2EE10_M_disposeEv
FN:611,_ZNSt23_Sp_counted_ptr_inplaceI13RegistryEntryI36BVFVMultiPhasePressureTimeDerivativeESaIvELN9__gnu_cxx12_Lock_policyE2EE10_M_disposeEv
FN:611,_ZNSt23_Sp_counted_ptr_inplaceI13RegistryEntryI20BVStrainComponentAuxESaIvELN9__gnu_cxx12_Lock_policyE2EE10_M_disposeEv
FN:611,_ZNSt23_Sp_counted_ptr_inplaceI13RegistryEntryI20BVStressComponentAuxESaIvELN9__gnu_cxx12_Lock_policyE2EE10_M_disposeEv
FN:611,_ZNSt23_Sp_counted_ptr_inplaceI13RegistryEntryI35BVFVSinglePhaseSoluteTimeDerivativeESaIvELN9__gnu_cxx12_Lock_policyE2EE10_M_disposeEv
FN:611,_ZNSt23_Sp_counted_ptr_inplaceI21BVShearTractionActionSaIvELN9__gnu_cxx12_Lock_policyE2EE10_M_disposeEv
FN:611,_ZNSt23_Sp_counted_ptr_inplaceI13RegistryEntryI19BVLubby2ModelUpdateESaIvELN9__gnu_cxx12_Lock_policyE2EE10_M_disposeEv
FN:611,_ZNSt23_Sp_counted_ptr_inplaceI13RegistryEntryI18BVDarcyVelocityAuxESaIvELN9__gnu_cxx12_Lock_policyE2EE10_M_disposeEv
FN:611,_ZNSt23_Sp_counted_ptr_inplaceI13RegistryEntryI22BVConstantPermeabilityESaIvELN9__gnu_cxx12_Lock_policyE2EE10_M_disposeEv
FN:611,_ZNSt23_Sp_counted_ptr_inplaceI13RegistryEntryI23BVPoroMechanicsMaterialESaIvELN9__gnu_cxx12_Lock_policyE2EE10_M_disposeEv
FN:611,_ZNSt23_Sp_counted_ptr_inplaceI13RegistryEntryI18BVSinglePhaseDarcyESaIvELN9__gnu_cxx12_Lock_policyE2EE10_M_disposeEv
FN:611,_ZNSt23_Sp_counted_ptr_inplaceI13RegistryEntryI20BVFVSinglePhaseDarcyESaIvELN9__gnu_cxx12_Lock_policyE2EE10_M_disposeEv
FN:611,_ZNSt23_Sp_counted_ptr_inplaceI13RegistryEntryI20BVConstantDispersionESaIvELN9__gnu_cxx12_Lock_policyE2EE10_M_disposeEv
FN:611,_ZNSt23_Sp_counted_ptr_inplaceI13RegistryEntryI20BVRTL2020ModelUpdateESaIvELN9__gnu_cxx12_Lock_policyE2EE10_M_disposeEv
FN:611,_ZNSt23_Sp_counted_ptr_inplaceI13RegistryEntryI20BVMechanicalMaterialESaIvELN9__gnu_cxx12_Lock_policyE2EE10_M_disposeEv
FN:611,_ZNSt23_Sp_counted_ptr_inplaceI13RegistryEntryI27BVMaxwellViscoelasticUpdateESaIvELN9__gnu_cxx12_Lock_policyE2EE10_M_disposeEv
FN:611,_ZNSt23_Sp_counted_ptr_inplaceI13RegistryEntryI38BVFVMultiPhaseSaturationTimeDerivativeESaIvELN9__gnu_cxx12_Lock_policyE2EE10_M_disposeEv
FN:611,_ZNSt23_Sp_counted_ptr_inplaceI13RegistryEntryI12BVPressureBCESaIvELN9__gnu_cxx12_Lock_policyE2EE10_M_disposeEv
FN:611,_ZNSt23_Sp_counted_ptr_inplaceI13RegistryEntryI24BVMultiPhaseFlowMaterialESaIvELN9__gnu_cxx12_Lock_policyE2EE10_M_disposeEv
FN:611,_ZNSt23_Sp_counted_ptr_inplaceI13RegistryEntryI25BVSinglePhaseFlowMaterialESaIvELN9__gnu_cxx12_Lock_policyE2EE10_M_disposeEv
FN:611,_ZNSt23_Sp_counted_ptr_inplaceI13RegistryEntryI18BVEqvStrainRateAuxESaIvELN9__gnu_cxx12_Lock_policyE2EE10_M_disposeEv
FN:611,_ZNSt23_Sp_counted_ptr_inplaceI13RegistryEntryI21BVFaultShearStressAuxESaIvELN9__gnu_cxx12_Lock_policyE2EE10_M_disposeEv
FN:611,_ZNSt23_Sp_counted_ptr_inplaceI9BeaverAppSaIvELN9__gnu_cxx12_Lock_policyE2EE10_M_disposeEv
FN:611,_ZNSt23_Sp_counted_ptr_inplaceI13RegistryEntryI26BVKelvinViscoelasticUpdateESaIvELN9__gnu_cxx12_Lock_policyE2EE10_M_disposeEv
FN:611,_ZNSt23_Sp_counted_ptr_inplaceI13RegistryEntryI31BVSinglePhaseFlowSoluteMaterialESaIvELN9__gnu_cxx12_Lock_policyE2EE10_M_disposeEv
FN:618,_ZNSt23_Sp_counted_ptr_inplaceI13RegistryEntryI29BVFVMultiPhaseSaturationDarcyESaIvELN9__gnu_cxx12_Lock_policyE2EE10_M_destroyEv
FN:618,_ZNSt23_Sp_counted_ptr_inplaceI13RegistryEntryI35BVFVSinglePhaseSoluteTimeDerivativeESaIvELN9__gnu_cxx12_Lock_policyE2EE10_M_destroyEv
FN:618,_ZNSt23_Sp_counted_ptr_inplaceI13RegistryEntryI16BVPressureActionESaIvELN9__gnu_cxx12_Lock_policyE2EE10_M_destroyEv
FN:618,_ZNSt23_Sp_counted_ptr_inplaceI13RegistryEntryI27BVSinglePhaseTimeDerivativeESaIvELN9__gnu_cxx12_Lock_policyE2EE10_M_destroyEv
FN:618,_ZNSt23_Sp_counted_ptr_inplaceI13RegistryEntryI20BVStressComponentAuxESaIvELN9__gnu_cxx12_Lock_policyE2EE10_M_destroyEv
FN:618,_ZNSt23_Sp_counted_ptr_inplaceI13RegistryEntryI20BVConstantDispersionESaIvELN9__gnu_cxx12_Lock_policyE2EE10_M_destroyEv
FN:618,_ZNSt23_Sp_counted_ptr_inplaceI13RegistryEntryI22BVFaultNormalStressAuxESaIvELN9__gnu_cxx12_Lock_policyE2EE10_M_destroyEv
FN:618,_ZNSt23_Sp_counted_ptr_inplaceI13RegistryEntryI14BVEqvStrainAuxESaIvELN9__gnu_cxx12_Lock_policyE2EE10_M_destroyEv
FN:618,_ZNSt23_Sp_counted_ptr_inplaceI13RegistryEntryI20BVStrainComponentAuxESaIvELN9__gnu_cxx12_Lock_policyE2EE10_M_destroyEv
FN:618,_ZNSt23_Sp_counted_ptr_inplaceISt5mutexSaIvELN9__gnu_cxx12_Lock_policyE2EE10_M_destroyEv
FN:618,_ZNSt23_Sp_counted_ptr_inplaceI9BeaverAppSaIvELN9__gnu_cxx12_Lock_policyE2EE10_M_destroyEv
FN:618,_ZNSt23_Sp_counted_ptr_inplaceI13RegistryEntryI25BVFaultInterfaceGeneratorESaIvELN9__gnu_cxx12_Lock_policyE2EE10_M_destroyEv
FN:618,_ZNSt23_Sp_counted_ptr_inplaceI21BVShearTractionActionSaIvELN9__gnu_cxx12_Lock_policyE2EE10_M_destroyEv
FN:618,_ZNSt23_Sp_counted_ptr_inplaceI13RegistryEntryI26BVFVSinglePhaseSoluteDarcyESaIvELN9__gnu_cxx12_Lock_policyE2EE10_M_destroyEv
FN:618,_ZNSt23_Sp_counted_ptr_inplaceI13RegistryEntryI12BVPressureBCESaIvELN9__gnu_cxx12_Lock_policyE2EE10_M_destroyEv
FN:618,_ZNSt23_Sp_counted_ptr_inplaceINSt13__future_base13_State_baseV2ESaIvELN9__gnu_cxx12_Lock_policyE2EE10_M_destroyEv
FN:618,_ZNSt23_Sp_counted_ptr_inplaceI13RegistryEntryI20BVRTL2020ModelUpdateESaIvELN9__gnu_cxx12_Lock_policyE2EE10_M_destroyEv
FN:618,_ZNSt23_Sp_counted_ptr_inplaceI13RegistryEntryI27BVCapillaryPressurePowerLawESaIvELN9__gnu_cxx12_Lock_policyE2EE10_M_destroyEv
FN:618,_ZNSt23_Sp_counted_ptr_inplaceI13RegistryEntryI16BVMisesStressAuxESaIvELN9__gnu_cxx12_Lock_policyE2EE10_M_destroyEv
FN:618,_ZNSt23_Sp_counted_ptr_inplaceI13RegistryEntryI21BVFaultShearStressAuxESaIvELN9__gnu_cxx12_Lock_policyE2EE10_M_destroyEv
FN:618,_ZNSt23_Sp_counted_ptr_inplaceI13RegistryEntryI19BVBurgerModelUpdateESaIvELN9__gnu_cxx12_Lock_policyE2EE10_M_destroyEv
FN:618,_ZNSt23_Sp_counted_ptr_inplaceI13RegistryEntryI26BVKelvinViscoelasticUpdateESaIvELN9__gnu_cxx12_Lock_policyE2EE10_M_destroyEv
FN:618,_ZNSt23_Sp_counted_ptr_inplaceI13RegistryEntryI18BVConstantPorosityESaIvELN9__gnu_cxx12_Lock_policyE2EE10_M_destroyEv
FN:618,_ZNSt23_Sp_counted_ptr_inplaceI13RegistryEntryI21BVMechanicalInterfaceESaIvELN9__gnu_cxx12_Lock_policyE2EE10_M_destroyEv
FN:618,_ZNSt23_Sp_counted_ptr_inplaceI13RegistryEntryI20BVMechanicalMaterialESaIvELN9__gnu_cxx12_Lock_policyE2EE10_M_destroyEv
FN:618,_ZNSt23_Sp_counted_ptr_inplaceI13RegistryEntryI18BVStressDivergenceESaIvELN9__gnu_cxx12_Lock_policyE2EE10_M_destroyEv
FN:618,_ZNSt23_Sp_counted_ptr_inplaceI13RegistryEntryI18BVDarcyVelocityAuxESaIvELN9__gnu_cxx12_Lock_policyE2EE10_M_destroyEv
FN:618,_ZNSt23_Sp_counted_ptr_inplaceI13RegistryEntryI22BVConstantPermeabilityESaIvELN9__gnu_cxx12_Lock_policyE2EE10_M_destroyEv
FN:618,_ZNSt23_Sp_counted_ptr_inplaceI13RegistryEntryI21BVShearTractionActionESaIvELN9__gnu_cxx12_Lock_policyE2EE10_M_destroyEv
FN:618,_ZNSt23_Sp_counted_ptr_inplaceI13RegistryEntryI19BVLubby2ModelUpdateESaIvELN9__gnu_cxx12_Lock_policyE2EE10_M_destroyEv
FN:618,_ZNSt23_Sp_counted_ptr_inplaceI13RegistryEntryI20BVFVSinglePhaseDarcyESaIvELN9__gnu_cxx12_Lock_policyE2EE10_M_destroyEv
FN:618,_ZNSt23_Sp_counted_ptr_inplaceI13RegistryEntryI13BVPressureAuxESaIvELN9__gnu_cxx12_Lock_policyE2EE10_M_destroyEv
FN:618,_ZNSt23_Sp_counted_ptr_inplaceI13RegistryEntryI24BVMultiPhaseFlowMaterialESaIvELN9__gnu_cxx12_Lock_policyE2EE10_M_destroyEv
FN:618,_ZNSt23_Sp_counted_ptr_inplaceI13RegistryEntryI25BVSinglePhaseFlowMaterialESaIvELN9__gnu_cxx12_Lock_policyE2EE10_M_destroyEv
FN:618,_ZNSt23_Sp_counted_ptr_inplaceI13RegistryEntryI17BVShearTractionBCESaIvELN9__gnu_cxx12_Lock_policyE2EE10_M_destroyEv
FN:618,_ZNSt23_Sp_counted_ptr_inplaceI13RegistryEntryI31BVSinglePhaseFlowSoluteMaterialESaIvELN9__gnu_cxx12_Lock_policyE2EE10_M_destroyEv
FN:618,_ZNSt23_Sp_counted_ptr_inplaceI13RegistryEntryI17BVFluidPropertiesESaIvELN9__gnu_cxx12_Lock_policyE2EE10_M_destroyEv
FN:618,_ZNSt23_Sp_counted_ptr_inplaceI13RegistryEntryI36BVFVMultiPhasePressureTimeDerivativeESaIvELN9__gnu_cxx12_Lock_policyE2EE10_M_destroyEv
FN:618,_ZNSt23_Sp_counted_ptr_inplaceI13RegistryEntryI24BVConstantFrictionUpdateESaIvELN9__gnu_cxx12_Lock_policyE2EE10_M_destroyEv
FN:618,_ZNSt23_Sp_counted_ptr_inplaceI13RegistryEntryI29BVFVSinglePhaseTimeDerivativeESaIvELN9__gnu_cxx12_Lock_policyE2EE10_M_destroyEv
FN:618,_ZNSt23_Sp_counted_ptr_inplaceI13RegistryEntryI18BVEqvStrainRateAuxESaIvELN9__gnu_cxx12_Lock_policyE2EE10_M_destroyEv
FN:618,_ZNSt23_Sp_counted_ptr_inplaceI13RegistryEntryI29BVMechanicalInterfaceMaterialESaIvELN9__gnu_cxx12_Lock_policyE2EE10_M_destroyEv
FN:618,_ZNSt23_Sp_counted_ptr_inplaceI13RegistryEntryI18BVSinglePhaseDarcyESaIvELN9__gnu_cxx12_Lock_policyE2EE10_M_destroyEv
FN:618,_ZNSt23_Sp_counted_ptr_inplaceI13RegistryEntryI23BVPoroMechanicsMaterialESaIvELN9__gnu_cxx12_Lock_policyE2EE10_M_destroyEv
FN:618,_ZNSt23_Sp_counted_ptr_inplaceI16BVPressureActionSaIvELN9__gnu_cxx12_Lock_policyE2EE10_M_destroyEv
FN:618,_ZNSt23_Sp_counted_ptr_inplaceI13RegistryEntryI38BVFVMultiPhaseSaturationTimeDerivativeESaIvELN9__gnu_cxx12_Lock_policyE2EE10_M_destroyEv
FN:618,_ZNSt23_Sp_counted_ptr_inplaceI13RegistryEntryI27BVFVMultiPhasePressureDarcyESaIvELN9__gnu_cxx12_Lock_policyE2EE10_M_destroyEv
FN:618,_ZNSt23_Sp_counted_ptr_inplaceI13RegistryEntryI27BVMaxwellViscoelasticUpdateESaIvELN9__gnu_cxx12_Lock_policyE2EE10_M_destroyEv
FN:618,_ZNSt23_Sp_counted_ptr_inplaceI13RegistryEntryI30BVRelativePermeabilityPowerLawESaIvELN9__gnu_cxx12_Lock_policyE2EE10_M_destroyEv
FN:631,_ZNSt23_Sp_counted_ptr_inplaceI13RegistryEntryI18BVSinglePhaseDarcyESaIvELN9__gnu_cxx12_Lock_policyE2EE14_M_get_deleterERKSt9type_info
FN:631,_ZNSt23_Sp_counted_ptr_inplaceI13RegistryEntryI23BVPoroMechanicsMaterialESaIvELN9__gnu_cxx12_Lock_policyE2EE14_M_get_deleterERKSt9type_info
FN:631,_ZNSt23_Sp_counted_ptr_inplaceI9BeaverAppSaIvELN9__gnu_cxx12_Lock_policyE2EE14_M_get_deleterERKSt9type_info
FN:631,_ZNSt23_Sp_counted_ptr_inplaceI13RegistryEntryI22BVFaultNormalStressAuxESaIvELN9__gnu_cxx12_Lock_policyE2EE14_M_get_deleterERKSt9type_info
FN:631,_ZNSt23_Sp_counted_ptr_inplaceI13RegistryEntryI18BVConstantPorosityESaIvELN9__gnu_cxx12_Lock_policyE2EE14_M_get_deleterERKSt9type_info
FN:631,_ZNSt23_Sp_counted_ptr_inplaceI13RegistryEntryI29BVFVMultiPhaseSaturationDarcyESaIvELN9__gnu_cxx12_Lock_policyE2EE14_M_get_deleterERKSt9type_info
FN:631,_ZNSt23_Sp_counted_ptr_inplaceI13RegistryEntryI36BVFVMultiPhasePressureTimeDerivativeESaIvELN9__gnu_cxx12_Lock_policyE2EE14_M_get_deleterERKSt9type_info
FN:631,_ZNSt23_Sp_counted_ptr_inplaceI13RegistryEntryI19BVLubby2ModelUpdateESaIvELN9__gnu_cxx12_Lock_policyE2EE14_M_get_deleterERKSt9type_info
FN:631,_ZNSt23_Sp_counted_ptr_inplaceI13RegistryEntryI20BVStressComponentAuxESaIvELN9__gnu_cxx12_Lock_policyE2EE14_M_get_deleterERKSt9type_info
FN:631,_ZNSt23_Sp_counted_ptr_inplaceI13RegistryEntryI29BVMechanicalInterfaceMaterialESaIvELN9__gnu_cxx12_Lock_policyE2EE14_M_get_deleterERKSt9type_info
FN:631,_ZNSt23_Sp_counted_ptr_inplaceI13RegistryEntryI22BVConstantPermeabilityESaIvELN9__gnu_cxx12_Lock_policyE2EE14_M_get_deleterERKSt9type_info
FN:631,_ZNSt23_Sp_counted_ptr_inplaceI13RegistryEntryI17BVShearTractionBCESaIvELN9__gnu_cxx12_Lock_policyE2EE14_M_get_deleterERKSt9type_info
FN:631,_ZNSt23_Sp_counted_ptr_inplaceI13RegistryEntryI27BVMaxwellViscoelasticUpdateESaIvELN9__gnu_cxx12_Lock_policyE2EE14_M_get_deleterERKSt9type_info
FN:631,_ZNSt23_Sp_counted_ptr_inplaceI13RegistryEntryI27BVFVMultiPhasePressureDarcyESaIvELN9__gnu_cxx12_Lock_policyE2EE14_M_get_deleterERKSt9type_info
FN:631,_ZNSt23_Sp_counted_ptr_inplaceI13RegistryEntryI20BVFVSinglePhaseDarcyESaIvELN9__gnu_cxx12_Lock_policyE2EE14_M_get_deleterERKSt9type_info
FN:631,_ZNSt23_Sp_counted_ptr_inplaceI13RegistryEntryI17BVFluidPropertiesESaIvELN9__gnu_cxx12_Lock_policyE2EE14_M_get_deleterERKSt9type_info
FN:631,_ZNSt23_Sp_counted_ptr_inplaceI13RegistryEntryI18BVDarcyVelocityAuxESaIvELN9__gnu_cxx12_Lock_policyE2EE14_M_get_deleterERKSt9type_info
FN:631,_ZNSt23_Sp_counted_ptr_inplaceI21BVShearTractionActionSaIvELN9__gnu_cxx12_Lock_policyE2EE14_M_get_deleterERKSt9type_info
FN:631,_ZNSt23_Sp_counted_ptr_inplaceI13RegistryEntryI29BVFVSinglePhaseTimeDerivativeESaIvELN9__gnu_cxx12_Lock_policyE2EE14_M_get_deleterERKSt9type_info
FN:631,_ZNSt23_Sp_counted_ptr_inplaceI13RegistryEntryI21BVMechanicalInterfaceESaIvELN9__gnu_cxx12_Lock_policyE2EE14_M_get_deleterERKSt9type_info
FN:631,_ZNSt23_Sp_counted_ptr_inplaceI13RegistryEntryI19BVBurgerModelUpdateESaIvELN9__gnu_cxx12_Lock_policyE2EE14_M_get_deleterERKSt9type_info
FN:631,_ZNSt23_Sp_counted_ptr_inplaceI13RegistryEntryI20BVRTL2020ModelUpdateESaIvELN9__gnu_cxx12_Lock_policyE2EE14_M_get_deleterERKSt9type_info
FN:631,_ZNSt23_Sp_counted_ptr_inplaceI13RegistryEntryI35BVFVSinglePhaseSoluteTimeDerivativeESaIvELN9__gnu_cxx12_Lock_policyE2EE14_M_get_deleterERKSt9type_info
FN:631,_ZNSt23_Sp_counted_ptr_inplaceI13RegistryEntryI12BVPressureBCESaIvELN9__gnu_cxx12_Lock_policyE2EE14_M_get_deleterERKSt9type_info
FN:631,_ZNSt23_Sp_counted_ptr_inplaceI13RegistryEntryI16BVPressureActionESaIvELN9__gnu_cxx12_Lock_policyE2EE14_M_get_deleterERKSt9type_info
FN:631,_ZNSt23_Sp_counted_ptr_inplaceI13RegistryEntryI25BVSinglePhaseFlowMaterialESaIvELN9__gnu_cxx12_Lock_policyE2EE14_M_get_deleterERKSt9type_info
FN:631,_ZNSt23_Sp_counted_ptr_inplaceI13RegistryEntryI27BVSinglePhaseTimeDerivativeESaIvELN9__gnu_cxx12_Lock_policyE2EE14_M_get_deleterERKSt9type_info
FN:631,_ZNSt23_Sp_counted_ptr_inplaceI13RegistryEntryI21BVFaultShearStressAuxESaIvELN9__gnu_cxx12_Lock_policyE2EE14_M_get_deleterERKSt9type_info
FN:631,_ZNSt23_Sp_counted_ptr_inplaceI13RegistryEntryI18BVEqvStrainRateAuxESaIvELN9__gnu_cxx12_Lock_policyE2EE14_M_get_deleterERKSt9type_info
FN:631,_ZNSt23_Sp_counted_ptr_inplaceI13RegistryEntryI16BVMisesStressAuxESaIvELN9__gnu_cxx12_Lock_policyE2EE14_M_get_deleterERKSt9type_info
FN:631,_ZNSt23_Sp_counted_ptr_inplaceI13RegistryEntryI24BVMultiPhaseFlowMaterialESaIvELN9__gnu_cxx12_Lock_policyE2EE14_M_get_deleterERKSt9type_info
FN:631,_ZNSt23_Sp_counted_ptr_inplaceI13RegistryEntryI18BVStressDivergenceESaIvELN9__gnu_cxx12_Lock_policyE2EE14_M_get_deleterERKSt9type_info
FN:631,_ZNSt23_Sp_counted_ptr_inplaceI13RegistryEntryI20BVConstantDispersionESaIvELN9__gnu_cxx12_Lock_policyE2EE14_M_get_deleterERKSt9type_info
FN:631,_ZNSt23_Sp_counted_ptr_inplaceI13RegistryEntryI14BVEqvStrainAuxESaIvELN9__gnu_cxx12_Lock_policyE2EE14_M_get_deleterERKSt9type_info
FN:631,_ZNSt23_Sp_counted_ptr_inplaceI13RegistryEntryI27BVCapillaryPressurePowerLawESaIvELN9__gnu_cxx12_Lock_policyE2EE14_M_get_deleterERKSt9type_info
FN:631,_ZNSt23_Sp_counted_ptr_inplaceI13RegistryEntryI31BVSinglePhaseFlowSoluteMaterialESaIvELN9__gnu_cxx12_Lock_policyE2EE14_M_get_deleterERKSt9type_info
FN:631,_ZNSt23_Sp_counted_ptr_inplaceI13RegistryEntryI26BVKelvinViscoelasticUpdateESaIvELN9__gnu_cxx12_Lock_policyE2EE14_M_get_deleterERKSt9type_info
FN:631,_ZNSt23_Sp_counted_ptr_inplaceI13RegistryEntryI13BVPressureAuxESaIvELN9__gnu_cxx12_Lock_policyE2EE14_M_get_deleterERKSt9type_info
FN:631,_ZNSt23_Sp_counted_ptr_inplaceI13RegistryEntryI24BVConstantFrictionUpdateESaIvELN9__gnu_cxx12_Lock_policyE2EE14_M_get_deleterERKSt9type_info
FN:631,_ZNSt23_Sp_counted_ptr_inplaceI13RegistryEntryI30BVRelativePermeabilityPowerLawESaIvELN9__gnu_cxx12_Lock_policyE2EE14_M_get_deleterERKSt9type_info
FN:631,_ZNSt23_Sp_counted_ptr_inplaceI13RegistryEntryI25BVFaultInterfaceGeneratorESaIvELN9__gnu_cxx12_Lock_policyE2EE14_M_get_deleterERKSt9type_info
FN:631,_ZNSt23_Sp_counted_ptr_inplaceI13RegistryEntryI21BVShearTractionActionESaIvELN9__gnu_cxx12_Lock_policyE2EE14_M_get_deleterERKSt9type_info
FN:631,_ZNSt23_Sp_counted_ptr_inplaceI16BVPressureActionSaIvELN9__gnu_cxx12_Lock_policyE2EE14_M_get_deleterERKSt9type_info
FN:631,_ZNSt23_Sp_counted_ptr_inplaceI13RegistryEntryI26BVFVSinglePhaseSoluteDarcyESaIvELN9__gnu_cxx12_Lock_policyE2EE14_M_get_deleterERKSt9type_info
FN:631,_ZNSt23_Sp_counted_ptr_inplaceI13RegistryEntryI20BVStrainComponentAuxESaIvELN9__gnu_cxx12_Lock_policyE2EE14_M_get_deleterERKSt9type_info
FN:631,_ZNSt23_Sp_counted_ptr_inplaceI13RegistryEntryI20BVMechanicalMaterialESaIvELN9__gnu_cxx12_Lock_policyE2EE14_M_get_deleterERKSt9type_info
FN:631,_ZNSt23_Sp_counted_ptr_inplaceI13RegistryEntryI38BVFVMultiPhaseSaturationTimeDerivativeESaIvELN9__gnu_cxx12_Lock_policyE2EE14_M_get_deleterERKSt9type_info
FN:964,_ZNSt14__shared_countILN9__gnu_cxx12_Lock_policyE2EEC2I13RegistryEntryI26BVFVSinglePhaseSoluteDarcyESaIvEJRK17RegistryEntryDataEEERPT_St20_Sp_alloc_shared_tagIT0_EDpOT1_
FN:964,_ZNSt14__shared_countILN9__gnu_cxx12_Lock_policyE2EEC2I13RegistryEntryI25BVSinglePhaseFlowMaterialESaIvEJRK17RegistryEntryDataEEERPT_St20_Sp_alloc_shared_tagIT0_EDpOT1_
FN:964,_ZNSt14__shared_countILN9__gnu_cxx12_Lock_policyE2EEC2I13RegistryEntryI29BVFVSinglePhaseTimeDerivativeESaIvEJRK17RegistryEntryDataEEERPT_St20_Sp_alloc_shared_tagIT0_EDpOT1_
FN:964,_ZNSt14__shared_countILN9__gnu_cxx12_Lock_policyE2EEC2I13RegistryEntryI25BVFaultInterfaceGeneratorESaIvEJRK17RegistryEntryDataEEERPT_St20_Sp_alloc_shared_tagIT0_EDpOT1_
FN:964,_ZNSt14__shared_countILN9__gnu_cxx12_Lock_policyE2EEC2I13RegistryEntryI27BVSinglePhaseTimeDerivativeESaIvEJRK17RegistryEntryDataEEERPT_St20_Sp_alloc_shared_tagIT0_EDpOT1_
FN:964,_ZNSt14__shared_countILN9__gnu_cxx12_Lock_policyE2EEC2I13RegistryEntryI38BVFVMultiPhaseSaturationTimeDerivativeESaIvEJRK17RegistryEntryDataEEERPT_St20_Sp_alloc_shared_tagIT0_EDpOT1_
FN:964,_ZNSt14__shared_countILN9__gnu_cxx12_Lock_policyE2EEC2I13RegistryEntryI27BVCapillaryPressurePowerLawESaIvEJRK17RegistryEntryDataEEERPT_St20_Sp_alloc_shared_tagIT0_EDpOT1_
FN:964,_ZNSt14__shared_countILN9__gnu_cxx12_Lock_policyE2EEC2I16BVPressureActionSaIvEJRK15InputParametersEEERPT_St20_Sp_alloc_shared_tagIT0_EDpOT1_
FN:964,_ZNSt14__shared_countILN9__gnu_cxx12_Lock_policyE2EEC2I13RegistryEntryI22BVConstantPermeabilityESaIvEJRK17RegistryEntryDataEEERPT_St20_Sp_alloc_shared_tagIT0_EDpOT1_
FN:964,_ZNSt14__shared_countILN9__gnu_cxx12_Lock_policyE2EEC2I13RegistryEntryI18BVSinglePhaseDarcyESaIvEJRK17RegistryEntryDataEEERPT_St20_Sp_alloc_shared_tagIT0_EDpOT1_
FN:964,_ZNSt14__shared_countILN9__gnu_cxx12_Lock_policyE2EEC2I13RegistryEntryI21BVFaultShearStressAuxESaIvEJRK17RegistryEntryDataEEERPT_St20_Sp_alloc_shared_tagIT0_EDpOT1_
FN:964,_ZNSt14__shared_countILN9__gnu_cxx12_Lock_policyE2EEC2I13RegistryEntryI29BVFVMultiPhaseSaturationDarcyESaIvEJRK17RegistryEntryDataEEERPT_St20_Sp_alloc_shared_tagIT0_EDpOT1_
FN:964,_ZNSt14__shared_countILN9__gnu_cxx12_Lock_policyE2EEC2I13RegistryEntryI20BVStrainComponentAuxESaIvEJRK17RegistryEntryDataEEERPT_St20_Sp_alloc_shared_tagIT0_EDpOT1_
FN:964,_ZNSt14__shared_countILN9__gnu_cxx12_Lock_policyE2EEC2I13RegistryEntryI27BVMaxwellViscoelasticUpdateESaIvEJRK17RegistryEntryDataEEERPT_St20_Sp_alloc_shared_tagIT0_EDpOT1_
FN:964,_ZNSt14__shared_countILN9__gnu_cxx12_Lock_policyE2EEC2I13RegistryEntryI20BVMechanicalMaterialESaIvEJRK17RegistryEntryDataEEERPT_St20_Sp_alloc_shared_tagIT0_EDpOT1_
FN:964,_ZNSt14__shared_countILN9__gnu_cxx12_Lock_policyE2EEC2I13RegistryEntryI35BVFVSinglePhaseSoluteTimeDerivativeESaIvEJRK17RegistryEntryDataEEERPT_St20_Sp_alloc_shared_tagIT0_EDpOT1_
FN:964,_ZNSt14__shared_countILN9__gnu_cxx12_Lock_policyE2EEC2I13RegistryEntryI16BVMisesStressAuxESaIvEJRK17RegistryEntryDataEEERPT_St20_Sp_alloc_shared_tagIT0_EDpOT1_
FN:964,_ZNSt14__shared_countILN9__gnu_cxx12_Lock_policyE2EEC2I13RegistryEntryI23BVPoroMechanicsMaterialESaIvEJRK17RegistryEntryDataEEERPT_St20_Sp_alloc_shared_tagIT0_EDpOT1_
FN:964,_ZNSt14__shared_countILN9__gnu_cxx12_Lock_policyE2EEC2I13RegistryEntryI36BVFVMultiPhasePressureTimeDerivativeESaIvEJRK17RegistryEntryDataEEERPT_St20_Sp_alloc_shared_tagIT0_EDpOT1_
FN:964,_ZNSt14__shared_countILN9__gnu_cxx12_Lock_policyE2EEC2I13RegistryEntryI14BVEqvStrainAuxESaIvEJRK17RegistryEntryDataEEERPT_St20_Sp_alloc_shared_tagIT0_EDpOT1_
FN:964,_ZNSt14__shared_countILN9__gnu_cxx12_Lock_policyE2EEC2I13RegistryEntryI26BVKelvinViscoelasticUpdateESaIvEJRK17RegistryEntryDataEEERPT_St20_Sp_alloc_shared_tagIT0_EDpOT1_
FN:964,_ZNSt14__shared_countILN9__gnu_cxx12_Lock_policyE2EEC2I13RegistryEntryI18BVConstantPorosityESaIvEJRK17RegistryEntryDataEEERPT_St20_Sp_alloc_shared_tagIT0_EDpOT1_
FN:964,_ZNSt14__shared_countILN9__gnu_cxx12_Lock_policyE2EEC2I13RegistryEntryI31BVSinglePhaseFlowSoluteMaterialESaIvEJRK17RegistryEntryDataEEERPT_St20_Sp_alloc_shared_tagIT0_EDpOT1_
FN:964,_ZNSt14__shared_countILN9__gnu_cxx12_Lock_policyE2EEC2I13RegistryEntryI18BVStressDivergenceESaIvEJRK17RegistryEntryDataEEERPT_St20_Sp_alloc_shared_tagIT0_EDpOT1_
FN:964,_ZNSt14__shared_countILN9__gnu_cxx12_Lock_policyE2EEC2I13RegistryEntryI29BVMechanicalInterfaceMaterialESaIvEJRK17RegistryEntryDataEEERPT_St20_Sp_alloc_shared_tagIT0_EDpOT1_
FN:964,_ZNSt14__shared_countILN9__gnu_cxx12_Lock_policyE2EEC2I13RegistryEntryI18BVEqvStrainRateAuxESaIvEJRK17RegistryEntryDataEEERPT_St20_Sp_alloc_shared_tagIT0_EDpOT1_
FN:964,_ZNSt14__shared_countILN9__gnu_cxx12_Lock_policyE2EEC2I13RegistryEntryI19BVBurgerModelUpdateESaIvEJRK17RegistryEntryDataEEERPT_St20_Sp_alloc_shared_tagIT0_EDpOT1_
FN:964,_ZNSt14__shared_countILN9__gnu_cxx12_Lock_policyE2EEC2I13RegistryEntryI19BVLubby2ModelUpdateESaIvEJRK17RegistryEntryDataEEERPT_St20_Sp_alloc_shared_tagIT0_EDpOT1_
FN:964,_ZNSt14__shared_countILN9__gnu_cxx12_Lock_policyE2EEC2I13RegistryEntryI20BVRTL2020ModelUpdateESaIvEJRK17RegistryEntryDataEEERPT_St20_Sp_alloc_shared_tagIT0_EDpOT1_
FN:964,_ZNSt14__shared_countILN9__gnu_cxx12_Lock_policyE2EEC2I13RegistryEntryI17BVFluidPropertiesESaIvEJRK17RegistryEntryDataEEERPT_St20_Sp_alloc_shared_tagIT0_EDpOT1_
FN:964,_ZNSt14__shared_countILN9__gnu_cxx12_Lock_policyE2EEC2I13RegistryEntryI16BVPressureActionESaIvEJRK17RegistryEntryDataEEERPT_St20_Sp_alloc_shared_tagIT0_EDpOT1_
FN:964,_ZNSt14__shared_countILN9__gnu_cxx12_Lock_policyE2EEC2I13RegistryEntryI21BVShearTractionActionESaIvEJRK17RegistryEntryDataEEERPT_St20_Sp_alloc_shared_tagIT0_EDpOT1_
FN:964,_ZNSt14__shared_countILN9__gnu_cxx12_Lock_policyE2EEC2I13RegistryEntryI18BVDarcyVelocityAuxESaIvEJRK17RegistryEntryDataEEERPT_St20_Sp_alloc_shared_tagIT0_EDpOT1_
FN:964,_ZNSt14__shared_countILN9__gnu_cxx12_Lock_policyE2EEC2I13RegistryEntryI13BVPressureAuxESaIvEJRK17RegistryEntryDataEEERPT_St20_Sp_alloc_shared_tagIT0_EDpOT1_
FN:964,_ZNSt14__shared_countILN9__gnu_cxx12_Lock_policyE2EEC2I21BVShearTractionActionSaIvEJRK15InputParametersEEERPT_St20_Sp_alloc_shared_tagIT0_EDpOT1_
FN:964,_ZNSt14__shared_countILN9__gnu_cxx12_Lock_policyE2EEC2I13RegistryEntryI17BVShearTractionBCESaIvEJRK17RegistryEntryDataEEERPT_St20_Sp_alloc_shared_tagIT0_EDpOT1_
FN:964,_ZNSt14__shared_countILN9__gnu_cxx12_Lock_policyE2EEC2I13RegistryEntryI24BVConstantFrictionUpdateESaIvEJRK17RegistryEntryDataEEERPT_St20_Sp_alloc_shared_tagIT0_EDpOT1_
FN:964,_ZNSt14__shared_countILN9__gnu_cxx12_Lock_policyE2EEC2I13RegistryEntryI22BVFaultNormalStressAuxESaIvEJRK17RegistryEntryDataEEERPT_St20_Sp_alloc_shared_tagIT0_EDpOT1_
FN:964,_ZNSt14__shared_countILN9__gnu_cxx12_Lock_policyE2EEC2I13RegistryEntryI21BVMechanicalInterfaceESaIvEJRK17RegistryEntryDataEEERPT_St20_Sp_alloc_shared_tagIT0_EDpOT1_
FN:964,_ZNSt14__shared_countILN9__gnu_cxx12_Lock_policyE2EEC2I13RegistryEntryI27BVFVMultiPhasePressureDarcyESaIvEJRK17RegistryEntryDataEEERPT_St20_Sp_alloc_shared_tagIT0_EDpOT1_
FN:964,_ZNSt14__shared_countILN9__gnu_cxx12_Lock_policyE2EEC2I13RegistryEntryI20BVFVSinglePhaseDarcyESaIvEJRK17RegistryEntryDataEEERPT_St20_Sp_alloc_shared_tagIT0_EDpOT1_
FN:964,_ZNSt14__shared_countILN9__gnu_cxx12_Lock_policyE2EEC2I13RegistryEntryI20BVConstantDispersionESaIvEJRK17RegistryEntryDataEEERPT_St20_Sp_alloc_shared_tagIT0_EDpOT1_
FN:964,_ZNSt14__shared_countILN9__gnu_cxx12_Lock_policyE2EEC2I13RegistryEntryI12BVPressureBCESaIvEJRK17RegistryEntryDataEEERPT_St20_Sp_alloc_shared_tagIT0_EDpOT1_
FN:964,_ZNSt14__shared_countILN9__gnu_cxx12_Lock_policyE2EEC2I13RegistryEntryI30BVRelativePermeabilityPowerLawESaIvEJRK17RegistryEntryDataEEERPT_St20_Sp_alloc_shared_tagIT0_EDpOT1_
FN:964,_ZNSt14__shared_countILN9__gnu_cxx12_Lock_policyE2EEC2I13RegistryEntryI20BVStressComponentAuxESaIvEJRK17RegistryEntryDataEEERPT_St20_Sp_alloc_shared_tagIT0_EDpOT1_
FN:964,_ZNSt14__shared_countILN9__gnu_cxx12_Lock_policyE2EEC2I9BeaverAppSaIvEJRK15InputParametersEEERPT_St20_Sp_alloc_shared_tagIT0_EDpOT1_
FN:964,_ZNSt14__shared_countILN9__gnu_cxx12_Lock_policyE2EEC2I13RegistryEntryI24BVMultiPhaseFlowMaterialESaIvEJRK17RegistryEntryDataEEERPT_St20_Sp_alloc_shared_tagIT0_EDpOT1_
FNDA:0,_ZNSt23_Sp_counted_ptr_inplaceI13RegistryEntryI24BVMultiPhaseFlowMaterialESaIvELN9__gnu_cxx12_Lock_policyE2EED0Ev
FNDA:26,_ZNSt14__shared_countILN9__gnu_cxx12_Lock_policyE2EEC2I13RegistryEntryI16BVPressureActionESaIvEJRK17RegistryEntryDataEEERPT_St20_Sp_alloc_shared_tagIT0_EDpOT1_
FNDA:0,_ZNSt15_Sp_counted_ptrIDnLN9__gnu_cxx12_Lock_policyE2EE10_M_disposeEv
FNDA:0,_ZNSt23_Sp_counted_ptr_inplaceI13RegistryEntryI25BVFaultInterfaceGeneratorESaIvELN9__gnu_cxx12_Lock_policyE2EED2Ev
FNDA:0,_ZNSt23_Sp_counted_ptr_inplaceI13RegistryEntryI20BVRTL2020ModelUpdateESaIvELN9__gnu_cxx12_Lock_policyE2EED0Ev
FNDA:26,_ZNSt14__shared_countILN9__gnu_cxx12_Lock_policyE2EEC2I13RegistryEntryI21BVShearTractionActionESaIvEJRK17RegistryEntryDataEEERPT_St20_Sp_alloc_shared_tagIT0_EDpOT1_
FNDA:0,_ZNSt23_Sp_counted_ptr_inplaceI13RegistryEntryI17BVShearTractionBCESaIvELN9__gnu_cxx12_Lock_policyE2EE10_M_destroyEv
FNDA:0,_ZNSt23_Sp_counted_ptr_inplaceI13RegistryEntryI31BVSinglePhaseFlowSoluteMaterialESaIvELN9__gnu_cxx12_Lock_policyE2EE10_M_destroyEv
FNDA:0,_ZNSt23_Sp_counted_ptr_inplaceI13RegistryEntryI20BVStressComponentAuxESaIvELN9__gnu_cxx12_Lock_policyE2EED2Ev
FNDA:0,_ZNSt23_Sp_counted_ptr_inplaceI13RegistryEntryI31BVSinglePhaseFlowSoluteMaterialESaIvELN9__gnu_cxx12_Lock_policyE2EE14_M_get_deleterERKSt9type_info
FNDA:0,_ZNSt16_Sp_counted_baseILN9__gnu_cxx12_Lock_policyE2EE10_M_destroyEv
FNDA:0,_ZNSt23_Sp_counted_ptr_inplaceI13RegistryEntryI20BVStressComponentAuxESaIvELN9__gnu_cxx12_Lock_policyE2EED0Ev
FNDA:2,_ZNSt23_Sp_counted_ptr_inplaceI21BVShearTractionActionSaIvELN9__gnu_cxx12_Lock_policyE2EE10_M_disposeEv
FNDA:26,_ZNSt14__shared_countILN9__gnu_cxx12_Lock_policyE2EEC2I13RegistryEntryI18BVDarcyVelocityAuxESaIvEJRK17RegistryEntryDataEEERPT_St20_Sp_alloc_shared_tagIT0_EDpOT1_
FNDA:0,_ZNSt23_Sp_counted_ptr_inplaceI13RegistryEntryI19BVLubby2ModelUpdateESaIvELN9__gnu_cxx12_Lock_policyE2EE10_M_disposeEv
FNDA:26,_ZNSt14__shared_countILN9__gnu_cxx12_Lock_policyE2EEC2I13RegistryEntryI13BVPressureAuxESaIvEJRK17RegistryEntryDataEEERPT_St20_Sp_alloc_shared_tagIT0_EDpOT1_
FNDA:0,_ZNSt23_Sp_counted_ptr_inplaceI13RegistryEntryI17BVFluidPropertiesESaIvELN9__gnu_cxx12_Lock_policyE2EE10_M_destroyEv
FNDA:0,_ZNSt23_Sp_counted_ptr_inplaceI13RegistryEntryI18BVEqvStrainRateAuxESaIvELN9__gnu_cxx12_Lock_policyE2EED2Ev
FNDA:0,_ZNSt23_Sp_counted_ptr_inplaceI13RegistryEntryI24BVConstantFrictionUpdateESaIvELN9__gnu_cxx12_Lock_policyE2EE10_M_destroyEv
FNDA:2,_ZNSt14__shared_countILN9__gnu_cxx12_Lock_policyE2EEC2I21BVShearTractionActionSaIvEJRK15InputParametersEEERPT_St20_Sp_alloc_shared_tagIT0_EDpOT1_
FNDA:0,_ZNSt23_Sp_counted_ptr_inplaceI13RegistryEntryI36BVFVMultiPhasePressureTimeDerivativeESaIvELN9__gnu_cxx12_Lock_policyE2EE10_M_destroyEv
FNDA:0,_ZNSt23_Sp_counted_ptr_inplaceI13RegistryEntryI16BVMisesStressAuxESaIvELN9__gnu_cxx12_Lock_policyE2EED2Ev
FNDA:0,_ZNSt23_Sp_counted_ptr_inplaceI13RegistryEntryI18BVDarcyVelocityAuxESaIvELN9__gnu_cxx12_Lock_policyE2EE10_M_disposeEv
FNDA:0,_ZNSt23_Sp_counted_ptr_inplaceI13RegistryEntryI26BVKelvinViscoelasticUpdateESaIvELN9__gnu_cxx12_Lock_policyE2EE14_M_get_deleterERKSt9type_info
FNDA:0,_ZNSt23_Sp_counted_ptr_inplaceI13RegistryEntryI16BVPressureActionESaIvELN9__gnu_cxx12_Lock_policyE2EED0Ev
FNDA:0,_ZNSt23_Sp_counted_ptr_inplaceI13RegistryEntryI13BVPressureAuxESaIvELN9__gnu_cxx12_Lock_policyE2EE14_M_get_deleterERKSt9type_info
FNDA:0,_ZNSt23_Sp_counted_ptr_inplaceI13RegistryEntryI24BVConstantFrictionUpdateESaIvELN9__gnu_cxx12_Lock_policyE2EE14_M_get_deleterERKSt9type_info
FNDA:0,_ZNSt23_Sp_counted_ptr_inplaceI13RegistryEntryI22BVConstantPermeabilityESaIvELN9__gnu_cxx12_Lock_policyE2EE10_M_disposeEv
FNDA:0,_ZNSt23_Sp_counted_ptr_inplaceI13RegistryEntryI27BVFVMultiPhasePressureDarcyESaIvELN9__gnu_cxx12_Lock_policyE2EED0Ev
FNDA:0,_ZNSt23_Sp_counted_ptr_inplaceI13RegistryEntryI30BVRelativePermeabilityPowerLawESaIvELN9__gnu_cxx12_Lock_policyE2EE14_M_get_deleterERKSt9type_info
FNDA:0,_ZNSt23_Sp_counted_ptr_inplaceI13RegistryEntryI29BVFVSinglePhaseTimeDerivativeESaIvELN9__gnu_cxx12_Lock_policyE2EE10_M_destroyEv
FNDA:0,_ZNSt23_Sp_counted_ptr_inplaceI13RegistryEntryI23BVPoroMechanicsMaterialESaIvELN9__gnu_cxx12_Lock_policyE2EE10_M_disposeEv
FNDA:0,_ZNSt23_Sp_counted_ptr_inplaceI13RegistryEntryI18BVSinglePhaseDarcyESaIvELN9__gnu_cxx12_Lock_policyE2EE10_M_disposeEv
FNDA:0,_ZNSt23_Sp_counted_ptr_inplaceI13RegistryEntryI20BVStrainComponentAuxESaIvELN9__gnu_cxx12_Lock_policyE2EED0Ev
FNDA:0,_ZNSt23_Sp_counted_ptr_inplaceI13RegistryEntryI29BVMechanicalInterfaceMaterialESaIvELN9__gnu_cxx12_Lock_policyE2EE10_M_destroyEv
FNDA:0,_ZNSt23_Sp_counted_ptr_inplaceI13RegistryEntryI25BVFaultInterfaceGeneratorESaIvELN9__gnu_cxx12_Lock_policyE2EED0Ev
FNDA:0,_ZNSt23_Sp_counted_ptr_inplaceI13RegistryEntryI18BVEqvStrainRateAuxESaIvELN9__gnu_cxx12_Lock_policyE2EE10_M_destroyEv
FNDA:26,_ZNSt14__shared_countILN9__gnu_cxx12_Lock_policyE2EEC2I13RegistryEntryI17BVShearTractionBCESaIvEJRK17RegistryEntryDataEEERPT_St20_Sp_alloc_shared_tagIT0_EDpOT1_
FNDA:0,_ZNSt23_Sp_counted_ptr_inplaceI13RegistryEntryI25BVFaultInterfaceGeneratorESaIvELN9__gnu_cxx12_Lock_policyE2EE14_M_get_deleterERKSt9type_info
FNDA:26,_ZNSt14__shared_countILN9__gnu_cxx12_Lock_policyE2EEC2I13RegistryEntryI18BVEqvStrainRateAuxESaIvEJRK17RegistryEntryDataEEERPT_St20_Sp_alloc_shared_tagIT0_EDpOT1_
FNDA:0,_ZNSt23_Sp_counted_ptr_inplaceI13RegistryEntryI27BVCapillaryPressurePowerLawESaIvELN9__gnu_cxx12_Lock_policyE2EE10_M_disposeEv
FNDA:0,_ZNSt23_Sp_counted_ptr_inplaceISt5mutexSaIvELN9__gnu_cxx12_Lock_policyE2EE10_M_disposeEv
FNDA:26,_ZNSt14__shared_countILN9__gnu_cxx12_Lock_policyE2EEC2I13RegistryEntryI19BVBurgerModelUpdateESaIvEJRK17RegistryEntryDataEEERPT_St20_Sp_alloc_shared_tagIT0_EDpOT1_
FNDA:26,_ZNSt14__shared_countILN9__gnu_cxx12_Lock_policyE2EEC2I13RegistryEntryI19BVLubby2ModelUpdateESaIvEJRK17RegistryEntryDataEEERPT_St20_Sp_alloc_shared_tagIT0_EDpOT1_
FNDA:0,_ZNSt23_Sp_counted_ptr_inplaceINSt13__future_base13_State_baseV2ESaIvELN9__gnu_cxx12_Lock_policyE2EED0Ev
FNDA:0,_ZNSt23_Sp_counted_ptr_inplaceI13RegistryEntryI18BVStressDivergenceESaIvELN9__gnu_cxx12_Lock_policyE2EE14_M_get_deleterERKSt9type_info
FNDA:0,_ZNSt23_Sp_counted_ptr_inplaceI13RegistryEntryI18BVDarcyVelocityAuxESaIvELN9__gnu_cxx12_Lock_policyE2EE10_M_destroyEv
FNDA:0,_ZNSt23_Sp_counted_ptr_inplaceI13RegistryEntryI18BVStressDivergenceESaIvELN9__gnu_cxx12_Lock_policyE2EE10_M_destroyEv
FNDA:0,_ZNSt23_Sp_counted_ptr_inplaceINSt13__future_base13_State_baseV2ESaIvELN9__gnu_cxx12_Lock_policyE2EE10_M_disposeEv
FNDA:0,_ZNSt23_Sp_counted_ptr_inplaceI13RegistryEntryI20BVConstantDispersionESaIvELN9__gnu_cxx12_Lock_policyE2EE14_M_get_deleterERKSt9type_info
FNDA:0,_ZNSt23_Sp_counted_ptr_inplaceI13RegistryEntryI21BVMechanicalInterfaceESaIvELN9__gnu_cxx12_Lock_policyE2EED0Ev
FNDA:0,_ZNSt23_Sp_counted_ptr_inplaceI13RegistryEntryI30BVRelativePermeabilityPowerLawESaIvELN9__gnu_cxx12_Lock_policyE2EE10_M_disposeEv
FNDA:0,_ZNSt23_Sp_counted_ptr_inplaceI13RegistryEntryI20BVRTL2020ModelUpdateESaIvELN9__gnu_cxx12_Lock_policyE2EED2Ev
FNDA:0,_ZNSt23_Sp_counted_ptr_inplaceI13RegistryEntryI27BVSinglePhaseTimeDerivativeESaIvELN9__gnu_cxx12_Lock_policyE2EED0Ev
FNDA:0,_ZNSt23_Sp_counted_ptr_inplaceI13RegistryEntryI26BVFVSinglePhaseSoluteDarcyESaIvELN9__gnu_cxx12_Lock_policyE2EED2Ev
FNDA:0,_ZNSt23_Sp_counted_ptr_inplaceI13RegistryEntryI14BVEqvStrainAuxESaIvELN9__gnu_cxx12_Lock_policyE2EE14_M_get_deleterERKSt9type_info
FNDA:0,_ZNSt23_Sp_counted_ptr_inplaceI13RegistryEntryI18BVDarcyVelocityAuxESaIvELN9__gnu_cxx12_Lock_policyE2EED0Ev
FNDA:26,_ZNSt14__shared_countILN9__gnu_cxx12_Lock_policyE2EEC2I13RegistryEntryI20BVRTL2020ModelUpdateESaIvEJRK17RegistryEntryDataEEERPT_St20_Sp_alloc_shared_tagIT0_EDpOT1_
FNDA:26,_ZNSt14__shared_countILN9__gnu_cxx12_Lock_policyE2EEC2I13RegistryEntryI17BVFluidPropertiesESaIvEJRK17RegistryEntryDataEEERPT_St20_Sp_alloc_shared_tagIT0_EDpOT1_
FNDA:0,_ZNSt23_Sp_counted_ptr_inplaceI13RegistryEntryI22BVConstantPermeabilityESaIvELN9__gnu_cxx12_Lock_policyE2EE10_M_destroyEv
FNDA:0,_ZNSt23_Sp_counted_ptr_inplaceI13RegistryEntryI21BVShearTractionActionESaIvELN9__gnu_cxx12_Lock_policyE2EE10_M_destroyEv
FNDA:0,_ZNSt23_Sp_counted_ptr_inplaceI13RegistryEntryI27BVSinglePhaseTimeDerivativeESaIvELN9__gnu_cxx12_Lock_policyE2EED2Ev
FNDA:0,_ZNSt23_Sp_counted_ptr_inplaceI13RegistryEntryI25BVSinglePhaseFlowMaterialESaIvELN9__gnu_cxx12_Lock_policyE2EED2Ev
FNDA:0,_ZNSt23_Sp_counted_ptr_inplaceI13RegistryEntryI24BVConstantFrictionUpdateESaIvELN9__gnu_cxx12_Lock_policyE2EE10_M_disposeEv
FNDA:0,_ZNSt23_Sp_counted_ptr_inplaceI13RegistryEntryI19BVLubby2ModelUpdateESaIvELN9__gnu_cxx12_Lock_policyE2EE10_M_destroyEv
FNDA:0,_ZNSt23_Sp_counted_ptr_inplaceI13RegistryEntryI20BVFVSinglePhaseDarcyESaIvELN9__gnu_cxx12_Lock_policyE2EE10_M_destroyEv
FNDA:0,_ZNSt23_Sp_counted_ptr_inplaceI13RegistryEntryI27BVCapillaryPressurePowerLawESaIvELN9__gnu_cxx12_Lock_policyE2EE14_M_get_deleterERKSt9type_info
FNDA:0,_ZNSt23_Sp_counted_ptr_inplaceI13RegistryEntryI13BVPressureAuxESaIvELN9__gnu_cxx12_Lock_policyE2EE10_M_destroyEv
FNDA:8,_ZNSt23_Sp_counted_ptr_inplaceI16BVPressureActionSaIvELN9__gnu_cxx12_Lock_policyE2EE10_M_disposeEv
FNDA:0,_ZNSt23_Sp_counted_ptr_inplaceI13RegistryEntryI18BVStressDivergenceESaIvELN9__gnu_cxx12_Lock_policyE2EE10_M_disposeEv
FNDA:0,_ZNSt23_Sp_counted_ptr_inplaceI13RegistryEntryI29BVFVSinglePhaseTimeDerivativeESaIvELN9__gnu_cxx12_Lock_policyE2EE10_M_disposeEv
FNDA:0,_ZNSt23_Sp_counted_ptr_inplaceI13RegistryEntryI20BVStrainComponentAuxESaIvELN9__gnu_cxx12_Lock_policyE2EE10_M_disposeEv
FNDA:0,_ZNSt23_Sp_counted_ptr_inplaceI13RegistryEntryI17BVShearTractionBCESaIvELN9__gnu_cxx12_Lock_policyE2EED0Ev
FNDA:0,_ZNSt23_Sp_counted_ptr_inplaceI13RegistryEntryI36BVFVMultiPhasePressureTimeDerivativeESaIvELN9__gnu_cxx12_Lock_policyE2EE10_M_disposeEv
FNDA:0,_ZNSt23_Sp_counted_ptr_inplaceI13RegistryEntryI20BVStressComponentAuxESaIvELN9__gnu_cxx12_Lock_policyE2EE10_M_disposeEv
FNDA:0,_ZNSt23_Sp_counted_ptr_inplaceI13RegistryEntryI24BVMultiPhaseFlowMaterialESaIvELN9__gnu_cxx12_Lock_policyE2EE10_M_destroyEv
FNDA:0,_ZNSt23_Sp_counted_ptr_inplaceI13RegistryEntryI35BVFVSinglePhaseSoluteTimeDerivativeESaIvELN9__gnu_cxx12_Lock_policyE2EE10_M_disposeEv
FNDA:0,_ZNSt23_Sp_counted_ptr_inplaceI13RegistryEntryI25BVSinglePhaseFlowMaterialESaIvELN9__gnu_cxx12_Lock_policyE2EE10_M_destroyEv
FNDA:0,_ZNSt23_Sp_counted_ptr_inplaceI13RegistryEntryI21BVFaultShearStressAuxESaIvELN9__gnu_cxx12_Lock_policyE2EED0Ev
FNDA:26,_ZNSt14__shared_countILN9__gnu_cxx12_Lock_policyE2EEC2I13RegistryEntryI20BVStressComponentAuxESaIvEJRK17RegistryEntryDataEEERPT_St20_Sp_alloc_shared_tagIT0_EDpOT1_
FNDA:0,_ZNSt14__shared_countILN9__gnu_cxx12_Lock_policyE2EEC2I9BeaverAppSaIvEJRK15InputParametersEEERPT_St20_Sp_alloc_shared_tagIT0_EDpOT1_
FNDA:0,_ZNSt23_Sp_counted_ptr_inplaceI13RegistryEntryI13BVPressureAuxESaIvELN9__gnu_cxx12_Lock_policyE2EED2Ev
FNDA:0,_ZNSt23_Sp_counted_ptr_inplaceI13RegistryEntryI29BVMechanicalInterfaceMaterialESaIvELN9__gnu_cxx12_Lock_policyE2EED2Ev
FNDA:0,_ZNSt23_Sp_counted_ptr_inplaceI13RegistryEntryI35BVFVSinglePhaseSoluteTimeDerivativeESaIvELN9__gnu_cxx12_Lock_policyE2EED0Ev
FNDA:0,_ZNSt23_Sp_counted_ptr_inplaceI13RegistryEntryI18BVEqvStrainRateAuxESaIvELN9__gnu_cxx12_Lock_policyE2EE10_M_disposeEv
FNDA:0,_ZNSt23_Sp_counted_ptr_inplaceI13RegistryEntryI21BVFaultShearStressAuxESaIvELN9__gnu_cxx12_Lock_policyE2EE10_M_disposeEv
FNDA:0,_ZNSt23_Sp_counted_ptr_inplaceI13RegistryEntryI24BVMultiPhaseFlowMaterialESaIvELN9__gnu_cxx12_Lock_policyE2EED2Ev
FNDA:0,_ZNSt23_Sp_counted_ptr_inplaceI13RegistryEntryI20BVMechanicalMaterialESaIvELN9__gnu_cxx12_Lock_policyE2EE14_M_get_deleterERKSt9type_info
FNDA:0,_ZNSt23_Sp_counted_ptr_inplaceI13RegistryEntryI26BVKelvinViscoelasticUpdateESaIvELN9__gnu_cxx12_Lock_policyE2EED2Ev
FNDA:26,_ZNSt14__shared_countILN9__gnu_cxx12_Lock_policyE2EEC2I13RegistryEntryI24BVMultiPhaseFlowMaterialESaIvEJRK17RegistryEntryDataEEERPT_St20_Sp_alloc_shared_tagIT0_EDpOT1_
FNDA:0,_ZNSt23_Sp_counted_ptr_inplaceI13RegistryEntryI30BVRelativePermeabilityPowerLawESaIvELN9__gnu_cxx12_Lock_policyE2EE10_M_destroyEv
FNDA:0,_ZNSt23_Sp_counted_ptr_inplaceI13RegistryEntryI27BVMaxwellViscoelasticUpdateESaIvELN9__gnu_cxx12_Lock_policyE2EE10_M_destroyEv
FNDA:0,_ZNSt23_Sp_counted_ptr_inplaceI13RegistryEntryI20BVConstantDispersionESaIvELN9__gnu_cxx12_Lock_policyE2EED0Ev
FNDA:0,_ZNSt23_Sp_counted_ptr_inplaceI21BVShearTractionActionSaIvELN9__gnu_cxx12_Lock_policyE2EED2Ev
FNDA:0,_ZNSt23_Sp_counted_ptr_inplaceI9BeaverAppSaIvELN9__gnu_cxx12_Lock_policyE2EE10_M_disposeEv
FNDA:0,_ZNSt23_Sp_counted_ptr_inplaceI13RegistryEntryI17BVFluidPropertiesESaIvELN9__gnu_cxx12_Lock_policyE2EED2Ev
FNDA:0,_ZNSt23_Sp_counted_ptr_inplaceI13RegistryEntryI38BVFVMultiPhaseSaturationTimeDerivativeESaIvELN9__gnu_cxx12_Lock_policyE2EE14_M_get_deleterERKSt9type_info
FNDA:0,_ZNSt23_Sp_counted_ptr_inplaceINSt13__future_base13_State_baseV2ESaIvELN9__gnu_cxx12_Lock_policyE2EED2Ev
FNDA:0,_ZNSt23_Sp_counted_ptr_inplaceI13RegistryEntryI16BVPressureActionESaIvELN9__gnu_cxx12_Lock_policyE2EED2Ev
FNDA:0,_ZNSt23_Sp_counted_ptr_inplaceI13RegistryEntryI26BVKelvinViscoelasticUpdateESaIvELN9__gnu_cxx12_Lock_policyE2EE10_M_disposeEv
FNDA:0,_ZNSt23_Sp_counted_ptr_inplaceI9BeaverAppSaIvELN9__gnu_cxx12_Lock_policyE2EED2Ev
FNDA:0,_ZNSt23_Sp_counted_ptr_inplaceI13RegistryEntryI19BVBurgerModelUpdateESaIvELN9__gnu_cxx12_Lock_policyE2EED0Ev
FNDA:0,_ZNSt23_Sp_counted_ptr_inplaceI13RegistryEntryI31BVSinglePhaseFlowSoluteMaterialESaIvELN9__gnu_cxx12_Lock_policyE2EE10_M_disposeEv
FNDA:0,_ZNSt23_Sp_counted_ptr_inplaceI13RegistryEntryI18BVSinglePhaseDarcyESaIvELN9__gnu_cxx12_Lock_policyE2EE10_M_destroyEv
FNDA:0,_ZNSt23_Sp_counted_ptr_inplaceI13RegistryEntryI20BVFVSinglePhaseDarcyESaIvELN9__gnu_cxx12_Lock_policyE2EE10_M_disposeEv
FNDA:0,_ZNSt23_Sp_counted_ptr_inplaceI13RegistryEntryI20BVConstantDispersionESaIvELN9__gnu_cxx12_Lock_policyE2EE10_M_disposeEv
FNDA:0,_ZNSt23_Sp_counted_ptr_inplaceI13RegistryEntryI29BVFVMultiPhaseSaturationDarcyESaIvELN9__gnu_cxx12_Lock_policyE2EED0Ev
FNDA:26,_ZNSt14__shared_countILN9__gnu_cxx12_Lock_policyE2EEC2I13RegistryEntryI24BVConstantFrictionUpdateESaIvEJRK17RegistryEntryDataEEERPT_St20_Sp_alloc_shared_tagIT0_EDpOT1_
FNDA:0,_ZNSt23_Sp_counted_ptr_inplaceI13RegistryEntryI20BVRTL2020ModelUpdateESaIvELN9__gnu_cxx12_Lock_policyE2EE10_M_disposeEv
FNDA:0,_ZNSt23_Sp_counted_ptr_inplaceI13RegistryEntryI16BVMisesStressAuxESaIvELN9__gnu_cxx12_Lock_policyE2EED0Ev
FNDA:0,_ZNSt23_Sp_counted_ptr_inplaceI13RegistryEntryI20BVMechanicalMaterialESaIvELN9__gnu_cxx12_Lock_policyE2EE10_M_disposeEv
FNDA:0,_ZNSt23_Sp_counted_ptr_inplaceI9BeaverAppSaIvELN9__gnu_cxx12_Lock_policyE2EED0Ev
FNDA:0,_ZNSt23_Sp_counted_ptr_inplaceI13RegistryEntryI23BVPoroMechanicsMaterialESaIvELN9__gnu_cxx12_Lock_policyE2EE10_M_destroyEv
FNDA:0,_ZNSt23_Sp_counted_ptr_inplaceI13RegistryEntryI38BVFVMultiPhaseSaturationTimeDerivativeESaIvELN9__gnu_cxx12_Lock_policyE2EE10_M_disposeEv
FNDA:0,_ZNSt23_Sp_counted_ptr_inplaceI13RegistryEntryI19BVLubby2ModelUpdateESaIvELN9__gnu_cxx12_Lock_policyE2EED2Ev
FNDA:0,_ZNSt23_Sp_counted_ptr_inplaceI13RegistryEntryI27BVMaxwellViscoelasticUpdateESaIvELN9__gnu_cxx12_Lock_policyE2EE10_M_disposeEv
FNDA:0,_ZNSt23_Sp_counted_ptr_inplaceI13RegistryEntryI21BVShearTractionActionESaIvELN9__gnu_cxx12_Lock_policyE2EE14_M_get_deleterERKSt9type_info
FNDA:26,_ZNSt14__shared_countILN9__gnu_cxx12_Lock_policyE2EEC2I13RegistryEntryI22BVFaultNormalStressAuxESaIvEJRK17RegistryEntryDataEEERPT_St20_Sp_alloc_shared_tagIT0_EDpOT1_
FNDA:8,_ZNSt23_Sp_counted_ptr_inplaceI16BVPressureActionSaIvELN9__gnu_cxx12_Lock_policyE2EE10_M_destroyEv
FNDA:26,_ZNSt14__shared_countILN9__gnu_cxx12_Lock_policyE2EEC2I13RegistryEntryI21BVMechanicalInterfaceESaIvEJRK17RegistryEntryDataEEERPT_St20_Sp_alloc_shared_tagIT0_EDpOT1_
FNDA:0,_ZNSt23_Sp_counted_ptr_inplaceI13RegistryEntryI12BVPressureBCESaIvELN9__gnu_cxx12_Lock_policyE2EE10_M_disposeEv
FNDA:0,_ZNSt23_Sp_counted_ptr_inplaceI13RegistryEntryI38BVFVMultiPhaseSaturationTimeDerivativeESaIvELN9__gnu_cxx12_Lock_policyE2EE10_M_destroyEv
FNDA:0,_ZNSt23_Sp_counted_ptr_inplaceI13RegistryEntryI24BVMultiPhaseFlowMaterialESaIvELN9__gnu_cxx12_Lock_policyE2EE10_M_disposeEv
FNDA:0,_ZNSt23_Sp_counted_ptr_inplaceI13RegistryEntryI20BVStrainComponentAuxESaIvELN9__gnu_cxx12_Lock_policyE2EED2Ev
FNDA:0,_ZNSt23_Sp_counted_ptr_inplaceI16BVPressureActionSaIvELN9__gnu_cxx12_Lock_policyE2EE14_M_get_deleterERKSt9type_info
FNDA:0,_ZNSt23_Sp_counted_ptr_inplaceISt5mutexSaIvELN9__gnu_cxx12_Lock_policyE2EED2Ev
FNDA:26,_ZNSt14__shared_countILN9__gnu_cxx12_Lock_policyE2EEC2I13RegistryEntryI27BVFVMultiPhasePressureDarcyESaIvEJRK17RegistryEntryDataEEERPT_St20_Sp_alloc_shared_tagIT0_EDpOT1_
FNDA:0,_ZNSt23_Sp_counted_ptr_inplaceI13RegistryEntryI26BVFVSinglePhaseSoluteDarcyESaIvELN9__gnu_cxx12_Lock_policyE2EE14_M_get_deleterERKSt9type_info
FNDA:26,_ZNSt14__shared_countILN9__gnu_cxx12_Lock_policyE2EEC2I13RegistryEntryI20BVFVSinglePhaseDarcyESaIvEJRK17RegistryEntryDataEEERPT_St20_Sp_alloc_shared_tagIT0_EDpOT1_
FNDA:0,_ZNSt23_Sp_counted_ptr_inplaceI13RegistryEntryI27BVMaxwellViscoelasticUpdateESaIvELN9__gnu_cxx12_Lock_policyE2EED0Ev
FNDA:26,_ZNSt14__shared_countILN9__gnu_cxx12_Lock_policyE2EEC2I13RegistryEntryI20BVConstantDispersionESaIvEJRK17RegistryEntryDataEEERPT_St20_Sp_alloc_shared_tagIT0_EDpOT1_
FNDA:0,_ZNSt23_Sp_counted_ptr_inplaceI13RegistryEntryI20BVStrainComponentAuxESaIvELN9__gnu_cxx12_Lock_policyE2EE14_M_get_deleterERKSt9type_info
FNDA:0,_ZNSt23_Sp_counted_ptr_inplaceI13RegistryEntryI17BVShearTractionBCESaIvELN9__gnu_cxx12_Lock_policyE2EED2Ev
FNDA:0,_ZNSt23_Sp_counted_ptr_inplaceI13RegistryEntryI25BVSinglePhaseFlowMaterialESaIvELN9__gnu_cxx12_Lock_policyE2EE10_M_disposeEv
FNDA:0,_ZNSt23_Sp_counted_ptr_inplaceI13RegistryEntryI13BVPressureAuxESaIvELN9__gnu_cxx12_Lock_policyE2EED0Ev
FNDA:0,_ZNSt23_Sp_counted_ptr_inplaceI13RegistryEntryI30BVRelativePermeabilityPowerLawESaIvELN9__gnu_cxx12_Lock_policyE2EED0Ev
FNDA:0,_ZNSt23_Sp_counted_ptr_inplaceI13RegistryEntryI27BVFVMultiPhasePressureDarcyESaIvELN9__gnu_cxx12_Lock_policyE2EE10_M_destroyEv
FNDA:0,_ZNSt23_Sp_counted_ptr_inplaceI13RegistryEntryI21BVFaultShearStressAuxESaIvELN9__gnu_cxx12_Lock_policyE2EED2Ev
FNDA:26,_ZNSt14__shared_countILN9__gnu_cxx12_Lock_policyE2EEC2I13RegistryEntryI12BVPressureBCESaIvEJRK17RegistryEntryDataEEERPT_St20_Sp_alloc_shared_tagIT0_EDpOT1_
FNDA:26,_ZNSt14__shared_countILN9__gnu_cxx12_Lock_policyE2EEC2I13RegistryEntryI30BVRelativePermeabilityPowerLawESaIvEJRK17RegistryEntryDataEEERPT_St20_Sp_alloc_shared_tagIT0_EDpOT1_
FNDA:0,_ZNSt23_Sp_counted_ptr_inplaceI13RegistryEntryI24BVConstantFrictionUpdateESaIvELN9__gnu_cxx12_Lock_policyE2EED0Ev
FNDA:0,_ZNSt23_Sp_counted_ptr_inplaceI13RegistryEntryI20BVConstantDispersionESaIvELN9__gnu_cxx12_Lock_policyE2EED2Ev
FNDA:0,_ZNSt23_Sp_counted_ptr_inplaceI13RegistryEntryI20BVStressComponentAuxESaIvELN9__gnu_cxx12_Lock_policyE2EE14_M_get_deleterERKSt9type_info
FNDA:0,_ZNSt23_Sp_counted_ptr_inplaceI13RegistryEntryI27BVFVMultiPhasePressureDarcyESaIvELN9__gnu_cxx12_Lock_policyE2EED2Ev
FNDA:0,_ZNSt23_Sp_counted_ptr_inplaceI13RegistryEntryI20BVMechanicalMaterialESaIvELN9__gnu_cxx12_Lock_policyE2EED2Ev
FNDA:0,_ZNSt23_Sp_counted_ptr_inplaceI13RegistryEntryI29BVMechanicalInterfaceMaterialESaIvELN9__gnu_cxx12_Lock_policyE2EE14_M_get_deleterERKSt9type_info
FNDA:0,_ZNSt23_Sp_counted_ptr_inplaceI13RegistryEntryI20BVStrainComponentAuxESaIvELN9__gnu_cxx12_Lock_policyE2EE10_M_destroyEv
FNDA:0,_ZNSt23_Sp_counted_ptr_inplaceI13RegistryEntryI25BVSinglePhaseFlowMaterialESaIvELN9__gnu_cxx12_Lock_policyE2EED0Ev
FNDA:0,_ZNSt23_Sp_counted_ptr_inplaceISt5mutexSaIvELN9__gnu_cxx12_Lock_policyE2EE10_M_destroyEv
FNDA:0,_ZNSt23_Sp_counted_ptr_inplaceI13RegistryEntryI22BVConstantPermeabilityESaIvELN9__gnu_cxx12_Lock_policyE2EE14_M_get_deleterERKSt9type_info
FNDA:0,_ZNSt23_Sp_counted_ptr_inplaceI13RegistryEntryI17BVShearTractionBCESaIvELN9__gnu_cxx12_Lock_policyE2EE10_M_disposeEv
FNDA:302,_ZNSt16_Sp_counted_baseILN9__gnu_cxx12_Lock_policyE2EE15_M_weak_releaseEv
FNDA:26,_ZNSt14__shared_countILN9__gnu_cxx12_Lock_policyE2EEC2I13RegistryEntryI38BVFVMultiPhaseSaturationTimeDerivativeESaIvEJRK17RegistryEntryDataEEERPT_St20_Sp_alloc_shared_tagIT0_EDpOT1_
FNDA:0,_ZNSt23_Sp_counted_ptr_inplaceI9BeaverAppSaIvELN9__gnu_cxx12_Lock_policyE2EE10_M_destroyEv
FNDA:0,_ZNSt23_Sp_counted_ptr_inplaceI13RegistryEntryI17BVShearTractionBCESaIvELN9__gnu_cxx12_Lock_policyE2EE14_M_get_deleterERKSt9type_info
FNDA:0,_ZNSt23_Sp_counted_ptr_inplaceI13RegistryEntryI36BVFVMultiPhasePressureTimeDerivativeESaIvELN9__gnu_cxx12_Lock_policyE2EED0Ev
FNDA:26,_ZNSt14__shared_countILN9__gnu_cxx12_Lock_policyE2EEC2I13RegistryEntryI27BVCapillaryPressurePowerLawESaIvEJRK17RegistryEntryDataEEERPT_St20_Sp_alloc_shared_tagIT0_EDpOT1_
FNDA:0,_ZNSt23_Sp_counted_ptr_inplaceI13RegistryEntryI18BVStressDivergenceESaIvELN9__gnu_cxx12_Lock_policyE2EED0Ev
FNDA:2,_ZNSt23_Sp_counted_ptr_inplaceI21BVShearTractionActionSaIvELN9__gnu_cxx12_Lock_policyE2EE10_M_destroyEv
FNDA:0,_ZNSt23_Sp_counted_ptr_inplaceI13RegistryEntryI13BVPressureAuxESaIvELN9__gnu_cxx12_Lock_policyE2EE10_M_disposeEv
FNDA:0,_ZNSt23_Sp_counted_ptr_inplaceI13RegistryEntryI25BVFaultInterfaceGeneratorESaIvELN9__gnu_cxx12_Lock_policyE2EE10_M_destroyEv
FNDA:0,_ZNSt23_Sp_counted_ptr_inplaceI13RegistryEntryI38BVFVMultiPhaseSaturationTimeDerivativeESaIvELN9__gnu_cxx12_Lock_policyE2EED0Ev
FNDA:0,_ZNSt23_Sp_counted_ptr_inplaceI13RegistryEntryI27BVMaxwellViscoelasticUpdateESaIvELN9__gnu_cxx12_Lock_policyE2EE14_M_get_deleterERKSt9type_info
FNDA:8,_ZNSt14__shared_countILN9__gnu_cxx12_Lock_policyE2EEC2I16BVPressureActionSaIvEJRK15InputParametersEEERPT_St20_Sp_alloc_shared_tagIT0_EDpOT1_
FNDA:0,_ZNSt23_Sp_counted_ptr_inplaceISt5mutexSaIvELN9__gnu_cxx12_Lock_policyE2EED0Ev
FNDA:0,_ZNSt23_Sp_counted_ptr_inplaceI13RegistryEntryI18BVSinglePhaseDarcyESaIvELN9__gnu_cxx12_Lock_policyE2EED0Ev
FNDA:0,_ZNSt23_Sp_counted_ptr_inplaceI13RegistryEntryI17BVFluidPropertiesESaIvELN9__gnu_cxx12_Lock_policyE2EED0Ev
FNDA:0,_ZNSt23_Sp_counted_ptr_inplaceI13RegistryEntryI26BVFVSinglePhaseSoluteDarcyESaIvELN9__gnu_cxx12_Lock_policyE2EE10_M_destroyEv
FNDA:26,_ZNSt14__shared_countILN9__gnu_cxx12_Lock_policyE2EEC2I13RegistryEntryI22BVConstantPermeabilityESaIvEJRK17RegistryEntryDataEEERPT_St20_Sp_alloc_shared_tagIT0_EDpOT1_
FNDA:0,_ZNSt23_Sp_counted_ptr_inplaceI13RegistryEntryI27BVMaxwellViscoelasticUpdateESaIvELN9__gnu_cxx12_Lock_policyE2EED2Ev
FNDA:26,_ZNSt14__shared_countILN9__gnu_cxx12_Lock_policyE2EEC2I13RegistryEntryI18BVSinglePhaseDarcyESaIvEJRK17RegistryEntryDataEEERPT_St20_Sp_alloc_shared_tagIT0_EDpOT1_
FNDA:0,_ZNSt23_Sp_counted_ptr_inplaceI13RegistryEntryI27BVFVMultiPhasePressureDarcyESaIvELN9__gnu_cxx12_Lock_policyE2EE14_M_get_deleterERKSt9type_info
FNDA:0,_ZNSt23_Sp_counted_ptr_inplaceI13RegistryEntryI12BVPressureBCESaIvELN9__gnu_cxx12_Lock_policyE2EE10_M_destroyEv
FNDA:0,_ZNSt23_Sp_counted_ptr_inplaceI13RegistryEntryI20BVFVSinglePhaseDarcyESaIvELN9__gnu_cxx12_Lock_policyE2EED0Ev
FNDA:0,_ZNSt23_Sp_counted_ptr_inplaceI13RegistryEntryI20BVFVSinglePhaseDarcyESaIvELN9__gnu_cxx12_Lock_policyE2EE14_M_get_deleterERKSt9type_info
FNDA:0,_ZNSt23_Sp_counted_ptr_inplaceI13RegistryEntryI21BVShearTractionActionESaIvELN9__gnu_cxx12_Lock_policyE2EE10_M_disposeEv
FNDA:0,_ZNSt23_Sp_counted_ptr_inplaceI13RegistryEntryI31BVSinglePhaseFlowSoluteMaterialESaIvELN9__gnu_cxx12_Lock_policyE2EED2Ev
FNDA:26,_ZNSt14__shared_countILN9__gnu_cxx12_Lock_policyE2EEC2I13RegistryEntryI29BVFVMultiPhaseSaturationDarcyESaIvEJRK17RegistryEntryDataEEERPT_St20_Sp_alloc_shared_tagIT0_EDpOT1_
FNDA:26,_ZNSt14__shared_countILN9__gnu_cxx12_Lock_policyE2EEC2I13RegistryEntryI21BVFaultShearStressAuxESaIvEJRK17RegistryEntryDataEEERPT_St20_Sp_alloc_shared_tagIT0_EDpOT1_
FNDA:0,_ZNSt23_Sp_counted_ptr_inplaceI21BVShearTractionActionSaIvELN9__gnu_cxx12_Lock_policyE2EED0Ev
FNDA:0,_ZNSt23_Sp_counted_ptr_inplaceI13RegistryEntryI21BVMechanicalInterfaceESaIvELN9__gnu_cxx12_Lock_policyE2EE10_M_disposeEv
FNDA:1481,_ZNSt16_Sp_counted_baseILN9__gnu_cxx12_Lock_policyE2EE10_M_releaseEv
FNDA:0,_ZNSt23_Sp_counted_ptr_inplaceI13RegistryEntryI19BVBurgerModelUpdateESaIvELN9__gnu_cxx12_Lock_policyE2EED2Ev
FNDA:0,_ZNSt23_Sp_counted_ptr_inplaceI13RegistryEntryI29BVFVMultiPhaseSaturationDarcyESaIvELN9__gnu_cxx12_Lock_policyE2EE10_M_destroyEv
FNDA:0,_ZNSt23_Sp_counted_ptr_inplaceI13RegistryEntryI19BVBurgerModelUpdateESaIvELN9__gnu_cxx12_Lock_policyE2EE10_M_disposeEv
FNDA:0,_ZNSt23_Sp_counted_ptr_inplaceI13RegistryEntryI21BVShearTractionActionESaIvELN9__gnu_cxx12_Lock_policyE2EED2Ev
FNDA:0,_ZNSt23_Sp_counted_ptr_inplaceI13RegistryEntryI29BVFVSinglePhaseTimeDerivativeESaIvELN9__gnu_cxx12_Lock_policyE2EED2Ev
FNDA:0,_ZNSt23_Sp_counted_ptr_inplaceI13RegistryEntryI21BVMechanicalInterfaceESaIvELN9__gnu_cxx12_Lock_policyE2EED2Ev
FNDA:0,_ZNSt23_Sp_counted_ptr_inplaceI13RegistryEntryI16BVPressureActionESaIvELN9__gnu_cxx12_Lock_policyE2EE10_M_destroyEv
FNDA:0,_ZNSt23_Sp_counted_ptr_inplaceI13RegistryEntryI35BVFVSinglePhaseSoluteTimeDerivativeESaIvELN9__gnu_cxx12_Lock_policyE2EE10_M_destroyEv
FNDA:0,_ZNSt23_Sp_counted_ptr_inplaceI13RegistryEntryI18BVSinglePhaseDarcyESaIvELN9__gnu_cxx12_Lock_policyE2EE14_M_get_deleterERKSt9type_info
FNDA:0,_ZNSt23_Sp_counted_ptr_inplaceI13RegistryEntryI27BVSinglePhaseTimeDerivativeESaIvELN9__gnu_cxx12_Lock_policyE2EE10_M_destroyEv
FNDA:0,_ZNSt23_Sp_counted_ptr_inplaceI9BeaverAppSaIvELN9__gnu_cxx12_Lock_policyE2EE14_M_get_deleterERKSt9type_info
FNDA:0,_ZNSt23_Sp_counted_ptr_inplaceI13RegistryEntryI23BVPoroMechanicsMaterialESaIvELN9__gnu_cxx12_Lock_policyE2EE14_M_get_deleterERKSt9type_info
FNDA:0,_ZNSt23_Sp_counted_ptr_inplaceI13RegistryEntryI22BVFaultNormalStressAuxESaIvELN9__gnu_cxx12_Lock_policyE2EE14_M_get_deleterERKSt9type_info
FNDA:0,_ZNSt23_Sp_counted_ptr_inplaceI13RegistryEntryI12BVPressureBCESaIvELN9__gnu_cxx12_Lock_policyE2EED0Ev
FNDA:0,_ZNSt23_Sp_counted_ptr_inplaceI13RegistryEntryI20BVMechanicalMaterialESaIvELN9__gnu_cxx12_Lock_policyE2EED0Ev
FNDA:0,_ZNSt23_Sp_counted_ptr_inplaceI13RegistryEntryI14BVEqvStrainAuxESaIvELN9__gnu_cxx12_Lock_policyE2EED0Ev
FNDA:26,_ZNSt14__shared_countILN9__gnu_cxx12_Lock_policyE2EEC2I13RegistryEntryI26BVFVSinglePhaseSoluteDarcyESaIvEJRK17RegistryEntryDataEEERPT_St20_Sp_alloc_shared_tagIT0_EDpOT1_
FNDA:0,_ZNSt23_Sp_counted_ptr_inplaceI13RegistryEntryI16BVMisesStressAuxESaIvELN9__gnu_cxx12_Lock_policyE2EE10_M_disposeEv
FNDA:0,_ZNSt16_Sp_counted_baseILN9__gnu_cxx12_Lock_policyE2EE19_M_release_last_useEv
FNDA:0,_ZNSt23_Sp_counted_ptr_inplaceI13RegistryEntryI22BVFaultNormalStressAuxESaIvELN9__gnu_cxx12_Lock_policyE2EED2Ev
FNDA:26,_ZNSt14__shared_countILN9__gnu_cxx12_Lock_policyE2EEC2I13RegistryEntryI25BVSinglePhaseFlowMaterialESaIvEJRK17RegistryEntryDataEEERPT_St20_Sp_alloc_shared_tagIT0_EDpOT1_
FNDA:0,_ZNSt23_Sp_counted_ptr_inplaceI13RegistryEntryI18BVConstantPorosityESaIvELN9__gnu_cxx12_Lock_policyE2EE14_M_get_deleterERKSt9type_info
FNDA:0,_ZNSt23_Sp_counted_ptr_inplaceI13RegistryEntryI27BVCapillaryPressurePowerLawESaIvELN9__gnu_cxx12_Lock_policyE2EED0Ev
FNDA:0,_ZNSt23_Sp_counted_ptr_inplaceI13RegistryEntryI16BVPressureActionESaIvELN9__gnu_cxx12_Lock_policyE2EE10_M_disposeEv
FNDA:0,_ZNSt23_Sp_counted_ptr_inplaceI13RegistryEntryI23BVPoroMechanicsMaterialESaIvELN9__gnu_cxx12_Lock_policyE2EED0Ev
FNDA:0,_ZNSt23_Sp_counted_ptr_inplaceI13RegistryEntryI27BVSinglePhaseTimeDerivativeESaIvELN9__gnu_cxx12_Lock_policyE2EE10_M_disposeEv
FNDA:0,_ZNSt23_Sp_counted_ptr_inplaceI13RegistryEntryI20BVConstantDispersionESaIvELN9__gnu_cxx12_Lock_policyE2EE10_M_destroyEv
FNDA:0,_ZNSt23_Sp_counted_ptr_inplaceI13RegistryEntryI20BVStressComponentAuxESaIvELN9__gnu_cxx12_Lock_policyE2EE10_M_destroyEv
FNDA:0,_ZNSt23_Sp_counted_ptr_inplaceI16BVPressureActionSaIvELN9__gnu_cxx12_Lock_policyE2EED0Ev
FNDA:26,_ZNSt14__shared_countILN9__gnu_cxx12_Lock_policyE2EEC2I13RegistryEntryI25BVFaultInterfaceGeneratorESaIvEJRK17RegistryEntryDataEEERPT_St20_Sp_alloc_shared_tagIT0_EDpOT1_
FNDA:0,_ZNSt23_Sp_counted_ptr_inplaceI13RegistryEntryI29BVFVMultiPhaseSaturationDarcyESaIvELN9__gnu_cxx12_Lock_policyE2EE14_M_get_deleterERKSt9type_info
FNDA:26,_ZNSt14__shared_countILN9__gnu_cxx12_Lock_policyE2EEC2I13RegistryEntryI29BVFVSinglePhaseTimeDerivativeESaIvEJRK17RegistryEntryDataEEERPT_St20_Sp_alloc_shared_tagIT0_EDpOT1_
FNDA:0,_ZNSt23_Sp_counted_ptr_inplaceI13RegistryEntryI22BVConstantPermeabilityESaIvELN9__gnu_cxx12_Lock_policyE2EED2Ev
FNDA:0,_ZNSt23_Sp_counted_ptr_inplaceI13RegistryEntryI19BVLubby2ModelUpdateESaIvELN9__gnu_cxx12_Lock_policyE2EE14_M_get_deleterERKSt9type_info
FNDA:0,_ZNSt23_Sp_counted_ptr_inplaceI13RegistryEntryI27BVFVMultiPhasePressureDarcyESaIvELN9__gnu_cxx12_Lock_policyE2EE10_M_disposeEv
FNDA:0,_ZNSt23_Sp_counted_ptr_inplaceI16BVPressureActionSaIvELN9__gnu_cxx12_Lock_policyE2EED2Ev
FNDA:0,_ZNSt23_Sp_counted_ptr_inplaceI13RegistryEntryI36BVFVMultiPhasePressureTimeDerivativeESaIvELN9__gnu_cxx12_Lock_policyE2EE14_M_get_deleterERKSt9type_info
FNDA:0,_ZNSt23_Sp_counted_ptr_inplaceI13RegistryEntryI14BVEqvStrainAuxESaIvELN9__gnu_cxx12_Lock_policyE2EE10_M_destroyEv
FNDA:0,_ZNSt23_Sp_counted_ptr_inplaceI13RegistryEntryI27BVCapillaryPressurePowerLawESaIvELN9__gnu_cxx12_Lock_policyE2EED2Ev
FNDA:0,_ZNSt23_Sp_counted_ptr_inplaceI13RegistryEntryI22BVFaultNormalStressAuxESaIvELN9__gnu_cxx12_Lock_policyE2EE10_M_destroyEv
FNDA:26,_ZNSt14__shared_countILN9__gnu_cxx12_Lock_policyE2EEC2I13RegistryEntryI27BVSinglePhaseTimeDerivativeESaIvEJRK17RegistryEntryDataEEERPT_St20_Sp_alloc_shared_tagIT0_EDpOT1_
FNDA:0,_ZNSt23_Sp_counted_ptr_inplaceI13RegistryEntryI26BVFVSinglePhaseSoluteDarcyESaIvELN9__gnu_cxx12_Lock_policyE2EED0Ev
FNDA:0,_ZNSt23_Sp_counted_ptr_inplaceI13RegistryEntryI27BVSinglePhaseTimeDerivativeESaIvELN9__gnu_cxx12_Lock_policyE2EE14_M_get_deleterERKSt9type_info
FNDA:0,_ZNSt23_Sp_counted_ptr_inplaceI13RegistryEntryI25BVFaultInterfaceGeneratorESaIvELN9__gnu_cxx12_Lock_policyE2EE10_M_disposeEv
FNDA:0,_ZNSt23_Sp_counted_ptr_inplaceI13RegistryEntryI38BVFVMultiPhaseSaturationTimeDerivativeESaIvELN9__gnu_cxx12_Lock_policyE2EED2Ev
FNDA:0,_ZNSt23_Sp_counted_ptr_inplaceI13RegistryEntryI22BVFaultNormalStressAuxESaIvELN9__gnu_cxx12_Lock_policyE2EE10_M_disposeEv
FNDA:0,_ZNSt23_Sp_counted_ptr_inplaceI13RegistryEntryI21BVFaultShearStressAuxESaIvELN9__gnu_cxx12_Lock_policyE2EE14_M_get_deleterERKSt9type_info
FNDA:0,_ZNSt23_Sp_counted_ptr_inplaceI13RegistryEntryI20BVFVSinglePhaseDarcyESaIvELN9__gnu_cxx12_Lock_policyE2EED2Ev
FNDA:0,_ZNSt23_Sp_counted_ptr_inplaceI13RegistryEntryI31BVSinglePhaseFlowSoluteMaterialESaIvELN9__gnu_cxx12_Lock_policyE2EED0Ev
FNDA:0,_ZNSt23_Sp_counted_ptr_inplaceI13RegistryEntryI18BVConstantPorosityESaIvELN9__gnu_cxx12_Lock_policyE2EED2Ev
FNDA:0,_ZNSt23_Sp_counted_ptr_inplaceI13RegistryEntryI14BVEqvStrainAuxESaIvELN9__gnu_cxx12_Lock_policyE2EED2Ev
FNDA:0,_ZNSt23_Sp_counted_ptr_inplaceI13RegistryEntryI36BVFVMultiPhasePressureTimeDerivativeESaIvELN9__gnu_cxx12_Lock_policyE2EED2Ev
FNDA:26,_ZNSt14__shared_countILN9__gnu_cxx12_Lock_policyE2EEC2I13RegistryEntryI26BVKelvinViscoelasticUpdateESaIvEJRK17RegistryEntryDataEEERPT_St20_Sp_alloc_shared_tagIT0_EDpOT1_
FNDA:26,_ZNSt14__shared_countILN9__gnu_cxx12_Lock_policyE2EEC2I13RegistryEntryI18BVConstantPorosityESaIvEJRK17RegistryEntryDataEEERPT_St20_Sp_alloc_shared_tagIT0_EDpOT1_
FNDA:0,_ZNSt23_Sp_counted_ptr_inplaceI13RegistryEntryI26BVKelvinViscoelasticUpdateESaIvELN9__gnu_cxx12_Lock_policyE2EE10_M_destroyEv
FNDA:0,_ZNSt23_Sp_counted_ptr_inplaceI13RegistryEntryI18BVConstantPorosityESaIvELN9__gnu_cxx12_Lock_policyE2EE10_M_destroyEv
FNDA:0,_ZNSt23_Sp_counted_ptr_inplaceI13RegistryEntryI21BVShearTractionActionESaIvELN9__gnu_cxx12_Lock_policyE2EED0Ev
FNDA:26,_ZNSt14__shared_countILN9__gnu_cxx12_Lock_policyE2EEC2I13RegistryEntryI31BVSinglePhaseFlowSoluteMaterialESaIvEJRK17RegistryEntryDataEEERPT_St20_Sp_alloc_shared_tagIT0_EDpOT1_
FNDA:1144,_ZNSt16_Sp_counted_baseILN9__gnu_cxx12_Lock_policyE2EE15_M_add_ref_copyEv
FNDA:0,_ZNSt23_Sp_counted_ptr_inplaceI13RegistryEntryI18BVDarcyVelocityAuxESaIvELN9__gnu_cxx12_Lock_policyE2EED2Ev
FNDA:0,_ZNSt23_Sp_counted_ptr_inplaceI13RegistryEntryI21BVMechanicalInterfaceESaIvELN9__gnu_cxx12_Lock_policyE2EE10_M_destroyEv
FNDA:26,_ZNSt14__shared_countILN9__gnu_cxx12_Lock_policyE2EEC2I13RegistryEntryI29BVMechanicalInterfaceMaterialESaIvEJRK17RegistryEntryDataEEERPT_St20_Sp_alloc_shared_tagIT0_EDpOT1_
FNDA:0,_ZNSt23_Sp_counted_ptr_inplaceI13RegistryEntryI20BVMechanicalMaterialESaIvELN9__gnu_cxx12_Lock_policyE2EE10_M_destroyEv
FNDA:0,_ZNSt23_Sp_counted_ptr_inplaceI13RegistryEntryI29BVFVMultiPhaseSaturationDarcyESaIvELN9__gnu_cxx12_Lock_policyE2EE10_M_disposeEv
FNDA:26,_ZNSt14__shared_countILN9__gnu_cxx12_Lock_policyE2EEC2I13RegistryEntryI18BVStressDivergenceESaIvEJRK17RegistryEntryDataEEERPT_St20_Sp_alloc_shared_tagIT0_EDpOT1_
FNDA:0,_ZNSt23_Sp_counted_ptr_inplaceI13RegistryEntryI18BVStressDivergenceESaIvELN9__gnu_cxx12_Lock_policyE2EED2Ev
FNDA:0,_ZNSt23_Sp_counted_ptr_inplaceI13RegistryEntryI29BVFVMultiPhaseSaturationDarcyESaIvELN9__gnu_cxx12_Lock_policyE2EED2Ev
FNDA:0,_ZNSt23_Sp_counted_ptr_inplaceI13RegistryEntryI18BVEqvStrainRateAuxESaIvELN9__gnu_cxx12_Lock_policyE2EE14_M_get_deleterERKSt9type_info
FNDA:0,_ZNSt23_Sp_counted_ptr_inplaceI13RegistryEntryI18BVSinglePhaseDarcyESaIvELN9__gnu_cxx12_Lock_policyE2EED2Ev
FNDA:0,_ZNSt23_Sp_counted_ptr_inplaceI13RegistryEntryI16BVMisesStressAuxESaIvELN9__gnu_cxx12_Lock_policyE2EE14_M_get_deleterERKSt9type_info
FNDA:0,_ZNSt23_Sp_counted_ptr_inplaceI13RegistryEntryI24BVMultiPhaseFlowMaterialESaIvELN9__gnu_cxx12_Lock_policyE2EE14_M_get_deleterERKSt9type_info
FNDA:0,_ZNSt23_Sp_counted_ptr_inplaceI13RegistryEntryI19BVLubby2ModelUpdateESaIvELN9__gnu_cxx12_Lock_policyE2EED0Ev
FNDA:0,_ZNSt23_Sp_counted_ptr_inplaceI13RegistryEntryI17BVFluidPropertiesESaIvELN9__gnu_cxx12_Lock_policyE2EE10_M_disposeEv
FNDA:0,_ZNSt23_Sp_counted_ptr_inplaceI13RegistryEntryI17BVFluidPropertiesESaIvELN9__gnu_cxx12_Lock_policyE2EE14_M_get_deleterERKSt9type_info
FNDA:0,_ZNSt23_Sp_counted_ptr_inplaceI13RegistryEntryI22BVFaultNormalStressAuxESaIvELN9__gnu_cxx12_Lock_policyE2EED0Ev
FNDA:0,_ZNSt23_Sp_counted_ptr_inplaceI13RegistryEntryI18BVDarcyVelocityAuxESaIvELN9__gnu_cxx12_Lock_policyE2EE14_M_get_deleterERKSt9type_info
FNDA:0,_ZNSt23_Sp_counted_ptr_inplaceI13RegistryEntryI29BVFVSinglePhaseTimeDerivativeESaIvELN9__gnu_cxx12_Lock_policyE2EE14_M_get_deleterERKSt9type_info
FNDA:0,_ZNSt23_Sp_counted_ptr_inplaceI13RegistryEntryI29BVMechanicalInterfaceMaterialESaIvELN9__gnu_cxx12_Lock_policyE2EE10_M_disposeEv
FNDA:0,_ZNSt23_Sp_counted_ptr_inplaceI21BVShearTractionActionSaIvELN9__gnu_cxx12_Lock_policyE2EE14_M_get_deleterERKSt9type_info
FNDA:0,_ZNSt23_Sp_counted_ptr_inplaceI13RegistryEntryI27BVCapillaryPressurePowerLawESaIvELN9__gnu_cxx12_Lock_policyE2EE10_M_destroyEv
FNDA:0,_ZNSt23_Sp_counted_ptr_inplaceI13RegistryEntryI30BVRelativePermeabilityPowerLawESaIvELN9__gnu_cxx12_Lock_policyE2EED2Ev
FNDA:0,_ZNSt23_Sp_counted_ptr_inplaceI13RegistryEntryI29BVFVSinglePhaseTimeDerivativeESaIvELN9__gnu_cxx12_Lock_policyE2EED0Ev
FNDA:26,_ZNSt14__shared_countILN9__gnu_cxx12_Lock_policyE2EEC2I13RegistryEntryI20BVStrainComponentAuxESaIvEJRK17RegistryEntryDataEEERPT_St20_Sp_alloc_shared_tagIT0_EDpOT1_
FNDA:0,_ZNSt23_Sp_counted_ptr_inplaceI13RegistryEntryI20BVRTL2020ModelUpdateESaIvELN9__gnu_cxx12_Lock_policyE2EE10_M_destroyEv
FNDA:0,_ZNSt23_Sp_counted_ptr_inplaceINSt13__future_base13_State_baseV2ESaIvELN9__gnu_cxx12_Lock_policyE2EE10_M_destroyEv
FNDA:0,_ZNSt23_Sp_counted_ptr_inplaceI13RegistryEntryI21BVMechanicalInterfaceESaIvELN9__gnu_cxx12_Lock_policyE2EE14_M_get_deleterERKSt9type_info
FNDA:26,_ZNSt14__shared_countILN9__gnu_cxx12_Lock_policyE2EEC2I13RegistryEntryI20BVMechanicalMaterialESaIvEJRK17RegistryEntryDataEEERPT_St20_Sp_alloc_shared_tagIT0_EDpOT1_
FNDA:26,_ZNSt14__shared_countILN9__gnu_cxx12_Lock_policyE2EEC2I13RegistryEntryI27BVMaxwellViscoelasticUpdateESaIvEJRK17RegistryEntryDataEEERPT_St20_Sp_alloc_shared_tagIT0_EDpOT1_
FNDA:0,_ZNSt23_Sp_counted_ptr_inplaceI13RegistryEntryI24BVConstantFrictionUpdateESaIvELN9__gnu_cxx12_Lock_policyE2EED2Ev
FNDA:26,_ZNSt14__shared_countILN9__gnu_cxx12_Lock_policyE2EEC2I13RegistryEntryI16BVMisesStressAuxESaIvEJRK17RegistryEntryDataEEERPT_St20_Sp_alloc_shared_tagIT0_EDpOT1_
FNDA:26,_ZNSt14__shared_countILN9__gnu_cxx12_Lock_policyE2EEC2I13RegistryEntryI35BVFVSinglePhaseSoluteTimeDerivativeESaIvEJRK17RegistryEntryDataEEERPT_St20_Sp_alloc_shared_tagIT0_EDpOT1_
FNDA:0,_ZNSt23_Sp_counted_ptr_inplaceI13RegistryEntryI23BVPoroMechanicsMaterialESaIvELN9__gnu_cxx12_Lock_policyE2EED2Ev
FNDA:26,_ZNSt14__shared_countILN9__gnu_cxx12_Lock_policyE2EEC2I13RegistryEntryI23BVPoroMechanicsMaterialESaIvEJRK17RegistryEntryDataEEERPT_St20_Sp_alloc_shared_tagIT0_EDpOT1_
FNDA:0,_ZNSt23_Sp_counted_ptr_inplaceI13RegistryEntryI29BVMechanicalInterfaceMaterialESaIvELN9__gnu_cxx12_Lock_policyE2EED0Ev
FNDA:0,_ZNSt23_Sp_counted_ptr_inplaceI13RegistryEntryI21BVFaultShearStressAuxESaIvELN9__gnu_cxx12_Lock_policyE2EE10_M_destroyEv
FNDA:0,_ZNSt23_Sp_counted_ptr_inplaceI13RegistryEntryI16BVMisesStressAuxESaIvELN9__gnu_cxx12_Lock_policyE2EE10_M_destroyEv
FNDA:0,_ZNSt23_Sp_counted_ptr_inplaceI13RegistryEntryI19BVBurgerModelUpdateESaIvELN9__gnu_cxx12_Lock_policyE2EE14_M_get_deleterERKSt9type_info
FNDA:0,_ZNSt23_Sp_counted_ptr_inplaceI13RegistryEntryI14BVEqvStrainAuxESaIvELN9__gnu_cxx12_Lock_policyE2EE10_M_disposeEv
FNDA:0,_ZNSt23_Sp_counted_ptr_inplaceI13RegistryEntryI35BVFVSinglePhaseSoluteTimeDerivativeESaIvELN9__gnu_cxx12_Lock_policyE2EE14_M_get_deleterERKSt9type_info
FNDA:26,_ZNSt14__shared_countILN9__gnu_cxx12_Lock_policyE2EEC2I13RegistryEntryI36BVFVMultiPhasePressureTimeDerivativeESaIvEJRK17RegistryEntryDataEEERPT_St20_Sp_alloc_shared_tagIT0_EDpOT1_
FNDA:0,_ZNSt23_Sp_counted_ptr_inplaceI13RegistryEntryI20BVRTL2020ModelUpdateESaIvELN9__gnu_cxx12_Lock_policyE2EE14_M_get_deleterERKSt9type_info
FNDA:0,_ZNSt23_Sp_counted_ptr_inplaceI13RegistryEntryI26BVKelvinViscoelasticUpdateESaIvELN9__gnu_cxx12_Lock_policyE2EED0Ev
FNDA:0,_ZNSt23_Sp_counted_ptr_inplaceI13RegistryEntryI18BVConstantPorosityESaIvELN9__gnu_cxx12_Lock_policyE2EED0Ev
FNDA:0,_ZNSt23_Sp_counted_ptr_inplaceI13RegistryEntryI35BVFVSinglePhaseSoluteTimeDerivativeESaIvELN9__gnu_cxx12_Lock_policyE2EED2Ev
FNDA:0,_ZNSt16_Sp_counted_baseILN9__gnu_cxx12_Lock_policyE2EE24_M_release_last_use_coldEv
FNDA:0,_ZNSt23_Sp_counted_ptr_inplaceI13RegistryEntryI12BVPressureBCESaIvELN9__gnu_cxx12_Lock_policyE2EE14_M_get_deleterERKSt9type_info
FNDA:26,_ZNSt14__shared_countILN9__gnu_cxx12_Lock_policyE2EEC2I13RegistryEntryI14BVEqvStrainAuxESaIvEJRK17RegistryEntryDataEEERPT_St20_Sp_alloc_shared_tagIT0_EDpOT1_
FNDA:0,_ZNSt23_Sp_counted_ptr_inplaceI13RegistryEntryI12BVPressureBCESaIvELN9__gnu_cxx12_Lock_policyE2EED2Ev
FNDA:0,_ZNSt23_Sp_counted_ptr_inplaceI13RegistryEntryI16BVPressureActionESaIvELN9__gnu_cxx12_Lock_policyE2EE14_M_get_deleterERKSt9type_info
FNDA:0,_ZNSt23_Sp_counted_ptr_inplaceI13RegistryEntryI19BVBurgerModelUpdateESaIvELN9__gnu_cxx12_Lock_policyE2EE10_M_destroyEv
FNDA:0,_ZNSt23_Sp_counted_ptr_inplaceI13RegistryEntryI18BVConstantPorosityESaIvELN9__gnu_cxx12_Lock_policyE2EE10_M_disposeEv
FNDA:0,_ZNSt23_Sp_counted_ptr_inplaceI13RegistryEntryI18BVEqvStrainRateAuxESaIvELN9__gnu_cxx12_Lock_policyE2EED0Ev
FNDA:0,_ZNSt23_Sp_counted_ptr_inplaceI13RegistryEntryI25BVSinglePhaseFlowMaterialESaIvELN9__gnu_cxx12_Lock_policyE2EE14_M_get_deleterERKSt9type_info
FNDA:0,_ZNSt23_Sp_counted_ptr_inplaceI13RegistryEntryI26BVFVSinglePhaseSoluteDarcyESaIvELN9__gnu_cxx12_Lock_policyE2EE10_M_disposeEv
FNDA:0,_ZNSt23_Sp_counted_ptr_inplaceI13RegistryEntryI22BVConstantPermeabilityESaIvELN9__gnu_cxx12_Lock_policyE2EED0Ev
FNF:297
FNH:53
DA:129,1154
DA:130,1154
DA:143,0
DA:144,0
DA:151,1144
DA:152,1144
DA:172,0
DA:175,0
DA:187,0
DA:191,0
DA:193,0
DA:198,0
DA:199,0
DA:208,302
DA:212,604
DA:221,0
DA:223,302
DA:317,1481
DA:334,1481
DA:337,1481
DA:343,337
DA:346,337
DA:347,337
DA:348,337
DA:350,1144
DA:351,0
DA:353,0
DA:354,0
DA:455,0
DA:587,10
DA:599,1154
DA:600,1154
DA:606,10
DA:608,10
DA:611,10
DA:614,10
DA:618,10
DA:623,10
DA:631,0
DA:639,0
DA:641,0
DA:646,0
DA:908,910
DA:964,1154
DA:974,1154
DA:975,1154
DA:976,1154
DA:1070,2625
DA:1071,1481
DA:1074,1144
DA:1075,1144
DA:1077,1144
DA:1078,1144
DA:1099,920
DA:1100,910
DA:1101,920
DA:1166,302
DA:1167,302
DA:1528,1144
DA:1531,910
DA:1532,0
DA:1535,910
DA:1540,10
DA:1666,1196
DA:1711,1154
DA:1712,1154
LF:66
LH:47
end_of_record
TN:
SF:/usr/share/miniconda3/envs/moose/x86_64-conda-linux-gnu/include/c++/12.3.0/bits/std_abs.h
FNF:0
FNH:0
DA:56,0
DA:72,158434
LF:2
LH:1
end_of_record
TN:
SF:/usr/share/miniconda3/envs/moose/x86_64-conda-linux-gnu/include/c++/12.3.0/bits/std_function.h
FN:241,_ZNSt14_Function_baseD2Ev
FNDA:0,_ZNSt14_Function_baseD2Ev
FNF:1
FNH:0
DA:241,0
DA:243,0
DA:244,0
DA:245,0
DA:334,0
LF:5
LH:0
end_of_record
TN:
SF:/usr/share/miniconda3/envs/moose/x86_64-conda-linux-gnu/include/c++/12.3.0/bits/std_mutex.h
FN:98,_ZNSt5mutex4lockEv
FNDA:0,_ZNSt5mutex4lockEv
FNF:1
FNH:0
DA:98,0
DA:100,0
DA:103,0
DA:104,0
DA:105,0
DA:229,0
LF:6
LH:0
end_of_record
TN:
SF:/usr/share/miniconda3/envs/moose/x86_64-conda-linux-gnu/include/c++/12.3.0/bits/stl_algobase.h
FN:380,_ZNSt11__copy_moveILb0ELb0ESt26random_access_iterator_tagE8__copy_mIPK12MaterialNamePS3_EET0_T_S8_S7_
FN:380,_ZNSt11__copy_moveILb0ELb0ESt26random_access_iterator_tagE8__copy_mIPK12FunctionNamePS3_EET0_T_S8_S7_
FN:380,_ZNSt11__copy_moveILb0ELb0ESt26random_access_iterator_tagE8__copy_mIP12FunctionNameS4_EET0_T_S6_S5_
FN:380,_ZNSt11__copy_moveILb0ELb0ESt26random_access_iterator_tagE8__copy_mIP21NonlinearVariableNameS4_EET0_T_S6_S5_
FN:380,_ZNSt11__copy_moveILb0ELb0ESt26random_access_iterator_tagE8__copy_mIP12BoundaryNameS4_EET0_T_S6_S5_
FN:380,_ZNSt11__copy_moveILb0ELb0ESt26random_access_iterator_tagE8__copy_mIP12MaterialNameS4_EET0_T_S6_S5_
FN:380,_ZNSt11__copy_moveILb0ELb0ESt26random_access_iterator_tagE8__copy_mIPKNSt7__cxx1112basic_stringIcSt11char_traitsIcESaIcEEE22infix_ostream_iteratorIS8_cS6_EEET0_T_SE_SD_
FN:380,_ZNSt11__copy_moveILb0ELb0ESt26random_access_iterator_tagE8__copy_mIPK12BoundaryNamePS3_EET0_T_S8_S7_
FN:380,_ZNSt11__copy_moveILb0ELb0ESt26random_access_iterator_tagE8__copy_mIPK21NonlinearVariableNamePS3_EET0_T_S8_S7_
FN:521,_ZSt14__copy_move_a1ILb0EPKNSt7__cxx1112basic_stringIcSt11char_traitsIcESaIcEEE22infix_ostream_iteratorIS5_cS3_EET1_T0_SB_SA_
FN:527,_ZSt13__copy_move_aILb0EN9__gnu_cxx17__normal_iteratorIPKNSt7__cxx1112basic_stringIcSt11char_traitsIcESaIcEEESt6vectorIS7_SaIS7_EEEE22infix_ostream_iteratorIS7_cS5_EET1_T0_SH_SG_
FN:611,_ZSt4copyIPKdPdET0_T_S4_S3_
FN:611,_ZSt4copyIPKmPmET0_T_S4_S3_
FN:714,_ZNSt20__copy_move_backwardILb1ELb0ESt26random_access_iterator_tagE13__copy_move_bIPSt4pairIbN11MetaPhysicL10DualNumberIdNS4_28SemiDynamicSparseNumberArrayIdmNS4_8NWrapperILm64EEEEELb1EEEESC_EET0_T_SE_SD_
FN:883,_ZSt13move_backwardIPSt4pairIbdES2_ET0_T_S4_S3_
FN:906,_ZSt9__fill_a1IPSt4pairIbN11MetaPhysicL10DualNumberIdNS1_28SemiDynamicSparseNumberArrayIdmNS1_8NWrapperILm64EEEEELb1EEEES8_EN9__gnu_cxx11__enable_ifIXntsrSt11__is_scalarIT0_E7__valueEvE6__typeET_SH_RKSD_
FN:1282,_ZSt30__lexicographical_compare_implIPKmS1_N9__gnu_cxx5__ops15_Iter_less_iterEEbT_S5_T0_S6_T1_
FNDA:761,_ZSt30__lexicographical_compare_implIPKmS1_N9__gnu_cxx5__ops15_Iter_less_iterEEbT_S5_T0_S6_T1_
FNDA:0,_ZNSt11__copy_moveILb0ELb0ESt26random_access_iterator_tagE8__copy_mIP12BoundaryNameS4_EET0_T_S6_S5_
FNDA:0,_ZNSt11__copy_moveILb0ELb0ESt26random_access_iterator_tagE8__copy_mIP12MaterialNameS4_EET0_T_S6_S5_
FNDA:0,_ZNSt11__copy_moveILb0ELb0ESt26random_access_iterator_tagE8__copy_mIPKNSt7__cxx1112basic_stringIcSt11char_traitsIcESaIcEEE22infix_ostream_iteratorIS8_cS6_EEET0_T_SE_SD_
FNDA:0,_ZNSt11__copy_moveILb0ELb0ESt26random_access_iterator_tagE8__copy_mIPK12BoundaryNamePS3_EET0_T_S8_S7_
FNDA:0,_ZNSt11__copy_moveILb0ELb0ESt26random_access_iterator_tagE8__copy_mIPK21NonlinearVariableNamePS3_EET0_T_S8_S7_
FNDA:0,_ZSt13move_backwardIPSt4pairIbdES2_ET0_T_S4_S3_
FNDA:179357137,_ZSt4copyIPKdPdET0_T_S4_S3_
FNDA:0,_ZNSt20__copy_move_backwardILb1ELb0ESt26random_access_iterator_tagE13__copy_move_bIPSt4pairIbN11MetaPhysicL10DualNumberIdNS4_28SemiDynamicSparseNumberArrayIdmNS4_8NWrapperILm64EEEEELb1EEEESC_EET0_T_SE_SD_
FNDA:0,_ZSt13__copy_move_aILb0EN9__gnu_cxx17__normal_iteratorIPKNSt7__cxx1112basic_stringIcSt11char_traitsIcESaIcEEESt6vectorIS7_SaIS7_EEEE22infix_ostream_iteratorIS7_cS5_EET1_T0_SH_SG_
FNDA:0,_ZNSt11__copy_moveILb0ELb0ESt26random_access_iterator_tagE8__copy_mIPK12MaterialNamePS3_EET0_T_S8_S7_
FNDA:0,_ZSt14__copy_move_a1ILb0EPKNSt7__cxx1112basic_stringIcSt11char_traitsIcESaIcEEE22infix_ostream_iteratorIS5_cS3_EET1_T0_SB_SA_
FNDA:179357137,_ZSt4copyIPKmPmET0_T_S4_S3_
FNDA:196,_ZNSt11__copy_moveILb0ELb0ESt26random_access_iterator_tagE8__copy_mIPK12FunctionNamePS3_EET0_T_S8_S7_
FNDA:0,_ZNSt11__copy_moveILb0ELb0ESt26random_access_iterator_tagE8__copy_mIP12FunctionNameS4_EET0_T_S6_S5_
FNDA:0,_ZSt9__fill_a1IPSt4pairIbN11MetaPhysicL10DualNumberIdNS1_28SemiDynamicSparseNumberArrayIdmNS1_8NWrapperILm64EEEEELb1EEEES8_EN9__gnu_cxx11__enable_ifIXntsrSt11__is_scalarIT0_E7__valueEvE6__typeET_SH_RKSD_
FNDA:0,_ZNSt11__copy_moveILb0ELb0ESt26random_access_iterator_tagE8__copy_mIP21NonlinearVariableNameS4_EET0_T_S6_S5_
FNF:17
FNH:4
DA:235,1050
DA:236,168
DA:259,12
DA:260,12
DA:315,0
DA:336,0
DA:380,196
DA:383,196
DA:385,0
DA:386,0
DA:387,0
DA:389,196
DA:429,358714592
DA:430,476
DA:431,329956920
DA:432,358714592
DA:495,196
DA:521,0
DA:522,0
DA:527,0
DA:529,0
DA:532,0
DA:611,358714274
DA:620,358714274
DA:714,0
DA:717,0
DA:718,0
DA:719,0
DA:720,0
DA:760,0
DA:883,0
DA:894,0
DA:906,0
DA:909,0
DA:911,0
DA:920,20882
DA:921,89596
DA:922,68496
DA:968,0
DA:999,0
DA:1114,21100
DA:1119,21100
DA:1267,761
DA:1269,761
DA:1270,0
DA:1282,761
DA:1291,761
DA:1292,0
DA:1294,761
DA:1296,660
DA:1299,0
DA:1311,761
LF:52
LH:26
end_of_record
TN:
SF:/usr/share/miniconda3/envs/moose/x86_64-conda-linux-gnu/include/c++/12.3.0/bits/stl_construct.h
FN:109,_ZSt10_ConstructI9BeaverAppJRK15InputParametersEEvPT_DpOT0_
FN:160,_ZNSt12_Destroy_auxILb0EE9__destroyIPSt10shared_ptrI17RegistryEntryBaseEEEvT_S6_
FN:160,_ZNSt12_Destroy_auxILb0EE9__destroyIPSt10unique_ptrIN5Moose15FunctorEnvelopeIdEESt14default_deleteIS5_EEEEvT_SA_
FN:160,_ZNSt12_Destroy_auxILb0EE9__destroyIPSt3setIP18MooseVariableFieldIdESt4lessIS5_ESaIS5_EEEEvT_SB_
FN:160,_ZNSt12_Destroy_auxILb0EE9__destroyIP13MooseEnumItemEEvT_S4_
FN:160,_ZNSt12_Destroy_auxILb0EE9__destroyIPSt10unique_ptrIN5Moose15FunctorEnvelopeIN11MetaPhysicL10DualNumberIdNS5_28SemiDynamicSparseNumberArrayIdmNS5_8NWrapperILm64EEEEELb1EEEEESt14default_deleteISC_EEEEvT_SH_
FN:160,_ZNSt12_Destroy_auxILb0EE9__destroyIPSt5tupleIJNSt7__cxx1112basic_stringIcSt11char_traitsIcESaIcEEEN5Moose23RelationshipManagerTypeESt8functionIFvRK15InputParametersRSC_EEEEEEvT_SK_
FNDA:261,_ZNSt12_Destroy_auxILb0EE9__destroyIPSt10unique_ptrIN5Moose15FunctorEnvelopeIdEESt14default_deleteIS5_EEEEvT_SA_
FNDA:0,_ZSt10_ConstructI9BeaverAppJRK15InputParametersEEvPT_DpOT0_
FNDA:297,_ZNSt12_Destroy_auxILb0EE9__destroyIPSt3setIP18MooseVariableFieldIdESt4lessIS5_ESaIS5_EEEEvT_SB_
FNDA:26,_ZNSt12_Destroy_auxILb0EE9__destroyIPSt5tupleIJNSt7__cxx1112basic_stringIcSt11char_traitsIcESaIcEEEN5Moose23RelationshipManagerTypeESt8functionIFvRK15InputParametersRSC_EEEEEEvT_SK_
FNDA:20,_ZNSt12_Destroy_auxILb0EE9__destroyIP13MooseEnumItemEEvT_S4_
FNDA:261,_ZNSt12_Destroy_auxILb0EE9__destroyIPSt10unique_ptrIN5Moose15FunctorEnvelopeIN11MetaPhysicL10DualNumberIdNS5_28SemiDynamicSparseNumberArrayIdmNS5_8NWrapperILm64EEEEELb1EEEEESt14default_deleteISC_EEEEvT_SH_
FNDA:0,_ZNSt12_Destroy_auxILb0EE9__destroyIPSt10shared_ptrI17RegistryEntryBaseEEEvT_S6_
FNF:7
FNH:5
DA:109,0
DA:119,15901924
DA:120,2597376
DA:151,10
DA:160,865
DA:162,5039499
DA:164,865
DA:196,865
LF:8
LH:7
end_of_record
TN:
SF:/usr/share/miniconda3/envs/moose/x86_64-conda-linux-gnu/include/c++/12.3.0/bits/stl_function.h
FN:607,_ZNSt4lessIvE6_S_cmpIRKSt17basic_string_viewIcSt11char_traitsIcEERKNSt7__cxx1112basic_stringIcS4_SaIcEEEEEDcOT_OT0_St17integral_constantIbLb0EE
FN:607,_ZNSt4lessIvE6_S_cmpIRKNSt7__cxx1112basic_stringIcSt11char_traitsIcESaIcEEERKSt17basic_string_viewIcS5_EEEDcOT_OT0_St17integral_constantIbLb0EE
FNDA:154,_ZNSt4lessIvE6_S_cmpIRKSt17basic_string_viewIcSt11char_traitsIcEERKNSt7__cxx1112basic_stringIcS4_SaIcEEEEEDcOT_OT0_St17integral_constantIbLb0EE
FNDA:896,_ZNSt4lessIvE6_S_cmpIRKNSt7__cxx1112basic_stringIcSt11char_traitsIcESaIcEEERKSt17basic_string_viewIcS5_EEEDcOT_OT0_St17integral_constantIbLb0EE
FNF:2
FNH:2
DA:378,0
DA:408,50836
DA:593,1050
DA:607,1050
DA:608,1050
DA:1183,9515253
LF:6
LH:5
end_of_record
TN:
SF:/usr/share/miniconda3/envs/moose/x86_64-conda-linux-gnu/include/c++/12.3.0/bits/stl_iterator.h
FNF:0
FNH:0
DA:294,2429144704
DA:295,1214315280
DA:344,54587453
DA:367,54587453
DA:1073,6577324
DA:1079,0
DA:1090,0
DA:1107,5512192
DA:1108,6922349
DA:1154,6736
DA:1224,0
DA:1240,0
DA:1333,12
DA:1542,0
DA:1572,0
LF:15
LH:9
end_of_record
TN:
SF:/usr/share/miniconda3/envs/moose/x86_64-conda-linux-gnu/include/c++/12.3.0/bits/stl_iterator_base_funcs.h
FNF:0
FNH:0
DA:105,74311
LF:1
LH:1
end_of_record
TN:
SF:/usr/share/miniconda3/envs/moose/x86_64-conda-linux-gnu/include/c++/12.3.0/bits/stl_map.h
FN:502,_ZNSt3mapINSt7__cxx1112basic_stringIcSt11char_traitsIcESaIcEEESt10unique_ptrI23AppFactoryBuildInfoBaseSt14default_deleteIS7_EESt4lessIS5_ESaISt4pairIKS5_SA_EEEixERSE_
FN:502,_ZNSt3mapINSt7__cxx1112basic_stringIcSt11char_traitsIcESaIcEEESt10unique_ptrIN7libMesh10Parameters5ValueESt14default_deleteIS9_EESt4lessIvESaISt4pairIKS5_SC_EEEixERSG_
FN:502,_ZNSt3mapINSt7__cxx1112basic_stringIcSt11char_traitsIcESaIcEEESt6vectorISt10shared_ptrI17RegistryEntryBaseESaIS9_EESt4lessIS5_ESaISt4pairIKS5_SB_EEEixERSF_
FN:502,_ZNSt3mapINSt7__cxx1112basic_stringIcSt11char_traitsIcESaIcEEEN15InputParameters8MetadataESt4lessIS5_ESaISt4pairIKS5_S7_EEEixERSB_
FN:502,_ZNSt3mapIsSt3setImSt4lessImESaImEES1_IsESaISt4pairIKsS4_EEEixERS7_
FN:502,_ZNSt3mapIsSt3setISt6vectorImSaImEESt4lessIS3_ESaIS3_EES4_IsESaISt4pairIKsS7_EEEixERSA_
FN:502,_ZNSt3mapImSt6vectorImSaImEESt4lessImESaISt4pairIKmS2_EEEixERS6_
FN:522,_ZNSt3mapImSt6vectorImSaImEESt4lessImESaISt4pairIKmS2_EEEixEOm
FN:522,_ZNSt3mapINSt7__cxx1112basic_stringIcSt11char_traitsIcESaIcEEES5_St4lessIS5_ESaISt4pairIKS5_S5_EEEixEOS5_
FN:522,_ZNSt3mapImjSt4lessImESaISt4pairIKmjEEEixEOm
FN:721,_ZNSt3mapIN5Moose7FaceArgEN11MetaPhysicL10DualNumberIdNS2_28SemiDynamicSparseNumberArrayIdmNS2_8NWrapperILm64EEEEELb1EEESt4lessIS1_ESaISt4pairIKS1_S8_EEE11try_emplaceIJS8_EEESB_ISt17_Rb_tree_iteratorISD_EbERSC_DpOT_
FN:721,_ZNSt3mapIN5Moose7ElemArgEN11MetaPhysicL10DualNumberIdNS2_28SemiDynamicSparseNumberArrayIdmNS2_8NWrapperILm64EEEEELb1EEESt4lessIS1_ESaISt4pairIKS1_S8_EEE11try_emplaceIJS8_EEESB_ISt17_Rb_tree_iteratorISD_EbERSC_DpOT_
FN:721,_ZNSt3mapIN5Moose7ElemArgEdSt4lessIS1_ESaISt4pairIKS1_dEEE11try_emplaceIJdEEES4_ISt17_Rb_tree_iteratorIS6_EbERS5_DpOT_
FN:721,_ZNSt3mapIN5Moose7FaceArgEdSt4lessIS1_ESaISt4pairIKS1_dEEE11try_emplaceIJdEEES4_ISt17_Rb_tree_iteratorIS6_EbERS5_DpOT_
FN:1306,_ZNSt3mapINSt7__cxx1112basic_stringIcSt11char_traitsIcESaIcEEEN15InputParameters8MetadataESt4lessIS5_ESaISt4pairIKS5_S7_EEE11lower_boundERSB_
FN:1306,_ZNSt3mapINSt7__cxx1112basic_stringIcSt11char_traitsIcESaIcEEES5_St4lessIS5_ESaISt4pairIKS5_S5_EEE11lower_boundERS9_
FN:1306,_ZNSt3mapIN5Moose7FaceArgEdSt4lessIS1_ESaISt4pairIKS1_dEEE11lower_boundERS5_
FN:1306,_ZNSt3mapINSt7__cxx1112basic_stringIcSt11char_traitsIcESaIcEEESt10unique_ptrI23AppFactoryBuildInfoBaseSt14default_deleteIS7_EESt4lessIS5_ESaISt4pairIKS5_SA_EEE11lower_boundERSE_
FN:1306,_ZNSt3mapIN5Moose7ElemArgEdSt4lessIS1_ESaISt4pairIKS1_dEEE11lower_boundERS5_
FN:1306,_ZNSt3mapIN5Moose7FaceArgEN11MetaPhysicL10DualNumberIdNS2_28SemiDynamicSparseNumberArrayIdmNS2_8NWrapperILm64EEEEELb1EEESt4lessIS1_ESaISt4pairIKS1_S8_EEE11lower_boundERSC_
FN:1306,_ZNSt3mapINSt7__cxx1112basic_stringIcSt11char_traitsIcESaIcEEESt10unique_ptrIN7libMesh10Parameters5ValueESt14default_deleteIS9_EESt4lessIvESaISt4pairIKS5_SC_EEE11lower_boundERSG_
FN:1306,_ZNSt3mapINSt7__cxx1112basic_stringIcSt11char_traitsIcESaIcEEESt6vectorISt10shared_ptrI17RegistryEntryBaseESaIS9_EESt4lessIS5_ESaISt4pairIKS5_SB_EEE11lower_boundERSF_
FN:1306,_ZNSt3mapIN5Moose7ElemArgEN11MetaPhysicL10DualNumberIdNS2_28SemiDynamicSparseNumberArrayIdmNS2_8NWrapperILm64EEEEELb1EEESt4lessIS1_ESaISt4pairIKS1_S8_EEE11lower_boundERSC_
FNDA:1144,_ZNSt3mapINSt7__cxx1112basic_stringIcSt11char_traitsIcESaIcEEES5_St4lessIS5_ESaISt4pairIKS5_S5_EEE11lower_boundERS9_
FNDA:350,_ZNSt3mapINSt7__cxx1112basic_stringIcSt11char_traitsIcESaIcEEEN15InputParameters8MetadataESt4lessIS5_ESaISt4pairIKS5_S7_EEE11lower_boundERSB_
FNDA:154,_ZNSt3mapINSt7__cxx1112basic_stringIcSt11char_traitsIcESaIcEEESt10unique_ptrIN7libMesh10Parameters5ValueESt14default_deleteIS9_EESt4lessIvESaISt4pairIKS5_SC_EEEixERSG_
FNDA:0,_ZNSt3mapINSt7__cxx1112basic_stringIcSt11char_traitsIcESaIcEEESt10unique_ptrI23AppFactoryBuildInfoBaseSt14default_deleteIS7_EESt4lessIS5_ESaISt4pairIKS5_SA_EEEixERSE_
FNDA:350,_ZNSt3mapINSt7__cxx1112basic_stringIcSt11char_traitsIcESaIcEEEN15InputParameters8MetadataESt4lessIS5_ESaISt4pairIKS5_S7_EEEixERSB_
FNDA:0,_ZNSt3mapIN5Moose7FaceArgEN11MetaPhysicL10DualNumberIdNS2_28SemiDynamicSparseNumberArrayIdmNS2_8NWrapperILm64EEEEELb1EEESt4lessIS1_ESaISt4pairIKS1_S8_EEE11try_emplaceIJS8_EEESB_ISt17_Rb_tree_iteratorISD_EbERSC_DpOT_
FNDA:0,_ZNSt3mapIN5Moose7FaceArgEdSt4lessIS1_ESaISt4pairIKS1_dEEE11lower_boundERS5_
FNDA:1144,_ZNSt3mapINSt7__cxx1112basic_stringIcSt11char_traitsIcESaIcEEESt6vectorISt10shared_ptrI17RegistryEntryBaseESaIS9_EESt4lessIS5_ESaISt4pairIKS5_SB_EEEixERSF_
FNDA:0,_ZNSt3mapIN5Moose7FaceArgEN11MetaPhysicL10DualNumberIdNS2_28SemiDynamicSparseNumberArrayIdmNS2_8NWrapperILm64EEEEELb1EEESt4lessIS1_ESaISt4pairIKS1_S8_EEE11lower_boundERSC_
FNDA:0,_ZNSt3mapINSt7__cxx1112basic_stringIcSt11char_traitsIcESaIcEEESt10unique_ptrI23AppFactoryBuildInfoBaseSt14default_deleteIS7_EESt4lessIS5_ESaISt4pairIKS5_SA_EEE11lower_boundERSE_
FNDA:4628,_ZNSt3mapImSt6vectorImSaImEESt4lessImESaISt4pairIKmS2_EEEixEOm
FNDA:0,_ZNSt3mapIN5Moose7ElemArgEdSt4lessIS1_ESaISt4pairIKS1_dEEE11lower_boundERS5_
FNDA:154,_ZNSt3mapINSt7__cxx1112basic_stringIcSt11char_traitsIcESaIcEEESt10unique_ptrIN7libMesh10Parameters5ValueESt14default_deleteIS9_EESt4lessIvESaISt4pairIKS5_SC_EEE11lower_boundERSG_
FNDA:1144,_ZNSt3mapINSt7__cxx1112basic_stringIcSt11char_traitsIcESaIcEEESt6vectorISt10shared_ptrI17RegistryEntryBaseESaIS9_EESt4lessIS5_ESaISt4pairIKS5_SB_EEE11lower_boundERSF_
FNDA:0,_ZNSt3mapIN5Moose7ElemArgEN11MetaPhysicL10DualNumberIdNS2_28SemiDynamicSparseNumberArrayIdmNS2_8NWrapperILm64EEEEELb1EEESt4lessIS1_ESaISt4pairIKS1_S8_EEE11try_emplaceIJS8_EEESB_ISt17_Rb_tree_iteratorISD_EbERSC_DpOT_
FNDA:1144,_ZNSt3mapINSt7__cxx1112basic_stringIcSt11char_traitsIcESaIcEEES5_St4lessIS5_ESaISt4pairIKS5_S5_EEEixEOS5_
FNDA:0,_ZNSt3mapIN5Moose7ElemArgEdSt4lessIS1_ESaISt4pairIKS1_dEEE11try_emplaceIJdEEES4_ISt17_Rb_tree_iteratorIS6_EbERS5_DpOT_
FNDA:1816,_ZNSt3mapIsSt3setImSt4lessImESaImEES1_IsESaISt4pairIKsS4_EEEixERS7_
FNDA:0,_ZNSt3mapIN5Moose7FaceArgEdSt4lessIS1_ESaISt4pairIKS1_dEEE11try_emplaceIJdEEES4_ISt17_Rb_tree_iteratorIS6_EbERS5_DpOT_
FNDA:106,_ZNSt3mapImSt6vectorImSaImEESt4lessImESaISt4pairIKmS2_EEEixERS6_
FNDA:746,_ZNSt3mapImjSt4lessImESaISt4pairIKmjEEEixEOm
FNDA:0,_ZNSt3mapIN5Moose7ElemArgEN11MetaPhysicL10DualNumberIdNS2_28SemiDynamicSparseNumberArrayIdmNS2_8NWrapperILm64EEEEELb1EEESt4lessIS1_ESaISt4pairIKS1_S8_EEE11lower_boundERSC_
FNDA:106,_ZNSt3mapIsSt3setISt6vectorImSaImEESt4lessIS3_ESaIS3_EES4_IsESaISt4pairIKsS7_EEEixERSA_
FNF:23
FNH:13
DA:312,1565
DA:329,0
DA:502,3676
DA:507,1648
DA:509,3676
DA:511,399
DA:512,399
DA:513,399
DA:517,3676
DA:522,6518
DA:527,1144
DA:529,6518
DA:530,1706
DA:532,1706
DA:533,6518
DA:638,0
DA:721,0
DA:723,0
DA:724,0
DA:726,0
DA:730,0
DA:732,0
DA:1182,0
DA:1243,0
DA:1249,154
DA:1264,0
DA:1306,2792
DA:1307,2792
LF:28
LH:17
end_of_record
TN:
SF:/usr/share/miniconda3/envs/moose/x86_64-conda-linux-gnu/include/c++/12.3.0/bits/stl_multimap.h
FNF:0
FNH:0
DA:301,26
LF:1
LH:1
end_of_record
TN:
SF:/usr/share/miniconda3/envs/moose/x86_64-conda-linux-gnu/include/c++/12.3.0/bits/stl_pair.h
FN:195,_ZNSt4pairIK13MooseEnumItemNSt7__cxx1112basic_stringIcSt11char_traitsIcESaIcEEEEC2ERKS8_
FN:195,_ZNSt4pairIK13MooseEnumItemS0_EC2ERKS2_
FNDA:0,_ZNSt4pairIK13MooseEnumItemS0_EC2ERKS2_
FNDA:0,_ZNSt4pairIK13MooseEnumItemNSt7__cxx1112basic_stringIcSt11char_traitsIcESaIcEEEEC2ERKS8_
FNF:2
FNH:0
DA:185,1929
DA:195,0
DA:196,0
DA:535,217
DA:572,0
DA:573,0
DA:584,0
DA:585,0
DA:816,0
LF:9
LH:2
end_of_record
TN:
SF:/usr/share/miniconda3/envs/moose/x86_64-conda-linux-gnu/include/c++/12.3.0/bits/stl_set.h
FN:243,_ZNSt3setINSt7__cxx1112basic_stringIcSt11char_traitsIcESaIcEEESt4lessIS5_ESaIS5_EEC2ESt16initializer_listIS5_ERKS7_RKS8_
FN:281,_ZNSt3setIsSt4lessIsESaIsEED2Ev
FN:281,_ZNSt3setItSt4lessItESaItEED2Ev
FN:509,_ZNSt3setINSt7__cxx1112basic_stringIcSt11char_traitsIcESaIcEEESt4lessIS5_ESaIS5_EE6insertERKS5_
FN:509,_ZNSt3setISt6vectorImSaImEESt4lessIS2_ESaIS2_EE6insertERKS2_
FN:509,_ZNSt3setImSt4lessImESaImEE6insertERKm
FN:518,_ZNSt3setImSt4lessImESaImEE6insertEOm
FN:518,_ZNSt3setIsSt4lessIsESaIsEE6insertEOs
FNDA:5,_ZNSt3setIsSt4lessIsESaIsEE6insertEOs
FNDA:106,_ZNSt3setISt6vectorImSaImEESt4lessIS2_ESaIS2_EE6insertERKS2_
FNDA:1816,_ZNSt3setImSt4lessImESaImEE6insertERKm
FNDA:260,_ZNSt3setItSt4lessItESaItEED2Ev
FNDA:52,_ZNSt3setINSt7__cxx1112basic_stringIcSt11char_traitsIcESaIcEEESt4lessIS5_ESaIS5_EEC2ESt16initializer_listIS5_ERKS7_RKS8_
FNDA:260,_ZNSt3setIsSt4lessIsESaIsEED2Ev
FNDA:426,_ZNSt3setImSt4lessImESaImEE6insertEOm
FNDA:0,_ZNSt3setINSt7__cxx1112basic_stringIcSt11char_traitsIcESaIcEEESt4lessIS5_ESaIS5_EE6insertERKS5_
FNF:8
FNH:7
DA:223,10
DA:243,52
DA:246,52
DA:247,52
DA:281,3059
DA:298,0
DA:509,1922
DA:512,1922
DA:513,1922
DA:518,431
DA:521,431
DA:522,431
DA:749,2142
LF:13
LH:12
end_of_record
TN:
SF:/usr/share/miniconda3/envs/moose/x86_64-conda-linux-gnu/include/c++/12.3.0/bits/stl_tree.h
FN:445,_ZNSt8_Rb_treeI13MooseEnumItemSt4pairIKS0_NSt7__cxx1112basic_stringIcSt11char_traitsIcESaIcEEEESt10_Select1stIS9_ESt4lessIS0_ESaIS9_EE20_Reuse_or_alloc_nodeC2ERSF_
FN:445,_ZNSt8_Rb_treeI13MooseEnumItemS0_St9_IdentityIS0_ESt4lessIS0_ESaIS0_EE20_Reuse_or_alloc_nodeC2ERS6_
FN:445,_ZNSt8_Rb_treeI13MooseEnumItemSt4pairIKS0_S0_ESt10_Select1stIS3_ESt4lessIS0_ESaIS3_EE20_Reuse_or_alloc_nodeC2ERS9_
FN:468,_ZNSt8_Rb_treeI13MooseEnumItemSt4pairIKS0_NSt7__cxx1112basic_stringIcSt11char_traitsIcESaIcEEEESt10_Select1stIS9_ESt4lessIS0_ESaIS9_EE20_Reuse_or_alloc_nodeclIRKS9_EEPSt13_Rb_tree_nodeIS9_EOT_
FN:468,_ZNSt8_Rb_treeI13MooseEnumItemSt4pairIKS0_S0_ESt10_Select1stIS3_ESt4lessIS0_ESaIS3_EE20_Reuse_or_alloc_nodeclIRKS3_EEPSt13_Rb_tree_nodeIS3_EOT_
FN:468,_ZNSt8_Rb_treeI13MooseEnumItemS0_St9_IdentityIS0_ESt4lessIS0_ESaIS0_EE20_Reuse_or_alloc_nodeclIRKS0_EEPSt13_Rb_tree_nodeIS0_EOT_
FN:483,_ZNSt8_Rb_treeI13MooseEnumItemSt4pairIKS0_NSt7__cxx1112basic_stringIcSt11char_traitsIcESaIcEEEESt10_Select1stIS9_ESt4lessIS0_ESaIS9_EE20_Reuse_or_alloc_node10_M_extractEv
FN:483,_ZNSt8_Rb_treeI13MooseEnumItemS0_St9_IdentityIS0_ESt4lessIS0_ESaIS0_EE20_Reuse_or_alloc_node10_M_extractEv
FN:483,_ZNSt8_Rb_treeI13MooseEnumItemSt4pairIKS0_S0_ESt10_Select1stIS3_ESt4lessIS0_ESaIS3_EE20_Reuse_or_alloc_node10_M_extractEv
FN:592,_ZNSt8_Rb_treeI13MooseEnumItemSt4pairIKS0_NSt7__cxx1112basic_stringIcSt11char_traitsIcESaIcEEEESt10_Select1stIS9_ESt4lessIS0_ESaIS9_EE17_M_construct_nodeIJRKS9_EEEvPSt13_Rb_tree_nodeIS9_EDpOT_
FN:592,_ZNSt8_Rb_treeINSt7__cxx1112basic_stringIcSt11char_traitsIcESaIcEEESt4pairIKS5_St6vectorISt10shared_ptrI17RegistryEntryBaseESaISB_EEESt10_Select1stISE_ESt4lessIS5_ESaISE_EE17_M_construct_nodeIJRKSt21piecewise_construct_tSt5tupleIJRS7_EESP_IJEEEEEvPSt13_Rb_tree_nodeISE_EDpOT_
FN:592,_ZNSt8_Rb_treeINSt7__cxx1112basic_stringIcSt11char_traitsIcESaIcEEESt4pairIKS5_N15InputParameters8MetadataEESt10_Select1stISA_ESt4lessIS5_ESaISA_EE17_M_construct_nodeIJRKSt21piecewise_construct_tSt5tupleIJRS7_EESL_IJEEEEEvPSt13_Rb_tree_nodeISA_EDpOT_
FN:592,_ZNSt8_Rb_treeI13MooseEnumItemSt4pairIKS0_S0_ESt10_Select1stIS3_ESt4lessIS0_ESaIS3_EE17_M_construct_nodeIJRKS3_EEEvPSt13_Rb_tree_nodeIS3_EDpOT_
FN:592,_ZNSt8_Rb_treeI13MooseEnumItemS0_St9_IdentityIS0_ESt4lessIS0_ESaIS0_EE17_M_construct_nodeIJRKS0_EEEvPSt13_Rb_tree_nodeIS0_EDpOT_
FN:592,_ZNSt8_Rb_treeINSt7__cxx1112basic_stringIcSt11char_traitsIcESaIcEEESt4pairIKS5_St10unique_ptrI23AppFactoryBuildInfoBaseSt14default_deleteIS9_EEESt10_Select1stISD_ESt4lessIS5_ESaISD_EE17_M_construct_nodeIJRKSt21piecewise_construct_tSt5tupleIJRS7_EESO_IJEEEEEvPSt13_Rb_tree_nodeISD_EDpOT_
FN:592,_ZNSt8_Rb_treeISt6vectorImSaImEES2_St9_IdentityIS2_ESt4lessIS2_ESaIS2_EE17_M_construct_nodeIJRKS2_EEEvPSt13_Rb_tree_nodeIS2_EDpOT_
FN:592,_ZNSt8_Rb_treeINSt7__cxx1112basic_stringIcSt11char_traitsIcESaIcEEESt4pairIKS5_St10unique_ptrIN7libMesh10Parameters5ValueESt14default_deleteISB_EEESt10_Select1stISF_ESt4lessIvESaISF_EE17_M_construct_nodeIJRKSt21piecewise_construct_tSt5tupleIJRS7_EESQ_IJEEEEEvPSt13_Rb_tree_nodeISF_EDpOT_
FN:592,_ZNSt8_Rb_treeINSt7__cxx1112basic_stringIcSt11char_traitsIcESaIcEEES5_St9_IdentityIS5_ESt4lessIS5_ESaIS5_EE17_M_construct_nodeIJRKS5_EEEvPSt13_Rb_tree_nodeIS5_EDpOT_
FN:611,_ZNSt8_Rb_treeINSt7__cxx1112basic_stringIcSt11char_traitsIcESaIcEEESt4pairIKS5_St6vectorISt10shared_ptrI17RegistryEntryBaseESaISB_EEESt10_Select1stISE_ESt4lessIS5_ESaISE_EE14_M_create_nodeIJRKSt21piecewise_construct_tSt5tupleIJRS7_EESP_IJEEEEEPSt13_Rb_tree_nodeISE_EDpOT_
FN:611,_ZNSt8_Rb_treeIN5Moose7ElemArgESt4pairIKS1_N11MetaPhysicL10DualNumberIdNS4_28SemiDynamicSparseNumberArrayIdmNS4_8NWrapperILm64EEEEELb1EEEESt10_Select1stISB_ESt4lessIS1_ESaISB_EE14_M_create_nodeIJRKSt21piecewise_construct_tSt5tupleIJRS3_EESM_IJOSA_EEEEEPSt13_Rb_tree_nodeISB_EDpOT_
FN:611,_ZNSt8_Rb_treeIN5Moose7ElemArgESt4pairIKS1_dESt10_Select1stIS4_ESt4lessIS1_ESaIS4_EE14_M_create_nodeIJRKSt21piecewise_construct_tSt5tupleIJRS3_EESF_IJOdEEEEEPSt13_Rb_tree_nodeIS4_EDpOT_
FN:611,_ZNSt8_Rb_treeIN5Moose7FaceArgESt4pairIKS1_dESt10_Select1stIS4_ESt4lessIS1_ESaIS4_EE14_M_create_nodeIJRKSt21piecewise_construct_tSt5tupleIJRS3_EESF_IJOdEEEEEPSt13_Rb_tree_nodeIS4_EDpOT_
FN:611,_ZNSt8_Rb_treeI13MooseEnumItemS0_St9_IdentityIS0_ESt4lessIS0_ESaIS0_EE14_M_create_nodeIJRKS0_EEEPSt13_Rb_tree_nodeIS0_EDpOT_
FN:611,_ZNSt8_Rb_treeINSt7__cxx1112basic_stringIcSt11char_traitsIcESaIcEEESt4pairIKS5_N15InputParameters8MetadataEESt10_Select1stISA_ESt4lessIS5_ESaISA_EE14_M_create_nodeIJRKSt21piecewise_construct_tSt5tupleIJRS7_EESL_IJEEEEEPSt13_Rb_tree_nodeISA_EDpOT_
FN:611,_ZNSt8_Rb_treeINSt7__cxx1112basic_stringIcSt11char_traitsIcESaIcEEESt4pairIKS5_St10unique_ptrIN7libMesh10Parameters5ValueESt14default_deleteISB_EEESt10_Select1stISF_ESt4lessIvESaISF_EE14_M_create_nodeIJRKSt21piecewise_construct_tSt5tupleIJRS7_EESQ_IJEEEEEPSt13_Rb_tree_nodeISF_EDpOT_
FN:611,_ZNSt8_Rb_treeImSt4pairIKmSt6vectorImSaImEEESt10_Select1stIS5_ESt4lessImESaIS5_EE14_M_create_nodeIJRKSt21piecewise_construct_tSt5tupleIJRS1_EESG_IJEEEEEPSt13_Rb_tree_nodeIS5_EDpOT_
FN:611,_ZNSt8_Rb_treeIN5Moose7FaceArgESt4pairIKS1_N11MetaPhysicL10DualNumberIdNS4_28SemiDynamicSparseNumberArrayIdmNS4_8NWrapperILm64EEEEELb1EEEESt10_Select1stISB_ESt4lessIS1_ESaISB_EE14_M_create_nodeIJRKSt21piecewise_construct_tSt5tupleIJRS3_EESM_IJOSA_EEEEEPSt13_Rb_tree_nodeISB_EDpOT_
FN:611,_ZNSt8_Rb_treeI13MooseEnumItemSt4pairIKS0_NSt7__cxx1112basic_stringIcSt11char_traitsIcESaIcEEEESt10_Select1stIS9_ESt4lessIS0_ESaIS9_EE14_M_create_nodeIJRKS9_EEEPSt13_Rb_tree_nodeIS9_EDpOT_
FN:611,_ZNSt8_Rb_treeImSt4pairIKmSt6vectorImSaImEEESt10_Select1stIS5_ESt4lessImESaIS5_EE14_M_create_nodeIJRKSt21piecewise_construct_tSt5tupleIJOmEESG_IJEEEEEPSt13_Rb_tree_nodeIS5_EDpOT_
FN:611,_ZNSt8_Rb_treeIsSt4pairIKsSt3setImSt4lessImESaImEEESt10_Select1stIS7_ES3_IsESaIS7_EE14_M_create_nodeIJRKSt21piecewise_construct_tSt5tupleIJRS1_EESH_IJEEEEEPSt13_Rb_tree_nodeIS7_EDpOT_
FN:611,_ZNSt8_Rb_treeISt6vectorImSaImEES2_St9_IdentityIS2_ESt4lessIS2_ESaIS2_EE14_M_create_nodeIJRKS2_EEEPSt13_Rb_tree_nodeIS2_EDpOT_
FN:611,_ZNSt8_Rb_treeI13MooseEnumItemSt4pairIKS0_S0_ESt10_Select1stIS3_ESt4lessIS0_ESaIS3_EE14_M_create_nodeIJRKS3_EEEPSt13_Rb_tree_nodeIS3_EDpOT_
FN:611,_ZNSt8_Rb_treeINSt7__cxx1112basic_stringIcSt11char_traitsIcESaIcEEESt4pairIKS5_St10unique_ptrI23AppFactoryBuildInfoBaseSt14default_deleteIS9_EEESt10_Select1stISD_ESt4lessIS5_ESaISD_EE14_M_create_nodeIJRKSt21piecewise_construct_tSt5tupleIJRS7_EESO_IJEEEEEPSt13_Rb_tree_nodeISD_EDpOT_
FN:611,_ZNSt8_Rb_treeINSt7__cxx1112basic_stringIcSt11char_traitsIcESaIcEEES5_St9_IdentityIS5_ESt4lessIS5_ESaIS5_EE14_M_create_nodeIJRKS5_EEEPSt13_Rb_tree_nodeIS5_EDpOT_
FN:611,_ZNSt8_Rb_treeINSt7__cxx1112basic_stringIcSt11char_traitsIcESaIcEEESt4pairIKS5_S5_ESt10_Select1stIS8_ESt4lessIS5_ESaIS8_EE14_M_create_nodeIJRKSt21piecewise_construct_tSt5tupleIJOS5_EESJ_IJEEEEEPSt13_Rb_tree_nodeIS8_EDpOT_
FN:611,_ZNSt8_Rb_treeIsSt4pairIKsSt3setISt6vectorImSaImEESt4lessIS5_ESaIS5_EEESt10_Select1stISA_ES6_IsESaISA_EE14_M_create_nodeIJRKSt21piecewise_construct_tSt5tupleIJRS1_EESK_IJEEEEEPSt13_Rb_tree_nodeISA_EDpOT_
FN:631,_ZNSt8_Rb_treeINSt7__cxx1112basic_stringIcSt11char_traitsIcESaIcEEESt4pairIKS5_St10unique_ptrIN7libMesh10Parameters5ValueESt14default_deleteISB_EEESt10_Select1stISF_ESt4lessIvESaISF_EE12_M_drop_nodeEPSt13_Rb_tree_nodeISF_E
FN:631,_ZNSt8_Rb_treeIsSt4pairIKsSt3setISt6vectorImSaImEESt4lessIS5_ESaIS5_EEESt10_Select1stISA_ES6_IsESaISA_EE12_M_drop_nodeEPSt13_Rb_tree_nodeISA_E
FN:631,_ZNSt8_Rb_treeINSt7__cxx1112basic_stringIcSt11char_traitsIcESaIcEEESt4pairIKS5_St10unique_ptrI23AppFactoryBuildInfoBaseSt14default_deleteIS9_EEESt10_Select1stISD_ESt4lessIS5_ESaISD_EE12_M_drop_nodeEPSt13_Rb_tree_nodeISD_E
FN:631,_ZNSt8_Rb_treeINSt7__cxx1112basic_stringIcSt11char_traitsIcESaIcEEESt4pairIKS5_St6vectorISt10shared_ptrI17RegistryEntryBaseESaISB_EEESt10_Select1stISE_ESt4lessIS5_ESaISE_EE12_M_drop_nodeEPSt13_Rb_tree_nodeISE_E
FN:631,_ZNSt8_Rb_treeINSt7__cxx1112basic_stringIcSt11char_traitsIcESaIcEEESt4pairIKS5_N15InputParameters8MetadataEESt10_Select1stISA_ESt4lessIS5_ESaISA_EE12_M_drop_nodeEPSt13_Rb_tree_nodeISA_E
FN:631,_ZNSt8_Rb_treeI17PostprocessorNameSt4pairIKS0_St10unique_ptrIdSt14default_deleteIdEEESt10_Select1stIS7_ESt4lessIS0_ESaIS7_EE12_M_drop_nodeEPSt13_Rb_tree_nodeIS7_E
FN:631,_ZNSt8_Rb_treeIsSt4pairIKsSt3setImSt4lessImESaImEEESt10_Select1stIS7_ES3_IsESaIS7_EE12_M_drop_nodeEPSt13_Rb_tree_nodeIS7_E
FN:631,_ZNSt8_Rb_treeI13MooseEnumItemS0_St9_IdentityIS0_ESt4lessIS0_ESaIS0_EE12_M_drop_nodeEPSt13_Rb_tree_nodeIS0_E
FN:631,_ZNSt8_Rb_treeINSt7__cxx1112basic_stringIcSt11char_traitsIcESaIcEEESt4pairIKS5_S5_ESt10_Select1stIS8_ESt4lessIS5_ESaIS8_EE12_M_drop_nodeEPSt13_Rb_tree_nodeIS8_E
FN:639,_ZNSt8_Rb_treeImmSt9_IdentityImESt4lessImESaImEE13_M_clone_nodeILb0ENS5_11_Alloc_nodeEEEPSt13_Rb_tree_nodeImESA_RT0_
FN:889,_ZNSt8_Rb_treeI13MooseEnumItemSt4pairIKS0_NSt7__cxx1112basic_stringIcSt11char_traitsIcESaIcEEEESt10_Select1stIS9_ESt4lessIS0_ESaIS9_EE7_M_copyILb0ENSF_20_Reuse_or_alloc_nodeEEEPSt13_Rb_tree_nodeIS9_ERKSF_RT0_
FN:889,_ZNSt8_Rb_treeImmSt9_IdentityImESt4lessImESaImEE7_M_copyILb0ENS5_11_Alloc_nodeEEEPSt13_Rb_tree_nodeImERKS5_RT0_
FN:889,_ZNSt8_Rb_treeI13MooseEnumItemS0_St9_IdentityIS0_ESt4lessIS0_ESaIS0_EE7_M_copyILb0ENS6_20_Reuse_or_alloc_nodeEEEPSt13_Rb_tree_nodeIS0_ERKS6_RT0_
FN:889,_ZNSt8_Rb_treeISt6vectorImSaImEES2_St9_IdentityIS2_ESt4lessIS2_ESaIS2_EE7_M_copyILb0ENS8_11_Alloc_nodeEEEPSt13_Rb_tree_nodeIS2_ERKS8_RT0_
FN:889,_ZNSt8_Rb_treeI13MooseEnumItemSt4pairIKS0_S0_ESt10_Select1stIS3_ESt4lessIS0_ESaIS3_EE7_M_copyILb0ENS9_20_Reuse_or_alloc_nodeEEEPSt13_Rb_tree_nodeIS3_ERKS9_RT0_
FN:937,_ZNSt8_Rb_treeImmSt9_IdentityImESt4lessImESaImEEC2ERKS5_
FN:937,_ZNSt8_Rb_treeISt6vectorImSaImEES2_St9_IdentityIS2_ESt4lessIS2_ESaIS2_EEC2ERKS8_
FN:1100,_ZNSt8_Rb_treeINSt7__cxx1112basic_stringIcSt11char_traitsIcESaIcEEES5_St9_IdentityIS5_ESt4lessIS5_ESaIS5_EE22_M_insert_range_uniqueIPKS5_EENSt9enable_ifIXsrSt7is_sameIS5_NSt15iterator_traitsIT_E10value_typeEE5valueEvE4typeESI_SI_
FN:1254,_ZNSt8_Rb_treeIN5Moose7NodeArgESt4pairIKS1_dESt10_Select1stIS4_ESt4lessIS1_ESaIS4_EE5clearEv
FN:1254,_ZNSt8_Rb_treeIN5Moose7ElemArgESt4pairIKS1_dESt10_Select1stIS4_ESt4lessIS1_ESaIS4_EE5clearEv
FN:1254,_ZNSt8_Rb_treeIN5Moose7FaceArgESt4pairIKS1_dESt10_Select1stIS4_ESt4lessIS1_ESaIS4_EE5clearEv
FN:1254,_ZNSt8_Rb_treeIN5Moose7ElemArgESt4pairIKS1_N11MetaPhysicL10DualNumberIdNS4_28SemiDynamicSparseNumberArrayIdmNS4_8NWrapperILm64EEEEELb1EEEESt10_Select1stISB_ESt4lessIS1_ESaISB_EE5clearEv
FN:1254,_ZNSt8_Rb_treeIN5Moose7NodeArgESt4pairIKS1_N11MetaPhysicL10DualNumberIdNS4_28SemiDynamicSparseNumberArrayIdmNS4_8NWrapperILm64EEEEELb1EEEESt10_Select1stISB_ESt4lessIS1_ESaISB_EE5clearEv
FN:1254,_ZNSt8_Rb_treeIN5Moose7FaceArgESt4pairIKS1_N11MetaPhysicL10DualNumberIdNS4_28SemiDynamicSparseNumberArrayIdmNS4_8NWrapperILm64EEEEELb1EEEESt10_Select1stISB_ESt4lessIS1_ESaISB_EE5clearEv
FN:1254,_ZNSt8_Rb_treeINSt7__cxx1112basic_stringIcSt11char_traitsIcESaIcEEESt4pairIKS5_St10unique_ptrIN7libMesh10Parameters5ValueESt14default_deleteISB_EEESt10_Select1stISF_ESt4lessIvESaISF_EE5clearEv
FN:1305,_ZNKSt8_Rb_treeINSt7__cxx1112basic_stringIcSt11char_traitsIcESaIcEEESt4pairIKS5_St10unique_ptrIN7libMesh10Parameters5ValueESt14default_deleteISB_EEESt10_Select1stISF_ESt4lessIvESaISF_EE10_M_find_trISt17basic_string_viewIcS3_EvEESt23_Rb_tree_const_iteratorISF_ERKT_
FN:1334,_ZNKSt8_Rb_treeINSt7__cxx1112basic_stringIcSt11char_traitsIcESaIcEEESt4pairIKS5_St10unique_ptrIN7libMesh10Parameters5ValueESt14default_deleteISB_EEESt10_Select1stISF_ESt4lessIvESaISF_EE17_M_lower_bound_trISt17basic_string_viewIcS3_EvEESt23_Rb_tree_const_iteratorISF_ERKT_
FN:1636,_ZNSt8_Rb_treeImSt4pairIKmjESt10_Select1stIS2_ESt4lessImESaIS2_EE10_Auto_nodeC2IJRKSt21piecewise_construct_tSt5tupleIJOmEESE_IJEEEEERS8_DpOT_
FN:1641,_ZNSt8_Rb_treeIN5Moose7ElemArgESt4pairIKS1_N11MetaPhysicL10DualNumberIdNS4_28SemiDynamicSparseNumberArrayIdmNS4_8NWrapperILm64EEEEELb1EEEESt10_Select1stISB_ESt4lessIS1_ESaISB_EE10_Auto_nodeD2Ev
FN:1641,_ZNSt8_Rb_treeIN5Moose7ElemArgESt4pairIKS1_dESt10_Select1stIS4_ESt4lessIS1_ESaIS4_EE10_Auto_nodeD2Ev
FN:1641,_ZNSt8_Rb_treeINSt7__cxx1112basic_stringIcSt11char_traitsIcESaIcEEESt4pairIKS5_S5_ESt10_Select1stIS8_ESt4lessIS5_ESaIS8_EE10_Auto_nodeD2Ev
FN:1641,_ZNSt8_Rb_treeImSt4pairIKmjESt10_Select1stIS2_ESt4lessImESaIS2_EE10_Auto_nodeD2Ev
FN:1641,_ZNSt8_Rb_treeImSt4pairIKmSt6vectorImSaImEEESt10_Select1stIS5_ESt4lessImESaIS5_EE10_Auto_nodeD2Ev
FN:1641,_ZNSt8_Rb_treeIN5Moose7FaceArgESt4pairIKS1_dESt10_Select1stIS4_ESt4lessIS1_ESaIS4_EE10_Auto_nodeD2Ev
FN:1641,_ZNSt8_Rb_treeIN5Moose7FaceArgESt4pairIKS1_N11MetaPhysicL10DualNumberIdNS4_28SemiDynamicSparseNumberArrayIdmNS4_8NWrapperILm64EEEEELb1EEEESt10_Select1stISB_ESt4lessIS1_ESaISB_EE10_Auto_nodeD2Ev
FN:1641,_ZNSt8_Rb_treeIsSt4pairIKsSt3setImSt4lessImESaImEEESt10_Select1stIS7_ES3_IsESaIS7_EE10_Auto_nodeD2Ev
FN:1641,_ZNSt8_Rb_treeINSt7__cxx1112basic_stringIcSt11char_traitsIcESaIcEEESt4pairIKS5_N15InputParameters8MetadataEESt10_Select1stISA_ESt4lessIS5_ESaISA_EE10_Auto_nodeD2Ev
FN:1641,_ZNSt8_Rb_treeINSt7__cxx1112basic_stringIcSt11char_traitsIcESaIcEEESt4pairIKS5_St10unique_ptrI23AppFactoryBuildInfoBaseSt14default_deleteIS9_EEESt10_Select1stISD_ESt4lessIS5_ESaISD_EE10_Auto_nodeD2Ev
FN:1641,_ZNSt8_Rb_treeINSt7__cxx1112basic_stringIcSt11char_traitsIcESaIcEEESt4pairIKS5_St10unique_ptrIN7libMesh10Parameters5ValueESt14default_deleteISB_EEESt10_Select1stISF_ESt4lessIvESaISF_EE10_Auto_nodeD2Ev
FN:1641,_ZNSt8_Rb_treeINSt7__cxx1112basic_stringIcSt11char_traitsIcESaIcEEESt4pairIKS5_St6vectorISt10shared_ptrI17RegistryEntryBaseESaISB_EEESt10_Select1stISE_ESt4lessIS5_ESaISE_EE10_Auto_nodeD2Ev
FN:1641,_ZNSt8_Rb_treeIsSt4pairIKsSt3setISt6vectorImSaImEESt4lessIS5_ESaIS5_EEESt10_Select1stISA_ES6_IsESaISA_EE10_Auto_nodeD2Ev
FN:1656,_ZNSt8_Rb_treeIN5Moose7ElemArgESt4pairIKS1_N11MetaPhysicL10DualNumberIdNS4_28SemiDynamicSparseNumberArrayIdmNS4_8NWrapperILm64EEEEELb1EEEESt10_Select1stISB_ESt4lessIS1_ESaISB_EE10_Auto_node9_M_insertES2_IPSt18_Rb_tree_node_baseSK_E
FN:1656,_ZNSt8_Rb_treeIN5Moose7ElemArgESt4pairIKS1_dESt10_Select1stIS4_ESt4lessIS1_ESaIS4_EE10_Auto_node9_M_insertES2_IPSt18_Rb_tree_node_baseSD_E
FN:1656,_ZNSt8_Rb_treeImSt4pairIKmjESt10_Select1stIS2_ESt4lessImESaIS2_EE10_Auto_node9_M_insertES0_IPSt18_Rb_tree_node_baseSB_E
FN:1656,_ZNSt8_Rb_treeINSt7__cxx1112basic_stringIcSt11char_traitsIcESaIcEEESt4pairIKS5_St10unique_ptrIN7libMesh10Parameters5ValueESt14default_deleteISB_EEESt10_Select1stISF_ESt4lessIvESaISF_EE10_Auto_node9_M_insertES6_IPSt18_Rb_tree_node_baseSO_E
FN:1656,_ZNSt8_Rb_treeIN5Moose7FaceArgESt4pairIKS1_N11MetaPhysicL10DualNumberIdNS4_28SemiDynamicSparseNumberArrayIdmNS4_8NWrapperILm64EEEEELb1EEEESt10_Select1stISB_ESt4lessIS1_ESaISB_EE10_Auto_node9_M_insertES2_IPSt18_Rb_tree_node_baseSK_E
FN:1656,_ZNSt8_Rb_treeINSt7__cxx1112basic_stringIcSt11char_traitsIcESaIcEEESt4pairIKS5_St10unique_ptrI23AppFactoryBuildInfoBaseSt14default_deleteIS9_EEESt10_Select1stISD_ESt4lessIS5_ESaISD_EE10_Auto_node9_M_insertES6_IPSt18_Rb_tree_node_baseSM_E
FN:1656,_ZNSt8_Rb_treeImSt4pairIKmSt6vectorImSaImEEESt10_Select1stIS5_ESt4lessImESaIS5_EE10_Auto_node9_M_insertES0_IPSt18_Rb_tree_node_baseSE_E
FN:1656,_ZNSt8_Rb_treeINSt7__cxx1112basic_stringIcSt11char_traitsIcESaIcEEESt4pairIKS5_N15InputParameters8MetadataEESt10_Select1stISA_ESt4lessIS5_ESaISA_EE10_Auto_node9_M_insertES6_IPSt18_Rb_tree_node_baseSJ_E
FN:1656,_ZNSt8_Rb_treeIsSt4pairIKsSt3setISt6vectorImSaImEESt4lessIS5_ESaIS5_EEESt10_Select1stISA_ES6_IsESaISA_EE10_Auto_node9_M_insertES0_IPSt18_Rb_tree_node_baseSI_E
FN:1656,_ZNSt8_Rb_treeIN5Moose7FaceArgESt4pairIKS1_dESt10_Select1stIS4_ESt4lessIS1_ESaIS4_EE10_Auto_node9_M_insertES2_IPSt18_Rb_tree_node_baseSD_E
FN:1656,_ZNSt8_Rb_treeIsSt4pairIKsSt3setImSt4lessImESaImEEESt10_Select1stIS7_ES3_IsESaIS7_EE10_Auto_node9_M_insertES0_IPSt18_Rb_tree_node_baseSF_E
FN:1656,_ZNSt8_Rb_treeINSt7__cxx1112basic_stringIcSt11char_traitsIcESaIcEEESt4pairIKS5_St6vectorISt10shared_ptrI17RegistryEntryBaseESaISB_EEESt10_Select1stISE_ESt4lessIS5_ESaISE_EE10_Auto_node9_M_insertES6_IPSt18_Rb_tree_node_baseSN_E
FN:1656,_ZNSt8_Rb_treeINSt7__cxx1112basic_stringIcSt11char_traitsIcESaIcEEESt4pairIKS5_S5_ESt10_Select1stIS8_ESt4lessIS5_ESaIS8_EE10_Auto_node9_M_insertES6_IPSt18_Rb_tree_node_baseSH_E
FN:1779,_ZNSt8_Rb_treeI13MooseEnumItemSt4pairIKS0_NSt7__cxx1112basic_stringIcSt11char_traitsIcESaIcEEEESt10_Select1stIS9_ESt4lessIS0_ESaIS9_EEaSERKSF_
FN:1779,_ZNSt8_Rb_treeI13MooseEnumItemS0_St9_IdentityIS0_ESt4lessIS0_ESaIS0_EEaSERKS6_
FN:1779,_ZNSt8_Rb_treeI13MooseEnumItemSt4pairIKS0_S0_ESt10_Select1stIS3_ESt4lessIS0_ESaIS3_EEaSERKS9_
FN:1819,_ZNSt8_Rb_treeIssSt9_IdentityIsESt4lessIsESaIsEE10_M_insert_IsNS5_11_Alloc_nodeEEESt17_Rb_tree_iteratorIsEPSt18_Rb_tree_node_baseSB_OT_RT0_
FN:1819,_ZNSt8_Rb_treeISt6vectorImSaImEES2_St9_IdentityIS2_ESt4lessIS2_ESaIS2_EE10_M_insert_IRKS2_NS8_11_Alloc_nodeEEESt17_Rb_tree_iteratorIS2_EPSt18_Rb_tree_node_baseSG_OT_RT0_
FN:1819,_ZNSt8_Rb_treeImmSt9_IdentityImESt4lessImESaImEE10_M_insert_IRKmNS5_11_Alloc_nodeEEESt17_Rb_tree_iteratorImEPSt18_Rb_tree_node_baseSD_OT_RT0_
FN:1819,_ZNSt8_Rb_treeINSt7__cxx1112basic_stringIcSt11char_traitsIcESaIcEEES5_St9_IdentityIS5_ESt4lessIS5_ESaIS5_EE10_M_insert_IRKS5_NSB_11_Alloc_nodeEEESt17_Rb_tree_iteratorIS5_EPSt18_Rb_tree_node_baseSJ_OT_RT0_
FN:1819,_ZNSt8_Rb_treeImmSt9_IdentityImESt4lessImESaImEE10_M_insert_ImNS5_11_Alloc_nodeEEESt17_Rb_tree_iteratorImEPSt18_Rb_tree_node_baseSB_OT_RT0_
FN:1893,_ZNSt8_Rb_treeI13MooseEnumItemS0_St9_IdentityIS0_ESt4lessIS0_ESaIS0_EE7_M_copyILb0ENS6_20_Reuse_or_alloc_nodeEEEPSt13_Rb_tree_nodeIS0_ESB_PSt18_Rb_tree_node_baseRT0_
FN:1893,_ZNSt8_Rb_treeI13MooseEnumItemSt4pairIKS0_NSt7__cxx1112basic_stringIcSt11char_traitsIcESaIcEEEESt10_Select1stIS9_ESt4lessIS0_ESaIS9_EE7_M_copyILb0ENSF_20_Reuse_or_alloc_nodeEEEPSt13_Rb_tree_nodeIS9_ESK_PSt18_Rb_tree_node_baseRT0_
FN:1893,_ZNSt8_Rb_treeI13MooseEnumItemSt4pairIKS0_S0_ESt10_Select1stIS3_ESt4lessIS0_ESaIS3_EE7_M_copyILb0ENS9_20_Reuse_or_alloc_nodeEEEPSt13_Rb_tree_nodeIS3_ESE_PSt18_Rb_tree_node_baseRT0_
FN:1893,_ZNSt8_Rb_treeImmSt9_IdentityImESt4lessImESaImEE7_M_copyILb0ENS5_11_Alloc_nodeEEEPSt13_Rb_tree_nodeImESA_PSt18_Rb_tree_node_baseRT0_
FN:1893,_ZNSt8_Rb_treeISt6vectorImSaImEES2_St9_IdentityIS2_ESt4lessIS2_ESaIS2_EE7_M_copyILb0ENS8_11_Alloc_nodeEEEPSt13_Rb_tree_nodeIS2_ESD_PSt18_Rb_tree_node_baseRT0_
FN:1931,_ZNSt8_Rb_treeIN5Moose7ElemArgESt4pairIKS1_N11MetaPhysicL10DualNumberIdNS4_28SemiDynamicSparseNumberArrayIdmNS4_8NWrapperILm64EEEEELb1EEEESt10_Select1stISB_ESt4lessIS1_ESaISB_EE8_M_eraseEPSt13_Rb_tree_nodeISB_E
FN:1931,_ZNSt8_Rb_treeIN5Moose7FaceArgESt4pairIKS1_dESt10_Select1stIS4_ESt4lessIS1_ESaIS4_EE8_M_eraseEPSt13_Rb_tree_nodeIS4_E
FN:1931,_ZNSt8_Rb_treeI10OutputNameS0_St9_IdentityIS0_ESt4lessIS0_ESaIS0_EE8_M_eraseEPSt13_Rb_tree_nodeIS0_E
FN:1931,_ZNSt8_Rb_treeI17MeshGeneratorNameS0_St9_IdentityIS0_ESt4lessIS0_ESaIS0_EE8_M_eraseEPSt13_Rb_tree_nodeIS0_E
FN:1931,_ZNSt8_Rb_treeI13MooseEnumItemS0_St9_IdentityIS0_ESt4lessIS0_ESaIS0_EE8_M_eraseEPSt13_Rb_tree_nodeIS0_E
FN:1931,_ZNSt8_Rb_treeImmSt9_IdentityImESt4lessImESaImEE8_M_eraseEPSt13_Rb_tree_nodeImE
FN:1931,_ZNSt8_Rb_treeINSt7__cxx1112basic_stringIcSt11char_traitsIcESaIcEEESt4pairIKS5_S6_IS5_S5_EESt10_Select1stIS9_ESt4lessIS5_ESaIS9_EE8_M_eraseEPSt13_Rb_tree_nodeIS9_E
FN:1931,_ZNSt8_Rb_treeINSt7__cxx1112basic_stringIcSt11char_traitsIcESaIcEEESt4pairIKS5_N15InputParameters8MetadataEESt10_Select1stISA_ESt4lessIS5_ESaISA_EE8_M_eraseEPSt13_Rb_tree_nodeISA_E
FN:1931,_ZNSt8_Rb_treeIN5Moose7ElemArgESt4pairIKS1_dESt10_Select1stIS4_ESt4lessIS1_ESaIS4_EE8_M_eraseEPSt13_Rb_tree_nodeIS4_E
FN:1931,_ZNSt8_Rb_treeIssSt9_IdentityIsESt4lessIsESaIsEE8_M_eraseEPSt13_Rb_tree_nodeIsE
FN:1931,_ZNSt8_Rb_treeIsSt4pairIKsSt3setImSt4lessImESaImEEESt10_Select1stIS7_ES3_IsESaIS7_EE8_M_eraseEPSt13_Rb_tree_nodeIS7_E
FN:1931,_ZNSt8_Rb_treeI17PostprocessorNameSt4pairIKS0_St10unique_ptrIdSt14default_deleteIdEEESt10_Select1stIS7_ESt4lessIS0_ESaIS7_EE8_M_eraseEPSt13_Rb_tree_nodeIS7_E
FN:1931,_ZNSt8_Rb_treeImSt4pairIKmSt6vectorImSaImEEESt10_Select1stIS5_ESt4lessImESaIS5_EE8_M_eraseEPSt13_Rb_tree_nodeIS5_E
FN:1931,_ZNSt8_Rb_treeINSt7__cxx1112basic_stringIcSt11char_traitsIcESaIcEEESt4pairIKS5_St10unique_ptrIN7libMesh10Parameters5ValueESt14default_deleteISB_EEESt10_Select1stISF_ESt4lessIvESaISF_EE8_M_eraseEPSt13_Rb_tree_nodeISF_E
FN:1931,_ZNSt8_Rb_treeIPK13MeshGeneratorS2_St9_IdentityIS2_ENS0_10ComparatorESaIS2_EE8_M_eraseEPSt13_Rb_tree_nodeIS2_E
FN:1931,_ZNSt8_Rb_treeImSt4pairIKmjESt10_Select1stIS2_ESt4lessImESaIS2_EE8_M_eraseEPSt13_Rb_tree_nodeIS2_E
FN:1931,_ZNSt8_Rb_treeIN5Moose7NodeArgESt4pairIKS1_dESt10_Select1stIS4_ESt4lessIS1_ESaIS4_EE8_M_eraseEPSt13_Rb_tree_nodeIS4_E
FN:1931,_ZNSt8_Rb_treeIN5Moose7FaceArgESt4pairIKS1_N11MetaPhysicL10DualNumberIdNS4_28SemiDynamicSparseNumberArrayIdmNS4_8NWrapperILm64EEEEELb1EEEESt10_Select1stISB_ESt4lessIS1_ESaISB_EE8_M_eraseEPSt13_Rb_tree_nodeISB_E
FN:1931,_ZNSt8_Rb_treeI14UserObjectNameS0_St9_IdentityIS0_ESt4lessIS0_ESaIS0_EE8_M_eraseEPSt13_Rb_tree_nodeIS0_E
FN:1931,_ZNSt8_Rb_treeI13MooseEnumItemSt4pairIKS0_NSt7__cxx1112basic_stringIcSt11char_traitsIcESaIcEEEESt10_Select1stIS9_ESt4lessIS0_ESaIS9_EE8_M_eraseEPSt13_Rb_tree_nodeIS9_E
FN:1931,_ZNSt8_Rb_treeIP22MooseVariableFieldBaseS1_St9_IdentityIS1_ESt4lessIS1_ESaIS1_EE8_M_eraseEPSt13_Rb_tree_nodeIS1_E
FN:1931,_ZNSt8_Rb_treeIjjSt9_IdentityIjESt4lessIjESaIjEE8_M_eraseEPSt13_Rb_tree_nodeIjE
FN:1931,_ZNSt8_Rb_treeINSt7__cxx1112basic_stringIcSt11char_traitsIcESaIcEEES5_St9_IdentityIS5_ESt4lessIS5_ESaIS5_EE8_M_eraseEPSt13_Rb_tree_nodeIS5_E
FN:1931,_ZNSt8_Rb_treeIttSt9_IdentityItESt4lessItESaItEE8_M_eraseEPSt13_Rb_tree_nodeItE
FN:1931,_ZNSt8_Rb_treeIN5Moose7NodeArgESt4pairIKS1_N11MetaPhysicL10DualNumberIdNS4_28SemiDynamicSparseNumberArrayIdmNS4_8NWrapperILm64EEEEELb1EEEESt10_Select1stISB_ESt4lessIS1_ESaISB_EE8_M_eraseEPSt13_Rb_tree_nodeISB_E
FN:1931,_ZNSt8_Rb_treeINSt7__cxx1112basic_stringIcSt11char_traitsIcESaIcEEESt4pairIKS5_S5_ESt10_Select1stIS8_ESt4lessIS5_ESaIS8_EE8_M_eraseEPSt13_Rb_tree_nodeIS8_E
FN:1931,_ZNSt8_Rb_treeIP18MooseVariableFieldIdES2_St9_IdentityIS2_ESt4lessIS2_ESaIS2_EE8_M_eraseEPSt13_Rb_tree_nodeIS2_E
FN:1931,_ZNSt8_Rb_treeIsSt4pairIKsSt3setISt6vectorImSaImEESt4lessIS5_ESaIS5_EEESt10_Select1stISA_ES6_IsESaISA_EE8_M_eraseEPSt13_Rb_tree_nodeISA_E
FN:1931,_ZNSt8_Rb_treeISt6vectorImSaImEES2_St9_IdentityIS2_ESt4lessIS2_ESaIS2_EE8_M_eraseEPSt13_Rb_tree_nodeIS2_E
FN:1931,_ZNSt8_Rb_treeI13MooseEnumItemSt4pairIKS0_S0_ESt10_Select1stIS3_ESt4lessIS0_ESaIS3_EE8_M_eraseEPSt13_Rb_tree_nodeIS3_E
FN:1948,_ZNSt8_Rb_treeINSt7__cxx1112basic_stringIcSt11char_traitsIcESaIcEEESt4pairIKS5_N15InputParameters8MetadataEESt10_Select1stISA_ESt4lessIS5_ESaISA_EE14_M_lower_boundEPSt13_Rb_tree_nodeISA_EPSt18_Rb_tree_node_baseRS7_
FN:1948,_ZNSt8_Rb_treeINSt7__cxx1112basic_stringIcSt11char_traitsIcESaIcEEESt4pairIKS5_St10unique_ptrIN7libMesh10Parameters5ValueESt14default_deleteISB_EEESt10_Select1stISF_ESt4lessIvESaISF_EE14_M_lower_boundEPSt13_Rb_tree_nodeISF_EPSt18_Rb_tree_node_baseRS7_
FN:1948,_ZNSt8_Rb_treeINSt7__cxx1112basic_stringIcSt11char_traitsIcESaIcEEESt4pairIKS5_St6vectorISt10shared_ptrI17RegistryEntryBaseESaISB_EEESt10_Select1stISE_ESt4lessIS5_ESaISE_EE14_M_lower_boundEPSt13_Rb_tree_nodeISE_EPSt18_Rb_tree_node_baseRS7_
FN:1948,_ZNSt8_Rb_treeIN5Moose7FaceArgESt4pairIKS1_dESt10_Select1stIS4_ESt4lessIS1_ESaIS4_EE14_M_lower_boundEPSt13_Rb_tree_nodeIS4_EPSt18_Rb_tree_node_baseRS3_
FN:1948,_ZNSt8_Rb_treeINSt7__cxx1112basic_stringIcSt11char_traitsIcESaIcEEESt4pairIKS5_S5_ESt10_Select1stIS8_ESt4lessIS5_ESaIS8_EE14_M_lower_boundEPSt13_Rb_tree_nodeIS8_EPSt18_Rb_tree_node_baseRS7_
FN:1948,_ZNSt8_Rb_treeIN5Moose7FaceArgESt4pairIKS1_N11MetaPhysicL10DualNumberIdNS4_28SemiDynamicSparseNumberArrayIdmNS4_8NWrapperILm64EEEEELb1EEEESt10_Select1stISB_ESt4lessIS1_ESaISB_EE14_M_lower_boundEPSt13_Rb_tree_nodeISB_EPSt18_Rb_tree_node_baseRS3_
FN:1948,_ZNSt8_Rb_treeINSt7__cxx1112basic_stringIcSt11char_traitsIcESaIcEEESt4pairIKS5_St10unique_ptrI23AppFactoryBuildInfoBaseSt14default_deleteIS9_EEESt10_Select1stISD_ESt4lessIS5_ESaISD_EE14_M_lower_boundEPSt13_Rb_tree_nodeISD_EPSt18_Rb_tree_node_baseRS7_
FN:1948,_ZNSt8_Rb_treeIN5Moose7ElemArgESt4pairIKS1_dESt10_Select1stIS4_ESt4lessIS1_ESaIS4_EE14_M_lower_boundEPSt13_Rb_tree_nodeIS4_EPSt18_Rb_tree_node_baseRS3_
FN:1948,_ZNSt8_Rb_treeIN5Moose7ElemArgESt4pairIKS1_N11MetaPhysicL10DualNumberIdNS4_28SemiDynamicSparseNumberArrayIdmNS4_8NWrapperILm64EEEEELb1EEEESt10_Select1stISB_ESt4lessIS1_ESaISB_EE14_M_lower_boundEPSt13_Rb_tree_nodeISB_EPSt18_Rb_tree_node_baseRS3_
FN:1964,_ZNKSt8_Rb_treeINSt7__cxx1112basic_stringIcSt11char_traitsIcESaIcEEESt4pairIKS5_St10unique_ptrIN7libMesh10Parameters5ValueESt14default_deleteISB_EEESt10_Select1stISF_ESt4lessIvESaISF_EE14_M_lower_boundEPKSt13_Rb_tree_nodeISF_EPKSt18_Rb_tree_node_baseRS7_
FN:1964,_ZNKSt8_Rb_treeI13MooseEnumItemS0_St9_IdentityIS0_ESt4lessIS0_ESaIS0_EE14_M_lower_boundEPKSt13_Rb_tree_nodeIS0_EPKSt18_Rb_tree_node_baseRKS0_
FN:1964,_ZNKSt8_Rb_treeINSt7__cxx1112basic_stringIcSt11char_traitsIcESaIcEEESt4pairIKS5_St10unique_ptrI23AppFactoryBuildInfoBaseSt14default_deleteIS9_EEESt10_Select1stISD_ESt4lessIS5_ESaISD_EE14_M_lower_boundEPKSt13_Rb_tree_nodeISD_EPKSt18_Rb_tree_node_baseRS7_
FN:2109,_ZNSt8_Rb_treeINSt7__cxx1112basic_stringIcSt11char_traitsIcESaIcEEESt4pairIKS5_N15InputParameters8MetadataEESt10_Select1stISA_ESt4lessIS5_ESaISA_EE24_M_get_insert_unique_posERS7_
FN:2109,_ZNSt8_Rb_treeINSt7__cxx1112basic_stringIcSt11char_traitsIcESaIcEEES5_St9_IdentityIS5_ESt4lessIS5_ESaIS5_EE24_M_get_insert_unique_posERKS5_
FN:2109,_ZNSt8_Rb_treeIssSt9_IdentityIsESt4lessIsESaIsEE24_M_get_insert_unique_posERKs
FN:2109,_ZNSt8_Rb_treeImmSt9_IdentityImESt4lessImESaImEE24_M_get_insert_unique_posERKm
FN:2109,_ZNSt8_Rb_treeIN5Moose7FaceArgESt4pairIKS1_dESt10_Select1stIS4_ESt4lessIS1_ESaIS4_EE24_M_get_insert_unique_posERS3_
FN:2109,_ZNSt8_Rb_treeISt6vectorImSaImEES2_St9_IdentityIS2_ESt4lessIS2_ESaIS2_EE24_M_get_insert_unique_posERKS2_
FN:2109,_ZNSt8_Rb_treeImSt4pairIKmjESt10_Select1stIS2_ESt4lessImESaIS2_EE24_M_get_insert_unique_posERS1_
FN:2109,_ZNSt8_Rb_treeINSt7__cxx1112basic_stringIcSt11char_traitsIcESaIcEEESt4pairIKS5_St6vectorISt10shared_ptrI17RegistryEntryBaseESaISB_EEESt10_Select1stISE_ESt4lessIS5_ESaISE_EE24_M_get_insert_unique_posERS7_
FN:2109,_ZNSt8_Rb_treeIN5Moose7FaceArgESt4pairIKS1_N11MetaPhysicL10DualNumberIdNS4_28SemiDynamicSparseNumberArrayIdmNS4_8NWrapperILm64EEEEELb1EEEESt10_Select1stISB_ESt4lessIS1_ESaISB_EE24_M_get_insert_unique_posERS3_
FN:2109,_ZNSt8_Rb_treeINSt7__cxx1112basic_stringIcSt11char_traitsIcESaIcEEESt4pairIKS5_St10unique_ptrIN7libMesh10Parameters5ValueESt14default_deleteISB_EEESt10_Select1stISF_ESt4lessIvESaISF_EE24_M_get_insert_unique_posERS7_
FN:2109,_ZNSt8_Rb_treeINSt7__cxx1112basic_stringIcSt11char_traitsIcESaIcEEESt4pairIKS5_S5_ESt10_Select1stIS8_ESt4lessIS5_ESaIS8_EE24_M_get_insert_unique_posERS7_
FN:2109,_ZNSt8_Rb_treeINSt7__cxx1112basic_stringIcSt11char_traitsIcESaIcEEESt4pairIKS5_St10unique_ptrI23AppFactoryBuildInfoBaseSt14default_deleteIS9_EEESt10_Select1stISD_ESt4lessIS5_ESaISD_EE24_M_get_insert_unique_posERS7_
FN:2109,_ZNSt8_Rb_treeIN5Moose7ElemArgESt4pairIKS1_dESt10_Select1stIS4_ESt4lessIS1_ESaIS4_EE24_M_get_insert_unique_posERS3_
FN:2109,_ZNSt8_Rb_treeIsSt4pairIKsSt3setImSt4lessImESaImEEESt10_Select1stIS7_ES3_IsESaIS7_EE24_M_get_insert_unique_posERS1_
FN:2109,_ZNSt8_Rb_treeImSt4pairIKmSt6vectorImSaImEEESt10_Select1stIS5_ESt4lessImESaIS5_EE24_M_get_insert_unique_posERS1_
FN:2109,_ZNSt8_Rb_treeIN5Moose7ElemArgESt4pairIKS1_N11MetaPhysicL10DualNumberIdNS4_28SemiDynamicSparseNumberArrayIdmNS4_8NWrapperILm64EEEEELb1EEEESt10_Select1stISB_ESt4lessIS1_ESaISB_EE24_M_get_insert_unique_posERS3_
FN:2109,_ZNSt8_Rb_treeIsSt4pairIKsSt3setISt6vectorImSaImEESt4lessIS5_ESaIS5_EEESt10_Select1stISA_ES6_IsESaISA_EE24_M_get_insert_unique_posERS1_
FN:2163,_ZNSt8_Rb_treeISt6vectorImSaImEES2_St9_IdentityIS2_ESt4lessIS2_ESaIS2_EE16_M_insert_uniqueIRKS2_EESt4pairISt17_Rb_tree_iteratorIS2_EbEOT_
FN:2163,_ZNSt8_Rb_treeIssSt9_IdentityIsESt4lessIsESaIsEE16_M_insert_uniqueIsEESt4pairISt17_Rb_tree_iteratorIsEbEOT_
FN:2163,_ZNSt8_Rb_treeImmSt9_IdentityImESt4lessImESaImEE16_M_insert_uniqueIRKmEESt4pairISt17_Rb_tree_iteratorImEbEOT_
FN:2163,_ZNSt8_Rb_treeImmSt9_IdentityImESt4lessImESaImEE16_M_insert_uniqueImEESt4pairISt17_Rb_tree_iteratorImEbEOT_
FN:2163,_ZNSt8_Rb_treeINSt7__cxx1112basic_stringIcSt11char_traitsIcESaIcEEES5_St9_IdentityIS5_ESt4lessIS5_ESaIS5_EE16_M_insert_uniqueIRKS5_EESt4pairISt17_Rb_tree_iteratorIS5_EbEOT_
FN:2211,_ZNSt8_Rb_treeImSt4pairIKmSt6vectorImSaImEEESt10_Select1stIS5_ESt4lessImESaIS5_EE29_M_get_insert_hint_unique_posESt23_Rb_tree_const_iteratorIS5_ERS1_
FN:2211,_ZNSt8_Rb_treeINSt7__cxx1112basic_stringIcSt11char_traitsIcESaIcEEES5_St9_IdentityIS5_ESt4lessIS5_ESaIS5_EE29_M_get_insert_hint_unique_posESt23_Rb_tree_const_iteratorIS5_ERKS5_
FN:2211,_ZNSt8_Rb_treeIN5Moose7FaceArgESt4pairIKS1_N11MetaPhysicL10DualNumberIdNS4_28SemiDynamicSparseNumberArrayIdmNS4_8NWrapperILm64EEEEELb1EEEESt10_Select1stISB_ESt4lessIS1_ESaISB_EE29_M_get_insert_hint_unique_posESt23_Rb_tree_const_iteratorISB_ERS3_
FN:2211,_ZNSt8_Rb_treeIsSt4pairIKsSt3setImSt4lessImESaImEEESt10_Select1stIS7_ES3_IsESaIS7_EE29_M_get_insert_hint_unique_posESt23_Rb_tree_const_iteratorIS7_ERS1_
FN:2211,_ZNSt8_Rb_treeIN5Moose7ElemArgESt4pairIKS1_N11MetaPhysicL10DualNumberIdNS4_28SemiDynamicSparseNumberArrayIdmNS4_8NWrapperILm64EEEEELb1EEEESt10_Select1stISB_ESt4lessIS1_ESaISB_EE29_M_get_insert_hint_unique_posESt23_Rb_tree_const_iteratorISB_ERS3_
FN:2211,_ZNSt8_Rb_treeINSt7__cxx1112basic_stringIcSt11char_traitsIcESaIcEEESt4pairIKS5_N15InputParameters8MetadataEESt10_Select1stISA_ESt4lessIS5_ESaISA_EE29_M_get_insert_hint_unique_posESt23_Rb_tree_const_iteratorISA_ERS7_
FN:2211,_ZNSt8_Rb_treeIsSt4pairIKsSt3setISt6vectorImSaImEESt4lessIS5_ESaIS5_EEESt10_Select1stISA_ES6_IsESaISA_EE29_M_get_insert_hint_unique_posESt23_Rb_tree_const_iteratorISA_ERS1_
FN:2211,_ZNSt8_Rb_treeIN5Moose7ElemArgESt4pairIKS1_dESt10_Select1stIS4_ESt4lessIS1_ESaIS4_EE29_M_get_insert_hint_unique_posESt23_Rb_tree_const_iteratorIS4_ERS3_
FN:2211,_ZNSt8_Rb_treeINSt7__cxx1112basic_stringIcSt11char_traitsIcESaIcEEESt4pairIKS5_St10unique_ptrI23AppFactoryBuildInfoBaseSt14default_deleteIS9_EEESt10_Select1stISD_ESt4lessIS5_ESaISD_EE29_M_get_insert_hint_unique_posESt23_Rb_tree_const_iteratorISD_ERS7_
FN:2211,_ZNSt8_Rb_treeINSt7__cxx1112basic_stringIcSt11char_traitsIcESaIcEEESt4pairIKS5_S5_ESt10_Select1stIS8_ESt4lessIS5_ESaIS8_EE29_M_get_insert_hint_unique_posESt23_Rb_tree_const_iteratorIS8_ERS7_
FN:2211,_ZNSt8_Rb_treeINSt7__cxx1112basic_stringIcSt11char_traitsIcESaIcEEESt4pairIKS5_St6vectorISt10shared_ptrI17RegistryEntryBaseESaISB_EEESt10_Select1stISE_ESt4lessIS5_ESaISE_EE29_M_get_insert_hint_unique_posESt23_Rb_tree_const_iteratorISE_ERS7_
FN:2211,_ZNSt8_Rb_treeINSt7__cxx1112basic_stringIcSt11char_traitsIcESaIcEEESt4pairIKS5_St10unique_ptrIN7libMesh10Parameters5ValueESt14default_deleteISB_EEESt10_Select1stISF_ESt4lessIvESaISF_EE29_M_get_insert_hint_unique_posESt23_Rb_tree_const_iteratorISF_ERS7_
FN:2211,_ZNSt8_Rb_treeIN5Moose7FaceArgESt4pairIKS1_dESt10_Select1stIS4_ESt4lessIS1_ESaIS4_EE29_M_get_insert_hint_unique_posESt23_Rb_tree_const_iteratorIS4_ERS3_
FN:2211,_ZNSt8_Rb_treeImSt4pairIKmjESt10_Select1stIS2_ESt4lessImESaIS2_EE29_M_get_insert_hint_unique_posESt23_Rb_tree_const_iteratorIS2_ERS1_
FN:2272,_ZNSt8_Rb_treeINSt7__cxx1112basic_stringIcSt11char_traitsIcESaIcEEES5_St9_IdentityIS5_ESt4lessIS5_ESaIS5_EE17_M_insert_unique_IRKS5_NSB_11_Alloc_nodeEEESt17_Rb_tree_iteratorIS5_ESt23_Rb_tree_const_iteratorIS5_EOT_RT0_
FN:2378,_ZNSt8_Rb_treeIN5Moose7FaceArgESt4pairIKS1_dESt10_Select1stIS4_ESt4lessIS1_ESaIS4_EE14_M_insert_nodeEPSt18_Rb_tree_node_baseSC_PSt13_Rb_tree_nodeIS4_E
FN:2378,_ZNSt8_Rb_treeIN5Moose7ElemArgESt4pairIKS1_dESt10_Select1stIS4_ESt4lessIS1_ESaIS4_EE14_M_insert_nodeEPSt18_Rb_tree_node_baseSC_PSt13_Rb_tree_nodeIS4_E
FN:2378,_ZNSt8_Rb_treeINSt7__cxx1112basic_stringIcSt11char_traitsIcESaIcEEESt4pairIKS5_S5_ESt10_Select1stIS8_ESt4lessIS5_ESaIS8_EE14_M_insert_nodeEPSt18_Rb_tree_node_baseSG_PSt13_Rb_tree_nodeIS8_E
FN:2378,_ZNSt8_Rb_treeINSt7__cxx1112basic_stringIcSt11char_traitsIcESaIcEEESt4pairIKS5_St6vectorISt10shared_ptrI17RegistryEntryBaseESaISB_EEESt10_Select1stISE_ESt4lessIS5_ESaISE_EE14_M_insert_nodeEPSt18_Rb_tree_node_baseSM_PSt13_Rb_tree_nodeISE_E
FN:2378,_ZNSt8_Rb_treeIsSt4pairIKsSt3setISt6vectorImSaImEESt4lessIS5_ESaIS5_EEESt10_Select1stISA_ES6_IsESaISA_EE14_M_insert_nodeEPSt18_Rb_tree_node_baseSH_PSt13_Rb_tree_nodeISA_E
FN:2378,_ZNSt8_Rb_treeImSt4pairIKmjESt10_Select1stIS2_ESt4lessImESaIS2_EE14_M_insert_nodeEPSt18_Rb_tree_node_baseSA_PSt13_Rb_tree_nodeIS2_E
FN:2378,_ZNSt8_Rb_treeIN5Moose7ElemArgESt4pairIKS1_N11MetaPhysicL10DualNumberIdNS4_28SemiDynamicSparseNumberArrayIdmNS4_8NWrapperILm64EEEEELb1EEEESt10_Select1stISB_ESt4lessIS1_ESaISB_EE14_M_insert_nodeEPSt18_Rb_tree_node_baseSJ_PSt13_Rb_tree_nodeISB_E
FN:2378,_ZNSt8_Rb_treeIN5Moose7FaceArgESt4pairIKS1_N11MetaPhysicL10DualNumberIdNS4_28SemiDynamicSparseNumberArrayIdmNS4_8NWrapperILm64EEEEELb1EEEESt10_Select1stISB_ESt4lessIS1_ESaISB_EE14_M_insert_nodeEPSt18_Rb_tree_node_baseSJ_PSt13_Rb_tree_nodeISB_E
FN:2378,_ZNSt8_Rb_treeINSt7__cxx1112basic_stringIcSt11char_traitsIcESaIcEEESt4pairIKS5_St10unique_ptrI23AppFactoryBuildInfoBaseSt14default_deleteIS9_EEESt10_Select1stISD_ESt4lessIS5_ESaISD_EE14_M_insert_nodeEPSt18_Rb_tree_node_baseSL_PSt13_Rb_tree_nodeISD_E
FN:2378,_ZNSt8_Rb_treeINSt7__cxx1112basic_stringIcSt11char_traitsIcESaIcEEESt4pairIKS5_St10unique_ptrIN7libMesh10Parameters5ValueESt14default_deleteISB_EEESt10_Select1stISF_ESt4lessIvESaISF_EE14_M_insert_nodeEPSt18_Rb_tree_node_baseSN_PSt13_Rb_tree_nodeISF_E
FN:2378,_ZNSt8_Rb_treeImSt4pairIKmSt6vectorImSaImEEESt10_Select1stIS5_ESt4lessImESaIS5_EE14_M_insert_nodeEPSt18_Rb_tree_node_baseSD_PSt13_Rb_tree_nodeIS5_E
FN:2378,_ZNSt8_Rb_treeINSt7__cxx1112basic_stringIcSt11char_traitsIcESaIcEEESt4pairIKS5_N15InputParameters8MetadataEESt10_Select1stISA_ESt4lessIS5_ESaISA_EE14_M_insert_nodeEPSt18_Rb_tree_node_baseSI_PSt13_Rb_tree_nodeISA_E
FN:2378,_ZNSt8_Rb_treeIsSt4pairIKsSt3setImSt4lessImESaImEEESt10_Select1stIS7_ES3_IsESaIS7_EE14_M_insert_nodeEPSt18_Rb_tree_node_baseSE_PSt13_Rb_tree_nodeIS7_E
FN:2459,_ZNSt8_Rb_treeINSt7__cxx1112basic_stringIcSt11char_traitsIcESaIcEEESt4pairIKS5_St6vectorISt10shared_ptrI17RegistryEntryBaseESaISB_EEESt10_Select1stISE_ESt4lessIS5_ESaISE_EE22_M_emplace_hint_uniqueIJRKSt21piecewise_construct_tSt5tupleIJRS7_EESP_IJEEEEESt17_Rb_tree_iteratorISE_ESt23_Rb_tree_const_iteratorISE_EDpOT_
FN:2459,_ZNSt8_Rb_treeIN5Moose7FaceArgESt4pairIKS1_dESt10_Select1stIS4_ESt4lessIS1_ESaIS4_EE22_M_emplace_hint_uniqueIJRKSt21piecewise_construct_tSt5tupleIJRS3_EESF_IJOdEEEEESt17_Rb_tree_iteratorIS4_ESt23_Rb_tree_const_iteratorIS4_EDpOT_
FN:2459,_ZNSt8_Rb_treeIN5Moose7ElemArgESt4pairIKS1_dESt10_Select1stIS4_ESt4lessIS1_ESaIS4_EE22_M_emplace_hint_uniqueIJRKSt21piecewise_construct_tSt5tupleIJRS3_EESF_IJOdEEEEESt17_Rb_tree_iteratorIS4_ESt23_Rb_tree_const_iteratorIS4_EDpOT_
FN:2459,_ZNSt8_Rb_treeIN5Moose7FaceArgESt4pairIKS1_N11MetaPhysicL10DualNumberIdNS4_28SemiDynamicSparseNumberArrayIdmNS4_8NWrapperILm64EEEEELb1EEEESt10_Select1stISB_ESt4lessIS1_ESaISB_EE22_M_emplace_hint_uniqueIJRKSt21piecewise_construct_tSt5tupleIJRS3_EESM_IJOSA_EEEEESt17_Rb_tree_iteratorISB_ESt23_Rb_tree_const_iteratorISB_EDpOT_
FN:2459,_ZNSt8_Rb_treeImSt4pairIKmSt6vectorImSaImEEESt10_Select1stIS5_ESt4lessImESaIS5_EE22_M_emplace_hint_uniqueIJRKSt21piecewise_construct_tSt5tupleIJRS1_EESG_IJEEEEESt17_Rb_tree_iteratorIS5_ESt23_Rb_tree_const_iteratorIS5_EDpOT_
FN:2459,_ZNSt8_Rb_treeIN5Moose7ElemArgESt4pairIKS1_N11MetaPhysicL10DualNumberIdNS4_28SemiDynamicSparseNumberArrayIdmNS4_8NWrapperILm64EEEEELb1EEEESt10_Select1stISB_ESt4lessIS1_ESaISB_EE22_M_emplace_hint_uniqueIJRKSt21piecewise_construct_tSt5tupleIJRS3_EESM_IJOSA_EEEEESt17_Rb_tree_iteratorISB_ESt23_Rb_tree_const_iteratorISB_EDpOT_
FN:2459,_ZNSt8_Rb_treeINSt7__cxx1112basic_stringIcSt11char_traitsIcESaIcEEESt4pairIKS5_N15InputParameters8MetadataEESt10_Select1stISA_ESt4lessIS5_ESaISA_EE22_M_emplace_hint_uniqueIJRKSt21piecewise_construct_tSt5tupleIJRS7_EESL_IJEEEEESt17_Rb_tree_iteratorISA_ESt23_Rb_tree_const_iteratorISA_EDpOT_
FN:2459,_ZNSt8_Rb_treeINSt7__cxx1112basic_stringIcSt11char_traitsIcESaIcEEESt4pairIKS5_St10unique_ptrIN7libMesh10Parameters5ValueESt14default_deleteISB_EEESt10_Select1stISF_ESt4lessIvESaISF_EE22_M_emplace_hint_uniqueIJRKSt21piecewise_construct_tSt5tupleIJRS7_EESQ_IJEEEEESt17_Rb_tree_iteratorISF_ESt23_Rb_tree_const_iteratorISF_EDpOT_
FN:2459,_ZNSt8_Rb_treeImSt4pairIKmjESt10_Select1stIS2_ESt4lessImESaIS2_EE22_M_emplace_hint_uniqueIJRKSt21piecewise_construct_tSt5tupleIJOmEESD_IJEEEEESt17_Rb_tree_iteratorIS2_ESt23_Rb_tree_const_iteratorIS2_EDpOT_
FN:2459,_ZNSt8_Rb_treeINSt7__cxx1112basic_stringIcSt11char_traitsIcESaIcEEESt4pairIKS5_S5_ESt10_Select1stIS8_ESt4lessIS5_ESaIS8_EE22_M_emplace_hint_uniqueIJRKSt21piecewise_construct_tSt5tupleIJOS5_EESJ_IJEEEEESt17_Rb_tree_iteratorIS8_ESt23_Rb_tree_const_iteratorIS8_EDpOT_
FN:2459,_ZNSt8_Rb_treeINSt7__cxx1112basic_stringIcSt11char_traitsIcESaIcEEESt4pairIKS5_St10unique_ptrI23AppFactoryBuildInfoBaseSt14default_deleteIS9_EEESt10_Select1stISD_ESt4lessIS5_ESaISD_EE22_M_emplace_hint_uniqueIJRKSt21piecewise_construct_tSt5tupleIJRS7_EESO_IJEEEEESt17_Rb_tree_iteratorISD_ESt23_Rb_tree_const_iteratorISD_EDpOT_
FN:2459,_ZNSt8_Rb_treeImSt4pairIKmSt6vectorImSaImEEESt10_Select1stIS5_ESt4lessImESaIS5_EE22_M_emplace_hint_uniqueIJRKSt21piecewise_construct_tSt5tupleIJOmEESG_IJEEEEESt17_Rb_tree_iteratorIS5_ESt23_Rb_tree_const_iteratorIS5_EDpOT_
FN:2459,_ZNSt8_Rb_treeIsSt4pairIKsSt3setISt6vectorImSaImEESt4lessIS5_ESaIS5_EEESt10_Select1stISA_ES6_IsESaISA_EE22_M_emplace_hint_uniqueIJRKSt21piecewise_construct_tSt5tupleIJRS1_EESK_IJEEEEESt17_Rb_tree_iteratorISA_ESt23_Rb_tree_const_iteratorISA_EDpOT_
FN:2459,_ZNSt8_Rb_treeIsSt4pairIKsSt3setImSt4lessImESaImEEESt10_Select1stIS7_ES3_IsESaIS7_EE22_M_emplace_hint_uniqueIJRKSt21piecewise_construct_tSt5tupleIJRS1_EESH_IJEEEEESt17_Rb_tree_iteratorIS7_ESt23_Rb_tree_const_iteratorIS7_EDpOT_
FN:2543,_ZNKSt8_Rb_treeINSt7__cxx1112basic_stringIcSt11char_traitsIcESaIcEEESt4pairIKS5_St10unique_ptrIN7libMesh10Parameters5ValueESt14default_deleteISB_EEESt10_Select1stISF_ESt4lessIvESaISF_EE4findERS7_
FN:2543,_ZNKSt8_Rb_treeImmSt9_IdentityImESt4lessImESaImEE4findERKm
FN:2543,_ZNKSt8_Rb_treeINSt7__cxx1112basic_stringIcSt11char_traitsIcESaIcEEESt4pairIKS5_St10unique_ptrI23AppFactoryBuildInfoBaseSt14default_deleteIS9_EEESt10_Select1stISD_ESt4lessIS5_ESaISD_EE4findERS7_
FN:2543,_ZNKSt8_Rb_treeI13MooseEnumItemS0_St9_IdentityIS0_ESt4lessIS0_ESaIS0_EE4findERKS0_
FNDA:0,_ZNSt8_Rb_treeINSt7__cxx1112basic_stringIcSt11char_traitsIcESaIcEEESt4pairIKS5_St10unique_ptrI23AppFactoryBuildInfoBaseSt14default_deleteIS9_EEESt10_Select1stISD_ESt4lessIS5_ESaISD_EE29_M_get_insert_hint_unique_posESt23_Rb_tree_const_iteratorISD_ERS7_
FNDA:0,_ZNSt8_Rb_treeINSt7__cxx1112basic_stringIcSt11char_traitsIcESaIcEEESt4pairIKS5_S5_ESt10_Select1stIS8_ESt4lessIS5_ESaIS8_EE29_M_get_insert_hint_unique_posESt23_Rb_tree_const_iteratorIS8_ERS7_
FNDA:0,_ZNSt8_Rb_treeI13MooseEnumItemSt4pairIKS0_S0_ESt10_Select1stIS3_ESt4lessIS0_ESaIS3_EEaSERKS9_
FNDA:2929,_ZNSt8_Rb_treeINSt7__cxx1112basic_stringIcSt11char_traitsIcESaIcEEES5_St9_IdentityIS5_ESt4lessIS5_ESaIS5_EE8_M_eraseEPSt13_Rb_tree_nodeIS5_E
FNDA:52,_ZNSt8_Rb_treeINSt7__cxx1112basic_stringIcSt11char_traitsIcESaIcEEESt4pairIKS5_St6vectorISt10shared_ptrI17RegistryEntryBaseESaISB_EEESt10_Select1stISE_ESt4lessIS5_ESaISE_EE10_Auto_node9_M_insertES6_IPSt18_Rb_tree_node_baseSN_E
FNDA:774,_ZNSt8_Rb_treeIttSt9_IdentityItESt4lessItESaItEE8_M_eraseEPSt13_Rb_tree_nodeItE
FNDA:34,_ZNSt8_Rb_treeIsSt4pairIKsSt3setImSt4lessImESaImEEESt10_Select1stIS7_ES3_IsESaIS7_EE10_Auto_nodeD2Ev
FNDA:0,_ZNSt8_Rb_treeINSt7__cxx1112basic_stringIcSt11char_traitsIcESaIcEEESt4pairIKS5_S5_ESt10_Select1stIS8_ESt4lessIS5_ESaIS8_EE24_M_get_insert_unique_posERS7_
FNDA:0,_ZNSt8_Rb_treeI13MooseEnumItemSt4pairIKS0_S0_ESt10_Select1stIS3_ESt4lessIS0_ESaIS3_EE7_M_copyILb0ENS9_20_Reuse_or_alloc_nodeEEEPSt13_Rb_tree_nodeIS3_ERKS9_RT0_
FNDA:1144,_ZNSt8_Rb_treeINSt7__cxx1112basic_stringIcSt11char_traitsIcESaIcEEESt4pairIKS5_S5_ESt10_Select1stIS8_ESt4lessIS5_ESaIS8_EE10_Auto_node9_M_insertES6_IPSt18_Rb_tree_node_baseSH_E
FNDA:154,_ZNSt8_Rb_treeINSt7__cxx1112basic_stringIcSt11char_traitsIcESaIcEEESt4pairIKS5_N15InputParameters8MetadataEESt10_Select1stISA_ESt4lessIS5_ESaISA_EE10_Auto_nodeD2Ev
FNDA:0,_ZNSt8_Rb_treeIN5Moose7NodeArgESt4pairIKS1_N11MetaPhysicL10DualNumberIdNS4_28SemiDynamicSparseNumberArrayIdmNS4_8NWrapperILm64EEEEELb1EEEESt10_Select1stISB_ESt4lessIS1_ESaISB_EE8_M_eraseEPSt13_Rb_tree_nodeISB_E
FNDA:58,_ZNSt8_Rb_treeISt6vectorImSaImEES2_St9_IdentityIS2_ESt4lessIS2_ESaIS2_EE7_M_copyILb0ENS8_11_Alloc_nodeEEEPSt13_Rb_tree_nodeIS2_ESD_PSt18_Rb_tree_node_baseRT0_
FNDA:26,_ZNSt8_Rb_treeINSt7__cxx1112basic_stringIcSt11char_traitsIcESaIcEEESt4pairIKS5_S5_ESt10_Select1stIS8_ESt4lessIS5_ESaIS8_EE8_M_eraseEPSt13_Rb_tree_nodeIS8_E
FNDA:0,_ZNKSt8_Rb_treeI13MooseEnumItemS0_St9_IdentityIS0_ESt4lessIS0_ESaIS0_EE14_M_lower_boundEPKSt13_Rb_tree_nodeIS0_EPKSt18_Rb_tree_node_baseRKS0_
FNDA:297,_ZNSt8_Rb_treeIP18MooseVariableFieldIdES2_St9_IdentityIS2_ESt4lessIS2_ESaIS2_EE8_M_eraseEPSt13_Rb_tree_nodeIS2_E
FNDA:52,_ZNSt8_Rb_treeINSt7__cxx1112basic_stringIcSt11char_traitsIcESaIcEEES5_St9_IdentityIS5_ESt4lessIS5_ESaIS5_EE14_M_create_nodeIJRKS5_EEEPSt13_Rb_tree_nodeIS5_EDpOT_
FNDA:106,_ZNSt8_Rb_treeImmSt9_IdentityImESt4lessImESaImEE10_M_insert_ImNS5_11_Alloc_nodeEEESt17_Rb_tree_iteratorImEPSt18_Rb_tree_node_baseSB_OT_RT0_
FNDA:0,_ZNSt8_Rb_treeINSt7__cxx1112basic_stringIcSt11char_traitsIcESaIcEEESt4pairIKS5_St10unique_ptrI23AppFactoryBuildInfoBaseSt14default_deleteIS9_EEESt10_Select1stISD_ESt4lessIS5_ESaISD_EE10_Auto_nodeD2Ev
FNDA:0,_ZNKSt8_Rb_treeINSt7__cxx1112basic_stringIcSt11char_traitsIcESaIcEEESt4pairIKS5_St10unique_ptrI23AppFactoryBuildInfoBaseSt14default_deleteIS9_EEESt10_Select1stISD_ESt4lessIS5_ESaISD_EE4findERS7_
FNDA:0,_ZNKSt8_Rb_treeINSt7__cxx1112basic_stringIcSt11char_traitsIcESaIcEEESt4pairIKS5_St10unique_ptrI23AppFactoryBuildInfoBaseSt14default_deleteIS9_EEESt10_Select1stISD_ESt4lessIS5_ESaISD_EE14_M_lower_boundEPKSt13_Rb_tree_nodeISD_EPKSt18_Rb_tree_node_baseRS7_
FNDA:0,_ZNSt8_Rb_treeINSt7__cxx1112basic_stringIcSt11char_traitsIcESaIcEEESt4pairIKS5_St10unique_ptrI23AppFactoryBuildInfoBaseSt14default_deleteIS9_EEESt10_Select1stISD_ESt4lessIS5_ESaISD_EE22_M_emplace_hint_uniqueIJRKSt21piecewise_construct_tSt5tupleIJRS7_EESO_IJEEEEESt17_Rb_tree_iteratorISD_ESt23_Rb_tree_const_iteratorISD_EDpOT_
FNDA:0,_ZNSt8_Rb_treeI13MooseEnumItemSt4pairIKS0_S0_ESt10_Select1stIS3_ESt4lessIS0_ESaIS3_EE20_Reuse_or_alloc_nodeC2ERS9_
FNDA:34,_ZNSt8_Rb_treeIsSt4pairIKsSt3setImSt4lessImESaImEEESt10_Select1stIS7_ES3_IsESaIS7_EE14_M_insert_nodeEPSt18_Rb_tree_node_baseSE_PSt13_Rb_tree_nodeIS7_E
FNDA:0,_ZNSt8_Rb_treeIN5Moose7ElemArgESt4pairIKS1_dESt10_Select1stIS4_ESt4lessIS1_ESaIS4_EE14_M_lower_boundEPSt13_Rb_tree_nodeIS4_EPSt18_Rb_tree_node_baseRS3_
FNDA:154,_ZNSt8_Rb_treeINSt7__cxx1112basic_stringIcSt11char_traitsIcESaIcEEESt4pairIKS5_St10unique_ptrIN7libMesh10Parameters5ValueESt14default_deleteISB_EEESt10_Select1stISF_ESt4lessIvESaISF_EE17_M_construct_nodeIJRKSt21piecewise_construct_tSt5tupleIJRS7_EESQ_IJEEEEEvPSt13_Rb_tree_nodeISF_EDpOT_
FNDA:0,_ZNSt8_Rb_treeINSt7__cxx1112basic_stringIcSt11char_traitsIcESaIcEEESt4pairIKS5_St10unique_ptrI23AppFactoryBuildInfoBaseSt14default_deleteIS9_EEESt10_Select1stISD_ESt4lessIS5_ESaISD_EE24_M_get_insert_unique_posERS7_
FNDA:1144,_ZNSt8_Rb_treeINSt7__cxx1112basic_stringIcSt11char_traitsIcESaIcEEESt4pairIKS5_S5_ESt10_Select1stIS8_ESt4lessIS5_ESaIS8_EE14_M_create_nodeIJRKSt21piecewise_construct_tSt5tupleIJOS5_EESJ_IJEEEEEPSt13_Rb_tree_nodeIS8_EDpOT_
FNDA:10,_ZNSt8_Rb_treeIsSt4pairIKsSt3setISt6vectorImSaImEESt4lessIS5_ESaIS5_EEESt10_Select1stISA_ES6_IsESaISA_EE8_M_eraseEPSt13_Rb_tree_nodeISA_E
FNDA:456,_ZNSt8_Rb_treeImSt4pairIKmSt6vectorImSaImEEESt10_Select1stIS5_ESt4lessImESaIS5_EE22_M_emplace_hint_uniqueIJRKSt21piecewise_construct_tSt5tupleIJOmEESG_IJEEEEESt17_Rb_tree_iteratorIS5_ESt23_Rb_tree_const_iteratorIS5_EDpOT_
FNDA:5,_ZNSt8_Rb_treeIsSt4pairIKsSt3setISt6vectorImSaImEESt4lessIS5_ESaIS5_EEESt10_Select1stISA_ES6_IsESaISA_EE22_M_emplace_hint_uniqueIJRKSt21piecewise_construct_tSt5tupleIJRS1_EESK_IJEEEEESt17_Rb_tree_iteratorISA_ESt23_Rb_tree_const_iteratorISA_EDpOT_
FNDA:0,_ZNSt8_Rb_treeIN5Moose7ElemArgESt4pairIKS1_dESt10_Select1stIS4_ESt4lessIS1_ESaIS4_EE24_M_get_insert_unique_posERS3_
FNDA:4348,_ZNSt8_Rb_treeI13MooseEnumItemS0_St9_IdentityIS0_ESt4lessIS0_ESaIS0_EE12_M_drop_nodeEPSt13_Rb_tree_nodeIS0_E
FNDA:0,_ZNSt8_Rb_treeINSt7__cxx1112basic_stringIcSt11char_traitsIcESaIcEEESt4pairIKS5_St6vectorISt10shared_ptrI17RegistryEntryBaseESaISB_EEESt10_Select1stISE_ESt4lessIS5_ESaISE_EE29_M_get_insert_hint_unique_posESt23_Rb_tree_const_iteratorISE_ERS7_
FNDA:6463011,_ZNSt8_Rb_treeINSt7__cxx1112basic_stringIcSt11char_traitsIcESaIcEEESt4pairIKS5_St10unique_ptrIN7libMesh10Parameters5ValueESt14default_deleteISB_EEESt10_Select1stISF_ESt4lessIvESaISF_EE29_M_get_insert_hint_unique_posESt23_Rb_tree_const_iteratorISF_ERS7_
FNDA:154,_ZNSt8_Rb_treeINSt7__cxx1112basic_stringIcSt11char_traitsIcESaIcEEESt4pairIKS5_St10unique_ptrIN7libMesh10Parameters5ValueESt14default_deleteISB_EEESt10_Select1stISF_ESt4lessIvESaISF_EE10_Auto_nodeD2Ev
FNDA:0,_ZNSt8_Rb_treeIsSt4pairIKsSt3setImSt4lessImESaImEEESt10_Select1stIS7_ES3_IsESaIS7_EE24_M_get_insert_unique_posERS1_
FNDA:5,_ZNSt8_Rb_treeIsSt4pairIKsSt3setISt6vectorImSaImEESt4lessIS5_ESaIS5_EEESt10_Select1stISA_ES6_IsESaISA_EE10_Auto_nodeD2Ev
FNDA:0,_ZNSt8_Rb_treeIN5Moose7ElemArgESt4pairIKS1_N11MetaPhysicL10DualNumberIdNS4_28SemiDynamicSparseNumberArrayIdmNS4_8NWrapperILm64EEEEELb1EEEESt10_Select1stISB_ESt4lessIS1_ESaISB_EE14_M_lower_boundEPSt13_Rb_tree_nodeISB_EPSt18_Rb_tree_node_baseRS3_
FNDA:52,_ZNSt8_Rb_treeINSt7__cxx1112basic_stringIcSt11char_traitsIcESaIcEEESt4pairIKS5_St6vectorISt10shared_ptrI17RegistryEntryBaseESaISB_EEESt10_Select1stISE_ESt4lessIS5_ESaISE_EE10_Auto_nodeD2Ev
FNDA:0,_ZNSt8_Rb_treeImSt4pairIKmSt6vectorImSaImEEESt10_Select1stIS5_ESt4lessImESaIS5_EE24_M_get_insert_unique_posERS1_
FNDA:0,_ZNSt8_Rb_treeI13MooseEnumItemS0_St9_IdentityIS0_ESt4lessIS0_ESaIS0_EE20_Reuse_or_alloc_nodeclIRKS0_EEPSt13_Rb_tree_nodeIS0_EOT_
FNDA:0,_ZNSt8_Rb_treeINSt7__cxx1112basic_stringIcSt11char_traitsIcESaIcEEESt4pairIKS5_S5_ESt10_Select1stIS8_ESt4lessIS5_ESaIS8_EE12_M_drop_nodeEPSt13_Rb_tree_nodeIS8_E
FNDA:34,_ZNSt8_Rb_treeIsSt4pairIKsSt3setImSt4lessImESaImEEESt10_Select1stIS7_ES3_IsESaIS7_EE22_M_emplace_hint_uniqueIJRKSt21piecewise_construct_tSt5tupleIJRS1_EESH_IJEEEEESt17_Rb_tree_iteratorIS7_ESt23_Rb_tree_const_iteratorIS7_EDpOT_
FNDA:5,_ZNSt8_Rb_treeIsSt4pairIKsSt3setISt6vectorImSaImEESt4lessIS5_ESaIS5_EEESt10_Select1stISA_ES6_IsESaISA_EE14_M_create_nodeIJRKSt21piecewise_construct_tSt5tupleIJRS1_EESK_IJEEEEEPSt13_Rb_tree_nodeISA_EDpOT_
FNDA:222,_ZNSt8_Rb_treeISt6vectorImSaImEES2_St9_IdentityIS2_ESt4lessIS2_ESaIS2_EE8_M_eraseEPSt13_Rb_tree_nodeIS2_E
FNDA:0,_ZNKSt8_Rb_treeI13MooseEnumItemS0_St9_IdentityIS0_ESt4lessIS0_ESaIS0_EE4findERKS0_
FNDA:0,_ZNSt8_Rb_treeIN5Moose7FaceArgESt4pairIKS1_dESt10_Select1stIS4_ESt4lessIS1_ESaIS4_EE29_M_get_insert_hint_unique_posESt23_Rb_tree_const_iteratorIS4_ERS3_
FNDA:5,_ZNSt8_Rb_treeISt6vectorImSaImEES2_St9_IdentityIS2_ESt4lessIS2_ESaIS2_EEC2ERKS8_
FNDA:1472,_ZNSt8_Rb_treeI13MooseEnumItemSt4pairIKS0_S0_ESt10_Select1stIS3_ESt4lessIS0_ESaIS3_EE8_M_eraseEPSt13_Rb_tree_nodeIS3_E
FNDA:5,_ZNSt8_Rb_treeIsSt4pairIKsSt3setISt6vectorImSaImEESt4lessIS5_ESaIS5_EEESt10_Select1stISA_ES6_IsESaISA_EE24_M_get_insert_unique_posERS1_
FNDA:0,_ZNSt8_Rb_treeImSt4pairIKmjESt10_Select1stIS2_ESt4lessImESaIS2_EE29_M_get_insert_hint_unique_posESt23_Rb_tree_const_iteratorIS2_ERS1_
FNDA:0,_ZNSt8_Rb_treeIN5Moose7ElemArgESt4pairIKS1_N11MetaPhysicL10DualNumberIdNS4_28SemiDynamicSparseNumberArrayIdmNS4_8NWrapperILm64EEEEELb1EEEESt10_Select1stISB_ESt4lessIS1_ESaISB_EE24_M_get_insert_unique_posERS3_
FNDA:52,_ZNSt8_Rb_treeINSt7__cxx1112basic_stringIcSt11char_traitsIcESaIcEEES5_St9_IdentityIS5_ESt4lessIS5_ESaIS5_EE17_M_construct_nodeIJRKS5_EEEvPSt13_Rb_tree_nodeIS5_EDpOT_
FNDA:0,_ZNKSt8_Rb_treeImmSt9_IdentityImESt4lessImESaImEE4findERKm
FNDA:0,_ZNSt8_Rb_treeImSt4pairIKmjESt10_Select1stIS2_ESt4lessImESaIS2_EE24_M_get_insert_unique_posERS1_
FNDA:111,_ZNSt8_Rb_treeImSt4pairIKmjESt10_Select1stIS2_ESt4lessImESaIS2_EE8_M_eraseEPSt13_Rb_tree_nodeIS2_E
FNDA:1144,_ZNSt8_Rb_treeINSt7__cxx1112basic_stringIcSt11char_traitsIcESaIcEEESt4pairIKS5_S5_ESt10_Select1stIS8_ESt4lessIS5_ESaIS8_EE14_M_lower_boundEPSt13_Rb_tree_nodeIS8_EPSt18_Rb_tree_node_baseRS7_
FNDA:0,_ZNSt8_Rb_treeIN5Moose7NodeArgESt4pairIKS1_N11MetaPhysicL10DualNumberIdNS4_28SemiDynamicSparseNumberArrayIdmNS4_8NWrapperILm64EEEEELb1EEEESt10_Select1stISB_ESt4lessIS1_ESaISB_EE5clearEv
FNDA:0,_ZNSt8_Rb_treeINSt7__cxx1112basic_stringIcSt11char_traitsIcESaIcEEES5_St9_IdentityIS5_ESt4lessIS5_ESaIS5_EE16_M_insert_uniqueIRKS5_EESt4pairISt17_Rb_tree_iteratorIS5_EbEOT_
FNDA:0,_ZNSt8_Rb_treeIN5Moose7NodeArgESt4pairIKS1_dESt10_Select1stIS4_ESt4lessIS1_ESaIS4_EE8_M_eraseEPSt13_Rb_tree_nodeIS4_E
FNDA:0,_ZNSt8_Rb_treeINSt7__cxx1112basic_stringIcSt11char_traitsIcESaIcEEESt4pairIKS5_St10unique_ptrI23AppFactoryBuildInfoBaseSt14default_deleteIS9_EEESt10_Select1stISD_ESt4lessIS5_ESaISD_EE14_M_insert_nodeEPSt18_Rb_tree_node_baseSL_PSt13_Rb_tree_nodeISD_E
FNDA:0,_ZNSt8_Rb_treeIN5Moose7FaceArgESt4pairIKS1_dESt10_Select1stIS4_ESt4lessIS1_ESaIS4_EE10_Auto_node9_M_insertES2_IPSt18_Rb_tree_node_baseSD_E
FNDA:154,_ZNSt8_Rb_treeINSt7__cxx1112basic_stringIcSt11char_traitsIcESaIcEEESt4pairIKS5_St10unique_ptrIN7libMesh10Parameters5ValueESt14default_deleteISB_EEESt10_Select1stISF_ESt4lessIvESaISF_EE14_M_insert_nodeEPSt18_Rb_tree_node_baseSN_PSt13_Rb_tree_nodeISF_E
FNDA:0,_ZNSt8_Rb_treeIN5Moose7FaceArgESt4pairIKS1_N11MetaPhysicL10DualNumberIdNS4_28SemiDynamicSparseNumberArrayIdmNS4_8NWrapperILm64EEEEELb1EEEESt10_Select1stISB_ESt4lessIS1_ESaISB_EE14_M_insert_nodeEPSt18_Rb_tree_node_baseSJ_PSt13_Rb_tree_nodeISB_E
FNDA:0,_ZNSt8_Rb_treeIN5Moose7FaceArgESt4pairIKS1_N11MetaPhysicL10DualNumberIdNS4_28SemiDynamicSparseNumberArrayIdmNS4_8NWrapperILm64EEEEELb1EEEESt10_Select1stISB_ESt4lessIS1_ESaISB_EE8_M_eraseEPSt13_Rb_tree_nodeISB_E
FNDA:0,_ZNSt8_Rb_treeIN5Moose7FaceArgESt4pairIKS1_N11MetaPhysicL10DualNumberIdNS4_28SemiDynamicSparseNumberArrayIdmNS4_8NWrapperILm64EEEEELb1EEEESt10_Select1stISB_ESt4lessIS1_ESaISB_EE5clearEv
FNDA:0,_ZNSt8_Rb_treeI13MooseEnumItemS0_St9_IdentityIS0_ESt4lessIS0_ESaIS0_EE20_Reuse_or_alloc_nodeC2ERS6_
FNDA:456,_ZNSt8_Rb_treeImSt4pairIKmSt6vectorImSaImEEESt10_Select1stIS5_ESt4lessImESaIS5_EE14_M_insert_nodeEPSt18_Rb_tree_node_baseSD_PSt13_Rb_tree_nodeIS5_E
FNDA:52,_ZNSt8_Rb_treeINSt7__cxx1112basic_stringIcSt11char_traitsIcESaIcEEES5_St9_IdentityIS5_ESt4lessIS5_ESaIS5_EE10_M_insert_IRKS5_NSB_11_Alloc_nodeEEESt17_Rb_tree_iteratorIS5_EPSt18_Rb_tree_node_baseSJ_OT_RT0_
FNDA:0,_ZNSt8_Rb_treeI13MooseEnumItemSt4pairIKS0_S0_ESt10_Select1stIS3_ESt4lessIS0_ESaIS3_EE20_Reuse_or_alloc_node10_M_extractEv
FNDA:0,_ZNSt8_Rb_treeINSt7__cxx1112basic_stringIcSt11char_traitsIcESaIcEEESt4pairIKS5_St10unique_ptrIN7libMesh10Parameters5ValueESt14default_deleteISB_EEESt10_Select1stISF_ESt4lessIvESaISF_EE5clearEv
FNDA:0,_ZNSt8_Rb_treeINSt7__cxx1112basic_stringIcSt11char_traitsIcESaIcEEESt4pairIKS5_St6vectorISt10shared_ptrI17RegistryEntryBaseESaISB_EEESt10_Select1stISE_ESt4lessIS5_ESaISE_EE24_M_get_insert_unique_posERS7_
FNDA:46,_ZNSt8_Rb_treeI14UserObjectNameS0_St9_IdentityIS0_ESt4lessIS0_ESaIS0_EE8_M_eraseEPSt13_Rb_tree_nodeIS0_E
FNDA:5,_ZNSt8_Rb_treeImmSt9_IdentityImESt4lessImESaImEEC2ERKS5_
FNDA:52,_ZNSt8_Rb_treeINSt7__cxx1112basic_stringIcSt11char_traitsIcESaIcEEES5_St9_IdentityIS5_ESt4lessIS5_ESaIS5_EE17_M_insert_unique_IRKS5_NSB_11_Alloc_nodeEEESt17_Rb_tree_iteratorIS5_ESt23_Rb_tree_const_iteratorIS5_EOT_RT0_
FNDA:0,_ZNSt8_Rb_treeI13MooseEnumItemSt4pairIKS0_S0_ESt10_Select1stIS3_ESt4lessIS0_ESaIS3_EE14_M_create_nodeIJRKS3_EEEPSt13_Rb_tree_nodeIS3_EDpOT_
FNDA:0,_ZNSt8_Rb_treeIN5Moose7FaceArgESt4pairIKS1_N11MetaPhysicL10DualNumberIdNS4_28SemiDynamicSparseNumberArrayIdmNS4_8NWrapperILm64EEEEELb1EEEESt10_Select1stISB_ESt4lessIS1_ESaISB_EE14_M_lower_boundEPSt13_Rb_tree_nodeISB_EPSt18_Rb_tree_node_baseRS3_
FNDA:0,_ZNSt8_Rb_treeIN5Moose7FaceArgESt4pairIKS1_N11MetaPhysicL10DualNumberIdNS4_28SemiDynamicSparseNumberArrayIdmNS4_8NWrapperILm64EEEEELb1EEEESt10_Select1stISB_ESt4lessIS1_ESaISB_EE24_M_get_insert_unique_posERS3_
FNDA:154,_ZNSt8_Rb_treeINSt7__cxx1112basic_stringIcSt11char_traitsIcESaIcEEESt4pairIKS5_St10unique_ptrIN7libMesh10Parameters5ValueESt14default_deleteISB_EEESt10_Select1stISF_ESt4lessIvESaISF_EE22_M_emplace_hint_uniqueIJRKSt21piecewise_construct_tSt5tupleIJRS7_EESQ_IJEEEEESt17_Rb_tree_iteratorISF_ESt23_Rb_tree_const_iteratorISF_EDpOT_
FNDA:0,_ZNSt8_Rb_treeI13MooseEnumItemS0_St9_IdentityIS0_ESt4lessIS0_ESaIS0_EEaSERKS6_
FNDA:154,_ZNSt8_Rb_treeINSt7__cxx1112basic_stringIcSt11char_traitsIcESaIcEEESt4pairIKS5_N15InputParameters8MetadataEESt10_Select1stISA_ESt4lessIS5_ESaISA_EE14_M_insert_nodeEPSt18_Rb_tree_node_baseSI_PSt13_Rb_tree_nodeISA_E
FNDA:689044,_ZNSt8_Rb_treeINSt7__cxx1112basic_stringIcSt11char_traitsIcESaIcEEESt4pairIKS5_St10unique_ptrIN7libMesh10Parameters5ValueESt14default_deleteISB_EEESt10_Select1stISF_ESt4lessIvESaISF_EE24_M_get_insert_unique_posERS7_
FNDA:0,_ZNSt8_Rb_treeI17PostprocessorNameSt4pairIKS0_St10unique_ptrIdSt14default_deleteIdEEESt10_Select1stIS7_ESt4lessIS0_ESaIS7_EE12_M_drop_nodeEPSt13_Rb_tree_nodeIS7_E
FNDA:106,_ZNSt8_Rb_treeImmSt9_IdentityImESt4lessImESaImEE13_M_clone_nodeILb0ENS5_11_Alloc_nodeEEEPSt13_Rb_tree_nodeImESA_RT0_
FNDA:0,_ZNSt8_Rb_treeIN5Moose7FaceArgESt4pairIKS1_dESt10_Select1stIS4_ESt4lessIS1_ESaIS4_EE10_Auto_nodeD2Ev
FNDA:1472,_ZNSt8_Rb_treeI13MooseEnumItemSt4pairIKS0_NSt7__cxx1112basic_stringIcSt11char_traitsIcESaIcEEEESt10_Select1stIS9_ESt4lessIS0_ESaIS9_EE8_M_eraseEPSt13_Rb_tree_nodeIS9_E
FNDA:0,_ZNSt8_Rb_treeINSt7__cxx1112basic_stringIcSt11char_traitsIcESaIcEEESt4pairIKS5_St10unique_ptrI23AppFactoryBuildInfoBaseSt14default_deleteIS9_EEESt10_Select1stISD_ESt4lessIS5_ESaISD_EE14_M_create_nodeIJRKSt21piecewise_construct_tSt5tupleIJRS7_EESO_IJEEEEEPSt13_Rb_tree_nodeISD_EDpOT_
FNDA:0,_ZNSt8_Rb_treeINSt7__cxx1112basic_stringIcSt11char_traitsIcESaIcEEESt4pairIKS5_St10unique_ptrI23AppFactoryBuildInfoBaseSt14default_deleteIS9_EEESt10_Select1stISD_ESt4lessIS5_ESaISD_EE14_M_lower_boundEPSt13_Rb_tree_nodeISD_EPSt18_Rb_tree_node_baseRS7_
FNDA:597,_ZNSt8_Rb_treeIP22MooseVariableFieldBaseS1_St9_IdentityIS1_ESt4lessIS1_ESaIS1_EE8_M_eraseEPSt13_Rb_tree_nodeIS1_E
FNDA:0,_ZNSt8_Rb_treeImSt4pairIKmjESt10_Select1stIS2_ESt4lessImESaIS2_EE22_M_emplace_hint_uniqueIJRKSt21piecewise_construct_tSt5tupleIJOmEESD_IJEEEEESt17_Rb_tree_iteratorIS2_ESt23_Rb_tree_const_iteratorIS2_EDpOT_
FNDA:1708,_ZNSt8_Rb_treeIjjSt9_IdentityIjESt4lessIjESaIjEE8_M_eraseEPSt13_Rb_tree_nodeIjE
FNDA:0,_ZNSt8_Rb_treeIN5Moose7FaceArgESt4pairIKS1_N11MetaPhysicL10DualNumberIdNS4_28SemiDynamicSparseNumberArrayIdmNS4_8NWrapperILm64EEEEELb1EEEESt10_Select1stISB_ESt4lessIS1_ESaISB_EE10_Auto_nodeD2Ev
FNDA:34,_ZNSt8_Rb_treeIsSt4pairIKsSt3setImSt4lessImESaImEEESt10_Select1stIS7_ES3_IsESaIS7_EE10_Auto_node9_M_insertES0_IPSt18_Rb_tree_node_baseSF_E
FNDA:34,_ZNSt8_Rb_treeIsSt4pairIKsSt3setImSt4lessImESaImEEESt10_Select1stIS7_ES3_IsESaIS7_EE12_M_drop_nodeEPSt13_Rb_tree_nodeIS7_E
FNDA:1144,_ZNSt8_Rb_treeINSt7__cxx1112basic_stringIcSt11char_traitsIcESaIcEEESt4pairIKS5_S5_ESt10_Select1stIS8_ESt4lessIS5_ESaIS8_EE22_M_emplace_hint_uniqueIJRKSt21piecewise_construct_tSt5tupleIJOS5_EESJ_IJEEEEESt17_Rb_tree_iteratorIS8_ESt23_Rb_tree_const_iteratorIS8_EDpOT_
FNDA:0,_ZNSt8_Rb_treeINSt7__cxx1112basic_stringIcSt11char_traitsIcESaIcEEESt4pairIKS5_St10unique_ptrI23AppFactoryBuildInfoBaseSt14default_deleteIS9_EEESt10_Select1stISD_ESt4lessIS5_ESaISD_EE12_M_drop_nodeEPSt13_Rb_tree_nodeISD_E
FNDA:0,_ZNSt8_Rb_treeImmSt9_IdentityImESt4lessImESaImEE16_M_insert_uniqueIRKmEESt4pairISt17_Rb_tree_iteratorImEbEOT_
FNDA:0,_ZNSt8_Rb_treeINSt7__cxx1112basic_stringIcSt11char_traitsIcESaIcEEESt4pairIKS5_St10unique_ptrI23AppFactoryBuildInfoBaseSt14default_deleteIS9_EEESt10_Select1stISD_ESt4lessIS5_ESaISD_EE17_M_construct_nodeIJRKSt21piecewise_construct_tSt5tupleIJRS7_EESO_IJEEEEEvPSt13_Rb_tree_nodeISD_EDpOT_
FNDA:0,_ZNSt8_Rb_treeIN5Moose7ElemArgESt4pairIKS1_dESt10_Select1stIS4_ESt4lessIS1_ESaIS4_EE8_M_eraseEPSt13_Rb_tree_nodeIS4_E
FNDA:0,_ZNSt8_Rb_treeI13MooseEnumItemS0_St9_IdentityIS0_ESt4lessIS0_ESaIS0_EE17_M_construct_nodeIJRKS0_EEEvPSt13_Rb_tree_nodeIS0_EDpOT_
FNDA:52,_ZNSt8_Rb_treeINSt7__cxx1112basic_stringIcSt11char_traitsIcESaIcEEESt4pairIKS5_St6vectorISt10shared_ptrI17RegistryEntryBaseESaISB_EEESt10_Select1stISE_ESt4lessIS5_ESaISE_EE14_M_insert_nodeEPSt18_Rb_tree_node_baseSM_PSt13_Rb_tree_nodeISE_E
FNDA:0,_ZNSt8_Rb_treeImSt4pairIKmSt6vectorImSaImEEESt10_Select1stIS5_ESt4lessImESaIS5_EE22_M_emplace_hint_uniqueIJRKSt21piecewise_construct_tSt5tupleIJRS1_EESG_IJEEEEESt17_Rb_tree_iteratorIS5_ESt23_Rb_tree_const_iteratorIS5_EDpOT_
FNDA:426,_ZNSt8_Rb_treeImmSt9_IdentityImESt4lessImESaImEE16_M_insert_uniqueImEESt4pairISt17_Rb_tree_iteratorImEbEOT_
FNDA:0,_ZNSt8_Rb_treeI13MooseEnumItemSt4pairIKS0_NSt7__cxx1112basic_stringIcSt11char_traitsIcESaIcEEEESt10_Select1stIS9_ESt4lessIS0_ESaIS9_EE20_Reuse_or_alloc_nodeC2ERSF_
FNDA:0,_ZNSt8_Rb_treeImSt4pairIKmSt6vectorImSaImEEESt10_Select1stIS5_ESt4lessImESaIS5_EE14_M_create_nodeIJRKSt21piecewise_construct_tSt5tupleIJRS1_EESG_IJEEEEEPSt13_Rb_tree_nodeIS5_EDpOT_
FNDA:0,_ZNSt8_Rb_treeI13MooseEnumItemSt4pairIKS0_NSt7__cxx1112basic_stringIcSt11char_traitsIcESaIcEEEESt10_Select1stIS9_ESt4lessIS0_ESaIS9_EEaSERKSF_
FNDA:0,_ZNSt8_Rb_treeIN5Moose7FaceArgESt4pairIKS1_N11MetaPhysicL10DualNumberIdNS4_28SemiDynamicSparseNumberArrayIdmNS4_8NWrapperILm64EEEEELb1EEEESt10_Select1stISB_ESt4lessIS1_ESaISB_EE14_M_create_nodeIJRKSt21piecewise_construct_tSt5tupleIJRS3_EESM_IJOSA_EEEEEPSt13_Rb_tree_nodeISB_EDpOT_
FNDA:154,_ZNSt8_Rb_treeINSt7__cxx1112basic_stringIcSt11char_traitsIcESaIcEEESt4pairIKS5_St10unique_ptrIN7libMesh10Parameters5ValueESt14default_deleteISB_EEESt10_Select1stISF_ESt4lessIvESaISF_EE14_M_lower_boundEPSt13_Rb_tree_nodeISF_EPSt18_Rb_tree_node_baseRS7_
FNDA:0,_ZNSt8_Rb_treeIN5Moose7ElemArgESt4pairIKS1_N11MetaPhysicL10DualNumberIdNS4_28SemiDynamicSparseNumberArrayIdmNS4_8NWrapperILm64EEEEELb1EEEESt10_Select1stISB_ESt4lessIS1_ESaISB_EE22_M_emplace_hint_uniqueIJRKSt21piecewise_construct_tSt5tupleIJRS3_EESM_IJOSA_EEEEESt17_Rb_tree_iteratorISB_ESt23_Rb_tree_const_iteratorISB_EDpOT_
FNDA:1144,_ZNSt8_Rb_treeINSt7__cxx1112basic_stringIcSt11char_traitsIcESaIcEEESt4pairIKS5_St6vectorISt10shared_ptrI17RegistryEntryBaseESaISB_EEESt10_Select1stISE_ESt4lessIS5_ESaISE_EE14_M_lower_boundEPSt13_Rb_tree_nodeISE_EPSt18_Rb_tree_node_baseRS7_
FNDA:531,_ZNSt8_Rb_treeIssSt9_IdentityIsESt4lessIsESaIsEE8_M_eraseEPSt13_Rb_tree_nodeIsE
FNDA:44,_ZNSt8_Rb_treeIsSt4pairIKsSt3setImSt4lessImESaImEEESt10_Select1stIS7_ES3_IsESaIS7_EE8_M_eraseEPSt13_Rb_tree_nodeIS7_E
FNDA:5,_ZNSt8_Rb_treeIsSt4pairIKsSt3setISt6vectorImSaImEESt4lessIS5_ESaIS5_EEESt10_Select1stISA_ES6_IsESaISA_EE14_M_insert_nodeEPSt18_Rb_tree_node_baseSH_PSt13_Rb_tree_nodeISA_E
FNDA:5,_ZNSt8_Rb_treeIsSt4pairIKsSt3setISt6vectorImSaImEESt4lessIS5_ESaIS5_EEESt10_Select1stISA_ES6_IsESaISA_EE29_M_get_insert_hint_unique_posESt23_Rb_tree_const_iteratorISA_ERS1_
FNDA:0,_ZNSt8_Rb_treeI13MooseEnumItemSt4pairIKS0_S0_ESt10_Select1stIS3_ESt4lessIS0_ESaIS3_EE7_M_copyILb0ENS9_20_Reuse_or_alloc_nodeEEEPSt13_Rb_tree_nodeIS3_ESE_PSt18_Rb_tree_node_baseRT0_
FNDA:297,_ZNSt8_Rb_treeI17PostprocessorNameSt4pairIKS0_St10unique_ptrIdSt14default_deleteIdEEESt10_Select1stIS7_ESt4lessIS0_ESaIS7_EE8_M_eraseEPSt13_Rb_tree_nodeIS7_E
FNDA:0,_ZNSt8_Rb_treeImmSt9_IdentityImESt4lessImESaImEE24_M_get_insert_unique_posERKm
FNDA:0,_ZNSt8_Rb_treeI13MooseEnumItemSt4pairIKS0_NSt7__cxx1112basic_stringIcSt11char_traitsIcESaIcEEEESt10_Select1stIS9_ESt4lessIS0_ESaIS9_EE14_M_create_nodeIJRKS9_EEEPSt13_Rb_tree_nodeIS9_EDpOT_
FNDA:461,_ZNSt8_Rb_treeImSt4pairIKmSt6vectorImSaImEEESt10_Select1stIS5_ESt4lessImESaIS5_EE8_M_eraseEPSt13_Rb_tree_nodeIS5_E
FNDA:0,_ZNSt8_Rb_treeINSt7__cxx1112basic_stringIcSt11char_traitsIcESaIcEEESt4pairIKS5_St6vectorISt10shared_ptrI17RegistryEntryBaseESaISB_EEESt10_Select1stISE_ESt4lessIS5_ESaISE_EE12_M_drop_nodeEPSt13_Rb_tree_nodeISE_E
FNDA:0,_ZNSt8_Rb_treeImmSt9_IdentityImESt4lessImESaImEE10_M_insert_IRKmNS5_11_Alloc_nodeEEESt17_Rb_tree_iteratorImEPSt18_Rb_tree_node_baseSD_OT_RT0_
FNDA:0,_ZNSt8_Rb_treeIN5Moose7ElemArgESt4pairIKS1_N11MetaPhysicL10DualNumberIdNS4_28SemiDynamicSparseNumberArrayIdmNS4_8NWrapperILm64EEEEELb1EEEESt10_Select1stISB_ESt4lessIS1_ESaISB_EE5clearEv
FNDA:988,_ZNSt8_Rb_treeINSt7__cxx1112basic_stringIcSt11char_traitsIcESaIcEEESt4pairIKS5_St10unique_ptrIN7libMesh10Parameters5ValueESt14default_deleteISB_EEESt10_Select1stISF_ESt4lessIvESaISF_EE8_M_eraseEPSt13_Rb_tree_nodeISF_E
FNDA:962,_ZNSt8_Rb_treeINSt7__cxx1112basic_stringIcSt11char_traitsIcESaIcEEESt4pairIKS5_N15InputParameters8MetadataEESt10_Select1stISA_ESt4lessIS5_ESaISA_EE12_M_drop_nodeEPSt13_Rb_tree_nodeISA_E
FNDA:154,_ZNKSt8_Rb_treeINSt7__cxx1112basic_stringIcSt11char_traitsIcESaIcEEESt4pairIKS5_St10unique_ptrIN7libMesh10Parameters5ValueESt14default_deleteISB_EEESt10_Select1stISF_ESt4lessIvESaISF_EE10_M_find_trISt17basic_string_viewIcS3_EvEESt23_Rb_tree_const_iteratorISF_ERKT_
FNDA:154,_ZNSt8_Rb_treeINSt7__cxx1112basic_stringIcSt11char_traitsIcESaIcEEESt4pairIKS5_N15InputParameters8MetadataEESt10_Select1stISA_ESt4lessIS5_ESaISA_EE22_M_emplace_hint_uniqueIJRKSt21piecewise_construct_tSt5tupleIJRS7_EESL_IJEEEEESt17_Rb_tree_iteratorISA_ESt23_Rb_tree_const_iteratorISA_EDpOT_
FNDA:0,_ZNSt8_Rb_treeIN5Moose7ElemArgESt4pairIKS1_dESt10_Select1stIS4_ESt4lessIS1_ESaIS4_EE29_M_get_insert_hint_unique_posESt23_Rb_tree_const_iteratorIS4_ERS3_
FNDA:0,_ZNSt8_Rb_treeIN5Moose7FaceArgESt4pairIKS1_dESt10_Select1stIS4_ESt4lessIS1_ESaIS4_EE14_M_lower_boundEPSt13_Rb_tree_nodeIS4_EPSt18_Rb_tree_node_baseRS3_
FNDA:0,_ZNKSt8_Rb_treeINSt7__cxx1112basic_stringIcSt11char_traitsIcESaIcEEESt4pairIKS5_St10unique_ptrIN7libMesh10Parameters5ValueESt14default_deleteISB_EEESt10_Select1stISF_ESt4lessIvESaISF_EE4findERS7_
FNDA:456,_ZNSt8_Rb_treeImSt4pairIKmSt6vectorImSaImEEESt10_Select1stIS5_ESt4lessImESaIS5_EE14_M_create_nodeIJRKSt21piecewise_construct_tSt5tupleIJOmEESG_IJEEEEEPSt13_Rb_tree_nodeIS5_EDpOT_
FNDA:154,_ZNSt8_Rb_treeINSt7__cxx1112basic_stringIcSt11char_traitsIcESaIcEEESt4pairIKS5_N15InputParameters8MetadataEESt10_Select1stISA_ESt4lessIS5_ESaISA_EE10_Auto_node9_M_insertES6_IPSt18_Rb_tree_node_baseSJ_E
FNDA:212,_ZNSt8_Rb_treeISt6vectorImSaImEES2_St9_IdentityIS2_ESt4lessIS2_ESaIS2_EE14_M_create_nodeIJRKS2_EEEPSt13_Rb_tree_nodeIS2_EDpOT_
FNDA:34,_ZNSt8_Rb_treeIsSt4pairIKsSt3setImSt4lessImESaImEEESt10_Select1stIS7_ES3_IsESaIS7_EE14_M_create_nodeIJRKSt21piecewise_construct_tSt5tupleIJRS1_EESH_IJEEEEEPSt13_Rb_tree_nodeIS7_EDpOT_
FNDA:0,_ZNSt8_Rb_treeIN5Moose7FaceArgESt4pairIKS1_dESt10_Select1stIS4_ESt4lessIS1_ESaIS4_EE24_M_get_insert_unique_posERS3_
FNDA:5,_ZNSt8_Rb_treeImmSt9_IdentityImESt4lessImESaImEE7_M_copyILb0ENS5_11_Alloc_nodeEEEPSt13_Rb_tree_nodeImERKS5_RT0_
FNDA:0,_ZNSt8_Rb_treeI13MooseEnumItemS0_St9_IdentityIS0_ESt4lessIS0_ESaIS0_EE7_M_copyILb0ENS6_20_Reuse_or_alloc_nodeEEEPSt13_Rb_tree_nodeIS0_ERKS6_RT0_
FNDA:0,_ZNSt8_Rb_treeImSt4pairIKmjESt10_Select1stIS2_ESt4lessImESaIS2_EE14_M_insert_nodeEPSt18_Rb_tree_node_baseSA_PSt13_Rb_tree_nodeIS2_E
FNDA:106,_ZNSt8_Rb_treeISt6vectorImSaImEES2_St9_IdentityIS2_ESt4lessIS2_ESaIS2_EE24_M_get_insert_unique_posERKS2_
FNDA:212,_ZNSt8_Rb_treeISt6vectorImSaImEES2_St9_IdentityIS2_ESt4lessIS2_ESaIS2_EE17_M_construct_nodeIJRKS2_EEEvPSt13_Rb_tree_nodeIS2_EDpOT_
FNDA:52,_ZNSt8_Rb_treeINSt7__cxx1112basic_stringIcSt11char_traitsIcESaIcEEES5_St9_IdentityIS5_ESt4lessIS5_ESaIS5_EE22_M_insert_range_uniqueIPKS5_EENSt9enable_ifIXsrSt7is_sameIS5_NSt15iterator_traitsIT_E10value_typeEE5valueEvE4typeESI_SI_
FNDA:55,_ZNSt8_Rb_treeImmSt9_IdentityImESt4lessImESaImEE7_M_copyILb0ENS5_11_Alloc_nodeEEEPSt13_Rb_tree_nodeImESA_PSt18_Rb_tree_node_baseRT0_
FNDA:20,_ZNSt8_Rb_treeIPK13MeshGeneratorS2_St9_IdentityIS2_ENS0_10ComparatorESaIS2_EE8_M_eraseEPSt13_Rb_tree_nodeIS2_E
FNDA:0,_ZNSt8_Rb_treeImSt4pairIKmjESt10_Select1stIS2_ESt4lessImESaIS2_EE10_Auto_nodeD2Ev
FNDA:456,_ZNSt8_Rb_treeImSt4pairIKmSt6vectorImSaImEEESt10_Select1stIS5_ESt4lessImESaIS5_EE10_Auto_nodeD2Ev
FNDA:0,_ZNSt8_Rb_treeImSt4pairIKmjESt10_Select1stIS2_ESt4lessImESaIS2_EE10_Auto_nodeC2IJRKSt21piecewise_construct_tSt5tupleIJOmEESE_IJEEEEERS8_DpOT_
FNDA:5,_ZNSt8_Rb_treeISt6vectorImSaImEES2_St9_IdentityIS2_ESt4lessIS2_ESaIS2_EE7_M_copyILb0ENS8_11_Alloc_nodeEEEPSt13_Rb_tree_nodeIS2_ERKS8_RT0_
FNDA:0,_ZNSt8_Rb_treeIN5Moose7ElemArgESt4pairIKS1_N11MetaPhysicL10DualNumberIdNS4_28SemiDynamicSparseNumberArrayIdmNS4_8NWrapperILm64EEEEELb1EEEESt10_Select1stISB_ESt4lessIS1_ESaISB_EE14_M_insert_nodeEPSt18_Rb_tree_node_baseSJ_PSt13_Rb_tree_nodeISB_E
FNDA:0,_ZNSt8_Rb_treeI13MooseEnumItemSt4pairIKS0_S0_ESt10_Select1stIS3_ESt4lessIS0_ESaIS3_EE20_Reuse_or_alloc_nodeclIRKS3_EEPSt13_Rb_tree_nodeIS3_EOT_
FNDA:5,_ZNSt8_Rb_treeIsSt4pairIKsSt3setISt6vectorImSaImEESt4lessIS5_ESaIS5_EEESt10_Select1stISA_ES6_IsESaISA_EE10_Auto_node9_M_insertES0_IPSt18_Rb_tree_node_baseSI_E
FNDA:0,_ZNSt8_Rb_treeI13MooseEnumItemSt4pairIKS0_NSt7__cxx1112basic_stringIcSt11char_traitsIcESaIcEEEESt10_Select1stIS9_ESt4lessIS0_ESaIS9_EE17_M_construct_nodeIJRKS9_EEEvPSt13_Rb_tree_nodeIS9_EDpOT_
FNDA:0,_ZNSt8_Rb_treeIN5Moose7ElemArgESt4pairIKS1_N11MetaPhysicL10DualNumberIdNS4_28SemiDynamicSparseNumberArrayIdmNS4_8NWrapperILm64EEEEELb1EEEESt10_Select1stISB_ESt4lessIS1_ESaISB_EE8_M_eraseEPSt13_Rb_tree_nodeISB_E
FNDA:0,_ZNSt8_Rb_treeINSt7__cxx1112basic_stringIcSt11char_traitsIcESaIcEEESt4pairIKS5_N15InputParameters8MetadataEESt10_Select1stISA_ESt4lessIS5_ESaISA_EE24_M_get_insert_unique_posERS7_
FNDA:5,_ZNSt8_Rb_treeIssSt9_IdentityIsESt4lessIsESaIsEE10_M_insert_IsNS5_11_Alloc_nodeEEESt17_Rb_tree_iteratorIsEPSt18_Rb_tree_node_baseSB_OT_RT0_
FNDA:0,_ZNSt8_Rb_treeIN5Moose7FaceArgESt4pairIKS1_dESt10_Select1stIS4_ESt4lessIS1_ESaIS4_EE8_M_eraseEPSt13_Rb_tree_nodeIS4_E
FNDA:326,_ZNSt8_Rb_treeI10OutputNameS0_St9_IdentityIS0_ESt4lessIS0_ESaIS0_EE8_M_eraseEPSt13_Rb_tree_nodeIS0_E
FNDA:0,_ZNSt8_Rb_treeI13MooseEnumItemS0_St9_IdentityIS0_ESt4lessIS0_ESaIS0_EE7_M_copyILb0ENS6_20_Reuse_or_alloc_nodeEEEPSt13_Rb_tree_nodeIS0_ESB_PSt18_Rb_tree_node_baseRT0_
FNDA:52,_ZNSt8_Rb_treeINSt7__cxx1112basic_stringIcSt11char_traitsIcESaIcEEESt4pairIKS5_St6vectorISt10shared_ptrI17RegistryEntryBaseESaISB_EEESt10_Select1stISE_ESt4lessIS5_ESaISE_EE22_M_emplace_hint_uniqueIJRKSt21piecewise_construct_tSt5tupleIJRS7_EESP_IJEEEEESt17_Rb_tree_iteratorISE_ESt23_Rb_tree_const_iteratorISE_EDpOT_
FNDA:0,_ZNSt8_Rb_treeIN5Moose7ElemArgESt4pairIKS1_N11MetaPhysicL10DualNumberIdNS4_28SemiDynamicSparseNumberArrayIdmNS4_8NWrapperILm64EEEEELb1EEEESt10_Select1stISB_ESt4lessIS1_ESaISB_EE10_Auto_nodeD2Ev
FNDA:52,_ZNSt8_Rb_treeINSt7__cxx1112basic_stringIcSt11char_traitsIcESaIcEEESt4pairIKS5_St6vectorISt10shared_ptrI17RegistryEntryBaseESaISB_EEESt10_Select1stISE_ESt4lessIS5_ESaISE_EE14_M_create_nodeIJRKSt21piecewise_construct_tSt5tupleIJRS7_EESP_IJEEEEEPSt13_Rb_tree_nodeISE_EDpOT_
FNDA:0,_ZNSt8_Rb_treeImSt4pairIKmSt6vectorImSaImEEESt10_Select1stIS5_ESt4lessImESaIS5_EE29_M_get_insert_hint_unique_posESt23_Rb_tree_const_iteratorIS5_ERS1_
FNDA:106,_ZNSt8_Rb_treeISt6vectorImSaImEES2_St9_IdentityIS2_ESt4lessIS2_ESaIS2_EE16_M_insert_uniqueIRKS2_EESt4pairISt17_Rb_tree_iteratorIS2_EbEOT_
FNDA:0,_ZNSt8_Rb_treeIN5Moose7NodeArgESt4pairIKS1_dESt10_Select1stIS4_ESt4lessIS1_ESaIS4_EE5clearEv
FNDA:0,_ZNSt8_Rb_treeIN5Moose7ElemArgESt4pairIKS1_N11MetaPhysicL10DualNumberIdNS4_28SemiDynamicSparseNumberArrayIdmNS4_8NWrapperILm64EEEEELb1EEEESt10_Select1stISB_ESt4lessIS1_ESaISB_EE10_Auto_node9_M_insertES2_IPSt18_Rb_tree_node_baseSK_E
FNDA:0,_ZNKSt8_Rb_treeINSt7__cxx1112basic_stringIcSt11char_traitsIcESaIcEEESt4pairIKS5_St10unique_ptrIN7libMesh10Parameters5ValueESt14default_deleteISB_EEESt10_Select1stISF_ESt4lessIvESaISF_EE14_M_lower_boundEPKSt13_Rb_tree_nodeISF_EPKSt18_Rb_tree_node_baseRS7_
FNDA:0,_ZNSt8_Rb_treeINSt7__cxx1112basic_stringIcSt11char_traitsIcESaIcEEES5_St9_IdentityIS5_ESt4lessIS5_ESaIS5_EE24_M_get_insert_unique_posERKS5_
FNDA:0,_ZNSt8_Rb_treeINSt7__cxx1112basic_stringIcSt11char_traitsIcESaIcEEES5_St9_IdentityIS5_ESt4lessIS5_ESaIS5_EE29_M_get_insert_hint_unique_posESt23_Rb_tree_const_iteratorIS5_ERKS5_
FNDA:0,_ZNSt8_Rb_treeIN5Moose7FaceArgESt4pairIKS1_N11MetaPhysicL10DualNumberIdNS4_28SemiDynamicSparseNumberArrayIdmNS4_8NWrapperILm64EEEEELb1EEEESt10_Select1stISB_ESt4lessIS1_ESaISB_EE29_M_get_insert_hint_unique_posESt23_Rb_tree_const_iteratorISB_ERS3_
FNDA:0,_ZNSt8_Rb_treeIN5Moose7ElemArgESt4pairIKS1_dESt10_Select1stIS4_ESt4lessIS1_ESaIS4_EE10_Auto_nodeD2Ev
FNDA:52,_ZNSt8_Rb_treeINSt7__cxx1112basic_stringIcSt11char_traitsIcESaIcEEESt4pairIKS5_St6vectorISt10shared_ptrI17RegistryEntryBaseESaISB_EEESt10_Select1stISE_ESt4lessIS5_ESaISE_EE17_M_construct_nodeIJRKSt21piecewise_construct_tSt5tupleIJRS7_EESP_IJEEEEEvPSt13_Rb_tree_nodeISE_EDpOT_
FNDA:0,_ZNSt8_Rb_treeIsSt4pairIKsSt3setImSt4lessImESaImEEESt10_Select1stIS7_ES3_IsESaIS7_EE29_M_get_insert_hint_unique_posESt23_Rb_tree_const_iteratorIS7_ERS1_
FNDA:0,_ZNSt8_Rb_treeIN5Moose7ElemArgESt4pairIKS1_dESt10_Select1stIS4_ESt4lessIS1_ESaIS4_EE10_Auto_node9_M_insertES2_IPSt18_Rb_tree_node_baseSD_E
FNDA:15,_ZNSt8_Rb_treeI17MeshGeneratorNameS0_St9_IdentityIS0_ESt4lessIS0_ESaIS0_EE8_M_eraseEPSt13_Rb_tree_nodeIS0_E
FNDA:0,_ZNSt8_Rb_treeIN5Moose7ElemArgESt4pairIKS1_dESt10_Select1stIS4_ESt4lessIS1_ESaIS4_EE5clearEv
FNDA:962,_ZNSt8_Rb_treeINSt7__cxx1112basic_stringIcSt11char_traitsIcESaIcEEESt4pairIKS5_St10unique_ptrIN7libMesh10Parameters5ValueESt14default_deleteISB_EEESt10_Select1stISF_ESt4lessIvESaISF_EE12_M_drop_nodeEPSt13_Rb_tree_nodeISF_E
FNDA:0,_ZNSt8_Rb_treeI13MooseEnumItemSt4pairIKS0_NSt7__cxx1112basic_stringIcSt11char_traitsIcESaIcEEEESt10_Select1stIS9_ESt4lessIS0_ESaIS9_EE20_Reuse_or_alloc_node10_M_extractEv
FNDA:6782,_ZNSt8_Rb_treeI13MooseEnumItemS0_St9_IdentityIS0_ESt4lessIS0_ESaIS0_EE8_M_eraseEPSt13_Rb_tree_nodeIS0_E
FNDA:0,_ZNSt8_Rb_treeIN5Moose7FaceArgESt4pairIKS1_dESt10_Select1stIS4_ESt4lessIS1_ESaIS4_EE22_M_emplace_hint_uniqueIJRKSt21piecewise_construct_tSt5tupleIJRS3_EESF_IJOdEEEEESt17_Rb_tree_iteratorIS4_ESt23_Rb_tree_const_iteratorIS4_EDpOT_
FNDA:0,_ZNSt8_Rb_treeIN5Moose7FaceArgESt4pairIKS1_dESt10_Select1stIS4_ESt4lessIS1_ESaIS4_EE5clearEv
FNDA:0,_ZNSt8_Rb_treeIN5Moose7FaceArgESt4pairIKS1_dESt10_Select1stIS4_ESt4lessIS1_ESaIS4_EE14_M_insert_nodeEPSt18_Rb_tree_node_baseSC_PSt13_Rb_tree_nodeIS4_E
FNDA:0,_ZNSt8_Rb_treeIN5Moose7ElemArgESt4pairIKS1_N11MetaPhysicL10DualNumberIdNS4_28SemiDynamicSparseNumberArrayIdmNS4_8NWrapperILm64EEEEELb1EEEESt10_Select1stISB_ESt4lessIS1_ESaISB_EE29_M_get_insert_hint_unique_posESt23_Rb_tree_const_iteratorISB_ERS3_
FNDA:0,_ZNSt8_Rb_treeI13MooseEnumItemSt4pairIKS0_NSt7__cxx1112basic_stringIcSt11char_traitsIcESaIcEEEESt10_Select1stIS9_ESt4lessIS0_ESaIS9_EE7_M_copyILb0ENSF_20_Reuse_or_alloc_nodeEEEPSt13_Rb_tree_nodeIS9_ERKSF_RT0_
FNDA:1144,_ZNSt8_Rb_treeINSt7__cxx1112basic_stringIcSt11char_traitsIcESaIcEEESt4pairIKS5_S5_ESt10_Select1stIS8_ESt4lessIS5_ESaIS8_EE10_Auto_nodeD2Ev
FNDA:0,_ZNSt8_Rb_treeI13MooseEnumItemSt4pairIKS0_NSt7__cxx1112basic_stringIcSt11char_traitsIcESaIcEEEESt10_Select1stIS9_ESt4lessIS0_ESaIS9_EE20_Reuse_or_alloc_nodeclIRKS9_EEPSt13_Rb_tree_nodeIS9_EOT_
FNDA:350,_ZNSt8_Rb_treeINSt7__cxx1112basic_stringIcSt11char_traitsIcESaIcEEESt4pairIKS5_N15InputParameters8MetadataEESt10_Select1stISA_ESt4lessIS5_ESaISA_EE14_M_lower_boundEPSt13_Rb_tree_nodeISA_EPSt18_Rb_tree_node_baseRS7_
FNDA:0,_ZNSt8_Rb_treeIN5Moose7ElemArgESt4pairIKS1_dESt10_Select1stIS4_ESt4lessIS1_ESaIS4_EE14_M_insert_nodeEPSt18_Rb_tree_node_baseSC_PSt13_Rb_tree_nodeIS4_E
FNDA:0,_ZNSt8_Rb_treeIN5Moose7ElemArgESt4pairIKS1_N11MetaPhysicL10DualNumberIdNS4_28SemiDynamicSparseNumberArrayIdmNS4_8NWrapperILm64EEEEELb1EEEESt10_Select1stISB_ESt4lessIS1_ESaISB_EE14_M_create_nodeIJRKSt21piecewise_construct_tSt5tupleIJRS3_EESM_IJOSA_EEEEEPSt13_Rb_tree_nodeISB_EDpOT_
FNDA:154,_ZNSt8_Rb_treeINSt7__cxx1112basic_stringIcSt11char_traitsIcESaIcEEESt4pairIKS5_N15InputParameters8MetadataEESt10_Select1stISA_ESt4lessIS5_ESaISA_EE17_M_construct_nodeIJRKSt21piecewise_construct_tSt5tupleIJRS7_EESL_IJEEEEEvPSt13_Rb_tree_nodeISA_EDpOT_
FNDA:5,_ZNSt8_Rb_treeIsSt4pairIKsSt3setISt6vectorImSaImEESt4lessIS5_ESaIS5_EEESt10_Select1stISA_ES6_IsESaISA_EE12_M_drop_nodeEPSt13_Rb_tree_nodeISA_E
FNDA:0,_ZNSt8_Rb_treeImSt4pairIKmjESt10_Select1stIS2_ESt4lessImESaIS2_EE10_Auto_node9_M_insertES0_IPSt18_Rb_tree_node_baseSB_E
FNDA:5,_ZNSt8_Rb_treeIssSt9_IdentityIsESt4lessIsESaIsEE16_M_insert_uniqueIsEESt4pairISt17_Rb_tree_iteratorIsEbEOT_
FNDA:0,_ZNSt8_Rb_treeIN5Moose7ElemArgESt4pairIKS1_dESt10_Select1stIS4_ESt4lessIS1_ESaIS4_EE22_M_emplace_hint_uniqueIJRKSt21piecewise_construct_tSt5tupleIJRS3_EESF_IJOdEEEEESt17_Rb_tree_iteratorIS4_ESt23_Rb_tree_const_iteratorIS4_EDpOT_
FNDA:0,_ZNSt8_Rb_treeIssSt9_IdentityIsESt4lessIsESaIsEE24_M_get_insert_unique_posERKs
FNDA:0,_ZNSt8_Rb_treeIN5Moose7FaceArgESt4pairIKS1_N11MetaPhysicL10DualNumberIdNS4_28SemiDynamicSparseNumberArrayIdmNS4_8NWrapperILm64EEEEELb1EEEESt10_Select1stISB_ESt4lessIS1_ESaISB_EE22_M_emplace_hint_uniqueIJRKSt21piecewise_construct_tSt5tupleIJRS3_EESM_IJOSA_EEEEESt17_Rb_tree_iteratorISB_ESt23_Rb_tree_const_iteratorISB_EDpOT_
FNDA:2173,_ZNSt8_Rb_treeImmSt9_IdentityImESt4lessImESaImEE8_M_eraseEPSt13_Rb_tree_nodeImE
FNDA:988,_ZNSt8_Rb_treeINSt7__cxx1112basic_stringIcSt11char_traitsIcESaIcEEESt4pairIKS5_N15InputParameters8MetadataEESt10_Select1stISA_ESt4lessIS5_ESaISA_EE8_M_eraseEPSt13_Rb_tree_nodeISA_E
FNDA:106,_ZNSt8_Rb_treeISt6vectorImSaImEES2_St9_IdentityIS2_ESt4lessIS2_ESaIS2_EE10_M_insert_IRKS2_NS8_11_Alloc_nodeEEESt17_Rb_tree_iteratorIS2_EPSt18_Rb_tree_node_baseSG_OT_RT0_
FNDA:26,_ZNSt8_Rb_treeINSt7__cxx1112basic_stringIcSt11char_traitsIcESaIcEEESt4pairIKS5_S6_IS5_S5_EESt10_Select1stIS9_ESt4lessIS5_ESaIS9_EE8_M_eraseEPSt13_Rb_tree_nodeIS9_E
FNDA:154,_ZNSt8_Rb_treeINSt7__cxx1112basic_stringIcSt11char_traitsIcESaIcEEESt4pairIKS5_St10unique_ptrIN7libMesh10Parameters5ValueESt14default_deleteISB_EEESt10_Select1stISF_ESt4lessIvESaISF_EE10_Auto_node9_M_insertES6_IPSt18_Rb_tree_node_baseSO_E
FNDA:0,_ZNSt8_Rb_treeIN5Moose7FaceArgESt4pairIKS1_N11MetaPhysicL10DualNumberIdNS4_28SemiDynamicSparseNumberArrayIdmNS4_8NWrapperILm64EEEEELb1EEEESt10_Select1stISB_ESt4lessIS1_ESaISB_EE10_Auto_node9_M_insertES2_IPSt18_Rb_tree_node_baseSK_E
FNDA:0,_ZNSt8_Rb_treeIN5Moose7ElemArgESt4pairIKS1_dESt10_Select1stIS4_ESt4lessIS1_ESaIS4_EE14_M_create_nodeIJRKSt21piecewise_construct_tSt5tupleIJRS3_EESF_IJOdEEEEEPSt13_Rb_tree_nodeIS4_EDpOT_
FNDA:0,_ZNSt8_Rb_treeI13MooseEnumItemS0_St9_IdentityIS0_ESt4lessIS0_ESaIS0_EE20_Reuse_or_alloc_node10_M_extractEv
FNDA:0,_ZNSt8_Rb_treeIN5Moose7FaceArgESt4pairIKS1_dESt10_Select1stIS4_ESt4lessIS1_ESaIS4_EE14_M_create_nodeIJRKSt21piecewise_construct_tSt5tupleIJRS3_EESF_IJOdEEEEEPSt13_Rb_tree_nodeIS4_EDpOT_
FNDA:154,_ZNKSt8_Rb_treeINSt7__cxx1112basic_stringIcSt11char_traitsIcESaIcEEESt4pairIKS5_St10unique_ptrIN7libMesh10Parameters5ValueESt14default_deleteISB_EEESt10_Select1stISF_ESt4lessIvESaISF_EE17_M_lower_bound_trISt17basic_string_viewIcS3_EvEESt23_Rb_tree_const_iteratorISF_ERKT_
FNDA:0,_ZNSt8_Rb_treeI13MooseEnumItemS0_St9_IdentityIS0_ESt4lessIS0_ESaIS0_EE14_M_create_nodeIJRKS0_EEEPSt13_Rb_tree_nodeIS0_EDpOT_
FNDA:0,_ZNSt8_Rb_treeINSt7__cxx1112basic_stringIcSt11char_traitsIcESaIcEEESt4pairIKS5_N15InputParameters8MetadataEESt10_Select1stISA_ESt4lessIS5_ESaISA_EE29_M_get_insert_hint_unique_posESt23_Rb_tree_const_iteratorISA_ERS7_
FNDA:154,_ZNSt8_Rb_treeINSt7__cxx1112basic_stringIcSt11char_traitsIcESaIcEEESt4pairIKS5_N15InputParameters8MetadataEESt10_Select1stISA_ESt4lessIS5_ESaISA_EE14_M_create_nodeIJRKSt21piecewise_construct_tSt5tupleIJRS7_EESL_IJEEEEEPSt13_Rb_tree_nodeISA_EDpOT_
FNDA:0,_ZNSt8_Rb_treeI13MooseEnumItemSt4pairIKS0_NSt7__cxx1112basic_stringIcSt11char_traitsIcESaIcEEEESt10_Select1stIS9_ESt4lessIS0_ESaIS9_EE7_M_copyILb0ENSF_20_Reuse_or_alloc_nodeEEEPSt13_Rb_tree_nodeIS9_ESK_PSt18_Rb_tree_node_baseRT0_
FNDA:0,_ZNSt8_Rb_treeINSt7__cxx1112basic_stringIcSt11char_traitsIcESaIcEEESt4pairIKS5_St10unique_ptrI23AppFactoryBuildInfoBaseSt14default_deleteIS9_EEESt10_Select1stISD_ESt4lessIS5_ESaISD_EE10_Auto_node9_M_insertES6_IPSt18_Rb_tree_node_baseSM_E
FNDA:456,_ZNSt8_Rb_treeImSt4pairIKmSt6vectorImSaImEEESt10_Select1stIS5_ESt4lessImESaIS5_EE10_Auto_node9_M_insertES0_IPSt18_Rb_tree_node_baseSE_E
FNDA:0,_ZNSt8_Rb_treeI13MooseEnumItemSt4pairIKS0_S0_ESt10_Select1stIS3_ESt4lessIS0_ESaIS3_EE17_M_construct_nodeIJRKS3_EEEvPSt13_Rb_tree_nodeIS3_EDpOT_
FNDA:154,_ZNSt8_Rb_treeINSt7__cxx1112basic_stringIcSt11char_traitsIcESaIcEEESt4pairIKS5_St10unique_ptrIN7libMesh10Parameters5ValueESt14default_deleteISB_EEESt10_Select1stISF_ESt4lessIvESaISF_EE14_M_create_nodeIJRKSt21piecewise_construct_tSt5tupleIJRS7_EESQ_IJEEEEEPSt13_Rb_tree_nodeISF_EDpOT_
FNDA:1144,_ZNSt8_Rb_treeINSt7__cxx1112basic_stringIcSt11char_traitsIcESaIcEEESt4pairIKS5_S5_ESt10_Select1stIS8_ESt4lessIS5_ESaIS8_EE14_M_insert_nodeEPSt18_Rb_tree_node_baseSG_PSt13_Rb_tree_nodeIS8_E
FNF:213
FNH:98
DA:114,32
DA:128,53
DA:146,165
DA:152,62
DA:174,227
DA:175,237
DA:208,237
DA:209,237
DA:210,237
DA:211,237
DA:282,0
DA:287,0
DA:302,3724471
DA:303,0
DA:350,2157
DA:351,2105
DA:355,6463016
DA:368,227
DA:369,227
DA:397,2142
DA:445,0
DA:446,0
DA:448,0
DA:450,0
DA:452,0
DA:453,0
DA:456,0
DA:457,0
DA:464,0
DA:468,0
DA:470,0
DA:471,0
DA:474,0
DA:475,0
DA:478,0
DA:483,0
DA:485,0
DA:489,0
DA:490,0
DA:492,0
DA:494,0
DA:496,0
DA:498,0
DA:500,0
DA:501,0
DA:503,0
DA:504,0
DA:508,0
DA:511,0
DA:525,279
DA:526,279
DA:531,264
DA:550,1641
DA:592,624
DA:601,0
DA:603,0
DA:605,0
DA:607,624
DA:611,2263
DA:614,624
DA:615,2263
DA:626,8306
DA:631,6311
DA:635,6311
DA:639,106
DA:647,0
DA:648,212
DA:649,212
DA:650,212
DA:651,106
DA:669,126
DA:676,10
DA:702,52
DA:717,10
DA:737,705491
DA:747,154
DA:752,7163049
DA:756,154
DA:782,29072
DA:786,308
DA:790,32219
DA:794,588
DA:889,10
DA:892,10
DA:893,10
DA:894,10
DA:895,10
DA:896,10
DA:903,10
DA:937,10
DA:940,10
DA:941,10
DA:942,10
DA:986,3121
DA:998,689054
DA:1002,25
DA:1006,2792
DA:1010,610
DA:1034,1605051
DA:1100,52
DA:1103,104
DA:1104,52
DA:1105,52
DA:1254,0
DA:1256,0
DA:1258,0
DA:1272,2792
DA:1305,154
DA:1307,154
DA:1308,154
DA:1310,154
DA:1334,154
DA:1338,1050
DA:1339,896
DA:1346,154
DA:1636,1999
DA:1637,1478
DA:1638,1999
DA:1639,0
DA:1641,1999
DA:1643,1999
DA:1644,0
DA:1645,1999
DA:1653,0
DA:1656,1999
DA:1658,1999
DA:1659,1999
DA:1660,1999
DA:1779,0
DA:1782,0
DA:1801,0
DA:1804,0
DA:1805,0
DA:1808,0
DA:1819,269
DA:1828,269
DA:1829,370
DA:1834,269
DA:1835,269
DA:1836,269
DA:1837,269
DA:1893,113
DA:1897,55
DA:1898,113
DA:1902,113
DA:1903,67
DA:1904,67
DA:1908,212
DA:1910,51
DA:1911,99
DA:1912,99
DA:1913,99
DA:1914,36
DA:1920,0
DA:1922,0
DA:1923,0
DA:1925,113
DA:1931,22315
DA:1935,33675
DA:1937,11360
DA:1939,6311
DA:1942,22315
DA:1948,2792
DA:1952,65778
DA:1953,55584
DA:1957,2792
DA:1964,0
DA:1968,0
DA:1969,0
DA:1973,0
DA:2109,689155
DA:2116,689714
DA:2120,559
DA:2123,689155
DA:2125,689054
DA:2126,689054
DA:2130,101
DA:2131,101
DA:2132,0
DA:2163,537
DA:2172,537
DA:2174,537
DA:2177,217
DA:2179,217
DA:2182,320
DA:2211,6463016
DA:2219,6463016
DA:2222,1605051
DA:2223,916002
DA:2225,689049
DA:2227,4857965
DA:2231,4857965
DA:2232,1133494
DA:2233,3724471
DA:2235,3724471
DA:2236,2328458
DA:2238,1396013
DA:2241,0
DA:2243,0
DA:2247,0
DA:2248,0
DA:2249,0
DA:2251,0
DA:2252,0
DA:2254,0
DA:2257,0
DA:2261,0
DA:2272,52
DA:2282,52
DA:2284,52
DA:2285,52
DA:2288,0
DA:2378,1999
DA:2382,1279
DA:2383,3258
DA:2386,1999
DA:2387,1999
DA:2388,1999
DA:2389,1999
DA:2459,1999
DA:2463,0
DA:2464,1999
DA:2465,1999
DA:2466,1999
DA:2467,0
DA:2468,1999
DA:2543,0
DA:2546,0
DA:2548,0
DA:2549,0
LF:230
LH:157
end_of_record
TN:
SF:/usr/share/miniconda3/envs/moose/x86_64-conda-linux-gnu/include/c++/12.3.0/bits/stl_uninitialized.h
FN:113,_ZSt16__do_uninit_copyIN9__gnu_cxx17__normal_iteratorIPK12MaterialNameSt6vectorIS2_SaIS2_EEEEPS2_ET0_T_SB_SA_
FN:113,_ZSt16__do_uninit_copyIPK12MaterialNamePS0_ET0_T_S5_S4_
FN:113,_ZSt16__do_uninit_copyIN9__gnu_cxx17__normal_iteratorIPK12BoundaryNameSt6vectorIS2_SaIS2_EEEEPS2_ET0_T_SB_SA_
FN:113,_ZSt16__do_uninit_copyIPKNSt7__cxx1112basic_stringIcSt11char_traitsIcESaIcEEEPS5_ET0_T_SA_S9_
FN:113,_ZSt16__do_uninit_copyIP12FunctionNameS1_ET0_T_S3_S2_
FN:113,_ZSt16__do_uninit_copyISt13move_iteratorIPSt4pairIbN11MetaPhysicL10DualNumberIdNS2_28SemiDynamicSparseNumberArrayIdmNS2_8NWrapperILm64EEEEELb1EEEEESA_ET0_T_SD_SC_
FN:113,_ZSt16__do_uninit_copyIP21NonlinearVariableNameS1_ET0_T_S3_S2_
FN:113,_ZSt16__do_uninit_copyIPKSt4pairIbN11MetaPhysicL10DualNumberIdNS1_28SemiDynamicSparseNumberArrayIdmNS1_8NWrapperILm64EEEEELb1EEEEPS8_ET0_T_SD_SC_
FN:113,_ZSt16__do_uninit_copyIN9__gnu_cxx17__normal_iteratorIPK12FunctionNameSt6vectorIS2_SaIS2_EEEEPS2_ET0_T_SB_SA_
FN:113,_ZSt16__do_uninit_copyIN9__gnu_cxx17__normal_iteratorIPK21NonlinearVariableNameSt6vectorIS2_SaIS2_EEEEPS2_ET0_T_SB_SA_
FN:113,_ZSt16__do_uninit_copyIPK12FunctionNamePS0_ET0_T_S5_S4_
FN:113,_ZSt16__do_uninit_copyIP12MaterialNameS1_ET0_T_S3_S2_
FN:113,_ZSt16__do_uninit_copyIP12BoundaryNameS1_ET0_T_S3_S2_
FN:163,_ZSt18uninitialized_copyISt13move_iteratorIPSt4pairIbN11MetaPhysicL10DualNumberIdNS2_28SemiDynamicSparseNumberArrayIdmNS2_8NWrapperILm64EEEEELb1EEEEESA_ET0_T_SD_SC_
FN:163,_ZSt18uninitialized_copyIN9__gnu_cxx17__normal_iteratorIPK12FunctionNameSt6vectorIS2_SaIS2_EEEEPS2_ET0_T_SB_SA_
FN:163,_ZSt18uninitialized_copyIN9__gnu_cxx17__normal_iteratorIPK12MaterialNameSt6vectorIS2_SaIS2_EEEEPS2_ET0_T_SB_SA_
FN:163,_ZSt18uninitialized_copyIN9__gnu_cxx17__normal_iteratorIPK21NonlinearVariableNameSt6vectorIS2_SaIS2_EEEEPS2_ET0_T_SB_SA_
FN:163,_ZSt18uninitialized_copyIN9__gnu_cxx17__normal_iteratorIPK12BoundaryNameSt6vectorIS2_SaIS2_EEEEPS2_ET0_T_SB_SA_
FN:261,_ZSt18__do_uninit_fill_nIPSt6vectorIN11MetaPhysicL10DualNumberIdNS1_28SemiDynamicSparseNumberArrayIdmNS1_8NWrapperILm64EEEEELb1EEESaIS7_EEmS9_ET_SB_T0_RKT1_
FN:261,_ZSt18__do_uninit_fill_nIPSt4pairIbN11MetaPhysicL10DualNumberIdNS1_28SemiDynamicSparseNumberArrayIdmNS1_8NWrapperILm64EEEEELb1EEEEmS8_ET_SA_T0_RKT1_
FN:655,_ZNSt27__uninitialized_default_n_1ILb1EE18__uninit_default_nIPPK10MooseArrayIdEmEET_S7_T0_
FN:655,_ZNSt27__uninitialized_default_n_1ILb1EE18__uninit_default_nIPmmEET_S3_T0_
FN:655,_ZNSt27__uninitialized_default_n_1ILb1EE18__uninit_default_nIPPK10MooseArrayIN11MetaPhysicL10DualNumberIdNS3_28SemiDynamicSparseNumberArrayIdmNS3_8NWrapperILm64EEEEELb1EEEEmEET_SE_T0_
FN:655,_ZNSt27__uninitialized_default_n_1ILb1EE18__uninit_default_nIPPK10MooseArrayIN7libMesh11VectorValueIN11MetaPhysicL10DualNumberIdNS5_28SemiDynamicSparseNumberArrayIdmNS5_8NWrapperILm64EEEEELb1EEEEEEmEET_SH_T0_
FN:655,_ZNSt27__uninitialized_default_n_1ILb1EE18__uninit_default_nIPPK8FunctionmEET_S6_T0_
FN:655,_ZNSt27__uninitialized_default_n_1ILb1EE18__uninit_default_nIPPK10MooseArrayIN7libMesh11VectorValueIdEEEmEET_SA_T0_
FN:1078,_ZSt14__relocate_a_1IPSt6vectorISt4pairIbN11MetaPhysicL10DualNumberIdNS2_28SemiDynamicSparseNumberArrayIdmNS2_8NWrapperILm64EEEEELb1EEEESaIS9_EESC_SaISB_EET0_T_SF_SE_RT1_
FN:1078,_ZSt14__relocate_a_1IPSt6vectorISt4pairIbdESaIS2_EES5_SaIS4_EET0_T_S8_S7_RT1_
FNDA:0,_ZSt14__relocate_a_1IPSt6vectorISt4pairIbdESaIS2_EES5_SaIS4_EET0_T_S8_S7_RT1_
FNDA:48,_ZNSt27__uninitialized_default_n_1ILb1EE18__uninit_default_nIPPK10MooseArrayIN7libMesh11VectorValueIN11MetaPhysicL10DualNumberIdNS5_28SemiDynamicSparseNumberArrayIdmNS5_8NWrapperILm64EEEEELb1EEEEEEmEET_SH_T0_
FNDA:10,_ZSt18uninitialized_copyIN9__gnu_cxx17__normal_iteratorIPK21NonlinearVariableNameSt6vectorIS2_SaIS2_EEEEPS2_ET0_T_SB_SA_
FNDA:0,_ZSt16__do_uninit_copyIN9__gnu_cxx17__normal_iteratorIPK12FunctionNameSt6vectorIS2_SaIS2_EEEEPS2_ET0_T_SB_SA_
FNDA:0,_ZNSt27__uninitialized_default_n_1ILb1EE18__uninit_default_nIPPK8FunctionmEET_S6_T0_
FNDA:0,_ZSt18__do_uninit_fill_nIPSt4pairIbN11MetaPhysicL10DualNumberIdNS1_28SemiDynamicSparseNumberArrayIdmNS1_8NWrapperILm64EEEEELb1EEEEmS8_ET_SA_T0_RKT1_
FNDA:0,_ZSt16__do_uninit_copyIN9__gnu_cxx17__normal_iteratorIPK21NonlinearVariableNameSt6vectorIS2_SaIS2_EEEEPS2_ET0_T_SB_SA_
FNDA:48,_ZNSt27__uninitialized_default_n_1ILb1EE18__uninit_default_nIPPK10MooseArrayIN7libMesh11VectorValueIdEEEmEET_SA_T0_
FNDA:0,_ZSt16__do_uninit_copyIP12MaterialNameS1_ET0_T_S3_S2_
FNDA:196,_ZSt16__do_uninit_copyIPK12FunctionNamePS0_ET0_T_S5_S4_
FNDA:0,_ZSt16__do_uninit_copyIP12BoundaryNameS1_ET0_T_S3_S2_
FNDA:5,_ZSt18uninitialized_copyIN9__gnu_cxx17__normal_iteratorIPK12BoundaryNameSt6vectorIS2_SaIS2_EEEEPS2_ET0_T_SB_SA_
FNDA:196,_ZSt16__do_uninit_copyIPK12MaterialNamePS0_ET0_T_S5_S4_
FNDA:8,_ZNSt27__uninitialized_default_n_1ILb1EE18__uninit_default_nIPPK10MooseArrayIdEmEET_S7_T0_
FNDA:0,_ZSt16__do_uninit_copyIN9__gnu_cxx17__normal_iteratorIPK12MaterialNameSt6vectorIS2_SaIS2_EEEEPS2_ET0_T_SB_SA_
FNDA:106,_ZNSt27__uninitialized_default_n_1ILb1EE18__uninit_default_nIPmmEET_S3_T0_
FNDA:0,_ZSt16__do_uninit_copyIN9__gnu_cxx17__normal_iteratorIPK12BoundaryNameSt6vectorIS2_SaIS2_EEEEPS2_ET0_T_SB_SA_
FNDA:0,_ZSt16__do_uninit_copyIPKNSt7__cxx1112basic_stringIcSt11char_traitsIcESaIcEEEPS5_ET0_T_SA_S9_
FNDA:0,_ZSt18uninitialized_copyISt13move_iteratorIPSt4pairIbN11MetaPhysicL10DualNumberIdNS2_28SemiDynamicSparseNumberArrayIdmNS2_8NWrapperILm64EEEEELb1EEEEESA_ET0_T_SD_SC_
FNDA:45,_ZSt18uninitialized_copyIN9__gnu_cxx17__normal_iteratorIPK12FunctionNameSt6vectorIS2_SaIS2_EEEEPS2_ET0_T_SB_SA_
FNDA:1298688,_ZSt18__do_uninit_fill_nIPSt6vectorIN11MetaPhysicL10DualNumberIdNS1_28SemiDynamicSparseNumberArrayIdmNS1_8NWrapperILm64EEEEELb1EEESaIS7_EEmS9_ET_SB_T0_RKT1_
FNDA:0,_ZSt14__relocate_a_1IPSt6vectorISt4pairIbN11MetaPhysicL10DualNumberIdNS2_28SemiDynamicSparseNumberArrayIdmNS2_8NWrapperILm64EEEEELb1EEEESaIS9_EESC_SaISB_EET0_T_SF_SE_RT1_
FNDA:8,_ZNSt27__uninitialized_default_n_1ILb1EE18__uninit_default_nIPPK10MooseArrayIN11MetaPhysicL10DualNumberIdNS3_28SemiDynamicSparseNumberArrayIdmNS3_8NWrapperILm64EEEEELb1EEEEmEET_SE_T0_
FNDA:45,_ZSt18uninitialized_copyIN9__gnu_cxx17__normal_iteratorIPK12MaterialNameSt6vectorIS2_SaIS2_EEEEPS2_ET0_T_SB_SA_
FNDA:0,_ZSt16__do_uninit_copyISt13move_iteratorIPSt4pairIbN11MetaPhysicL10DualNumberIdNS2_28SemiDynamicSparseNumberArrayIdmNS2_8NWrapperILm64EEEEELb1EEEEESA_ET0_T_SD_SC_
FNDA:0,_ZSt16__do_uninit_copyIP21NonlinearVariableNameS1_ET0_T_S3_S2_
FNDA:0,_ZSt16__do_uninit_copyIP12FunctionNameS1_ET0_T_S3_S2_
FNDA:0,_ZSt16__do_uninit_copyIPKSt4pairIbN11MetaPhysicL10DualNumberIdNS1_28SemiDynamicSparseNumberArrayIdmNS1_8NWrapperILm64EEEEELb1EEEEPS8_ET0_T_SD_SC_
FNF:28
FNH:12
DA:113,392
DA:119,8268680
DA:121,392
DA:123,0
DA:126,0
DA:137,392
DA:163,105
DA:185,105
DA:261,1298688
DA:266,7792128
DA:268,1298688
DA:270,0
DA:273,0
DA:284,1298688
DA:372,105
DA:382,0
DA:637,7792128
DA:655,218
DA:657,218
DA:662,218
DA:663,218
DA:665,218
DA:701,218
DA:1078,0
DA:1091,0
DA:1094,0
DA:1104,12
DA:1105,12
DA:1117,0
DA:1119,12
DA:1133,0
LF:31
LH:21
end_of_record
TN:
SF:/usr/share/miniconda3/envs/moose/x86_64-conda-linux-gnu/include/c++/12.3.0/bits/stl_vector.h
FN:364,_ZNSt12_Vector_baseISt3setIP18MooseVariableFieldIdESt4lessIS3_ESaIS3_EESaIS7_EED2Ev
FN:364,_ZNSt12_Vector_baseIP15MooseVariableFVIdESaIS2_EED2Ev
FN:364,_ZNSt12_Vector_baseIPK10MooseArrayIN11MetaPhysicL10DualNumberIdNS1_28SemiDynamicSparseNumberArrayIdmNS1_8NWrapperILm64EEEEELb1EEEESaISA_EED2Ev
FN:364,_ZNSt12_Vector_baseIjSaIjEED2Ev
FN:364,_ZNSt12_Vector_baseI13MooseEnumItemSaIS0_EED2Ev
FN:364,_ZNSt12_Vector_baseISt5tupleIJNSt7__cxx1112basic_stringIcSt11char_traitsIcESaIcEEEN5Moose23RelationshipManagerTypeESt8functionIFvRK15InputParametersRSA_EEEESaISG_EED2Ev
FN:364,_ZNSt12_Vector_baseI12FunctionNameSaIS0_EED2Ev
FN:364,_ZNSt12_Vector_baseIP21BVInelasticUpdateBaseSaIS1_EED2Ev
FN:364,_ZNSt12_Vector_baseISt6vectorIaSaIaEESaIS2_EED2Ev
FN:364,_ZNSt12_Vector_baseI13SubdomainNameSaIS0_EED2Ev
FN:364,_ZNSt12_Vector_baseI21NonlinearVariableNameSaIS0_EED2Ev
FN:364,_ZNSt12_Vector_baseINSt7__cxx1112basic_stringIcSt11char_traitsIcESaIcEEESaIS5_EED2Ev
FN:364,_ZNSt12_Vector_baseI12BoundaryNameSaIS0_EED2Ev
FN:364,_ZNSt12_Vector_baseISt6vectorISt4pairIbN11MetaPhysicL10DualNumberIdNS2_28SemiDynamicSparseNumberArrayIdmNS2_8NWrapperILm64EEEEELb1EEEESaIS9_EESaISB_EED2Ev
FN:364,_ZNSt12_Vector_baseIP19MooseVariableScalarSaIS1_EED2Ev
FN:364,_ZNSt12_Vector_baseI15AuxVariableNameSaIS0_EED2Ev
FN:364,_ZNSt12_Vector_baseIP15MooseVariableFEIdESaIS2_EED2Ev
FN:364,_ZNSt12_Vector_baseIPK10MooseArrayIdESaIS3_EED2Ev
FN:364,_ZNSt12_Vector_baseIN11MetaPhysicL10DualNumberIdNS0_28SemiDynamicSparseNumberArrayIdmNS0_8NWrapperILm64EEEEELb1EEESaIS6_EED2Ev
FN:364,_ZNSt12_Vector_baseISt6vectorISt4pairIbdESaIS2_EESaIS4_EED2Ev
FN:364,_ZNSt12_Vector_baseISt4pairINSt7__cxx1112basic_stringIcSt11char_traitsIcESaIcEEEPSt10unique_ptrIN7libMesh8MeshBaseESt14default_deleteIS9_EEESaISE_EED2Ev
FN:364,_ZNSt12_Vector_baseI12MaterialNameSaIS0_EED2Ev
FN:364,_ZNSt12_Vector_baseISt10unique_ptrIN5Moose15FunctorEnvelopeIdEESt14default_deleteIS3_EESaIS6_EED2Ev
FN:364,_ZNSt12_Vector_baseIP21MooseLinearVariableFVIdESaIS2_EED2Ev
FN:364,_ZNSt12_Vector_baseImSaImEED2Ev
FN:364,_ZNSt12_Vector_baseISt4pairIhhESaIS1_EED2Ev
FN:364,_ZNSt12_Vector_baseIPK8FunctionSaIS2_EED2Ev
FN:364,_ZNSt12_Vector_baseIP22MooseVariableFieldBaseSaIS1_EED2Ev
FN:364,_ZNSt12_Vector_baseIdSaIdEED2Ev
FN:364,_ZNSt12_Vector_baseISt6vectorIS0_IaSaIaEESaIS2_EESaIS4_EED2Ev
FN:364,_ZNSt12_Vector_baseISt6vectorIS0_IS0_ISt4pairIhhESaIS2_EESaIS4_EESaIS6_EESaIS8_EED2Ev
FN:364,_ZNSt12_Vector_baseISt10unique_ptrIN5Moose15FunctorEnvelopeIN11MetaPhysicL10DualNumberIdNS3_28SemiDynamicSparseNumberArrayIdmNS3_8NWrapperILm64EEEEELb1EEEEESt14default_deleteISA_EESaISD_EED2Ev
FN:364,_ZNSt12_Vector_baseISt10shared_ptrI17RegistryEntryBaseESaIS2_EED2Ev
FN:364,_ZNSt12_Vector_baseIaSaIaEED2Ev
FN:364,_ZNSt12_Vector_baseISt4pairIbdESaIS1_EED2Ev
FN:364,_ZNSt12_Vector_baseIP15MooseVariableFEIN5Eigen6MatrixIdLin1ELi1ELi0ELin1ELi1EEEESaIS5_EED2Ev
FN:364,_ZNSt12_Vector_baseISt10unique_ptrI33OptionalMaterialPropertyProxyBaseI8MaterialESt14default_deleteIS3_EESaIS6_EED2Ev
FN:364,_ZNSt12_Vector_baseISt10unique_ptrI33OptionalMaterialPropertyProxyBaseI25MaterialPropertyInterfaceESt14default_deleteIS3_EESaIS6_EED2Ev
FN:364,_ZNSt12_Vector_baseIPK10MooseArrayIN7libMesh11VectorValueIdEEESaIS6_EED2Ev
FN:364,_ZNSt12_Vector_baseItSaItEED2Ev
FN:364,_ZNSt12_Vector_baseISt6vectorIS0_ISt4pairIhhESaIS2_EESaIS4_EESaIS6_EED2Ev
FN:364,_ZNSt12_Vector_baseISt10unique_ptrI10MooseArrayIdESt14default_deleteIS2_EESaIS5_EED2Ev
FN:364,_ZNSt12_Vector_baseIP15MooseVariableFEIN7libMesh11VectorValueIdEEESaIS5_EED2Ev
FN:364,_ZNSt12_Vector_baseISt5tupleIJmtsEESaIS1_EED2Ev
FN:364,_ZNSt12_Vector_baseIP10BndElementSaIS1_EED2Ev
FN:364,_ZNSt12_Vector_baseISt6vectorISt4pairIhhESaIS2_EESaIS4_EED2Ev
FN:364,_ZNSt12_Vector_baseIiSaIiEED2Ev
FN:364,_ZNSt12_Vector_baseIPK10MooseArrayIN7libMesh11VectorValueIN11MetaPhysicL10DualNumberIdNS3_28SemiDynamicSparseNumberArrayIdmNS3_8NWrapperILm64EEEEELb1EEEEEESaISD_EED2Ev
FN:364,_ZNSt12_Vector_baseISt4pairIbN11MetaPhysicL10DualNumberIdNS1_28SemiDynamicSparseNumberArrayIdmNS1_8NWrapperILm64EEEEELb1EEEESaIS8_EED2Ev
FN:364,_ZNSt12_Vector_baseISt10unique_ptrI13PropertyValueSt14default_deleteIS1_EESaIS4_EED2Ev
FN:364,_ZNSt12_Vector_baseISt6vectorIN11MetaPhysicL10DualNumberIdNS1_28SemiDynamicSparseNumberArrayIdmNS1_8NWrapperILm64EEEEELb1EEESaIS7_EESaIS9_EED2Ev
FN:393,_ZNSt12_Vector_baseIPK10MooseArrayIN7libMesh11VectorValueIdEEESaIS6_EE17_M_create_storageEm
FN:393,_ZNSt12_Vector_baseIPK10MooseArrayIN11MetaPhysicL10DualNumberIdNS1_28SemiDynamicSparseNumberArrayIdmNS1_8NWrapperILm64EEEEELb1EEEESaISA_EE17_M_create_storageEm
FN:393,_ZNSt12_Vector_baseIPK10MooseArrayIN7libMesh11VectorValueIN11MetaPhysicL10DualNumberIdNS3_28SemiDynamicSparseNumberArrayIdmNS3_8NWrapperILm64EEEEELb1EEEEEESaISD_EE17_M_create_storageEm
FN:393,_ZNSt12_Vector_baseISt6vectorIN11MetaPhysicL10DualNumberIdNS1_28SemiDynamicSparseNumberArrayIdmNS1_8NWrapperILm64EEEEELb1EEESaIS7_EESaIS9_EE17_M_create_storageEm
FN:393,_ZNSt12_Vector_baseI12BoundaryNameSaIS0_EE17_M_create_storageEm
FN:393,_ZNSt12_Vector_baseI21NonlinearVariableNameSaIS0_EE17_M_create_storageEm
FN:393,_ZNSt12_Vector_baseIdSaIdEE17_M_create_storageEm
FN:393,_ZNSt12_Vector_baseI12MaterialNameSaIS0_EE17_M_create_storageEm
FN:393,_ZNSt12_Vector_baseImSaImEE17_M_create_storageEm
FN:393,_ZNSt12_Vector_baseIN11MetaPhysicL10DualNumberIdNS0_28SemiDynamicSparseNumberArrayIdmNS0_8NWrapperILm64EEEEELb1EEESaIS6_EE17_M_create_storageEm
FN:393,_ZNSt12_Vector_baseIPK10MooseArrayIdESaIS3_EE17_M_create_storageEm
FN:393,_ZNSt12_Vector_baseI12FunctionNameSaIS0_EE17_M_create_storageEm
FN:499,_ZNSt6vectorISt10unique_ptrI13PropertyValueSt14default_deleteIS1_EESaIS4_EE11_S_relocateEPS4_S7_S7_RS5_
FN:551,_ZNSt6vectorImSaImEEC2EmRKS0_
FN:551,_ZNSt6vectorIPK10MooseArrayIN11MetaPhysicL10DualNumberIdNS1_28SemiDynamicSparseNumberArrayIdmNS1_8NWrapperILm64EEEEELb1EEEESaISA_EEC2EmRKSB_
FN:551,_ZNSt6vectorIPK10MooseArrayIN7libMesh11VectorValueIN11MetaPhysicL10DualNumberIdNS3_28SemiDynamicSparseNumberArrayIdmNS3_8NWrapperILm64EEEEELb1EEEEEESaISD_EEC2EmRKSE_
FN:551,_ZNSt6vectorIN11MetaPhysicL10DualNumberIdNS0_28SemiDynamicSparseNumberArrayIdmNS0_8NWrapperILm64EEEEELb1EEESaIS6_EEC2EmRKS7_
FN:551,_ZNSt6vectorIPK10MooseArrayIdESaIS3_EEC2EmRKS4_
FN:551,_ZNSt6vectorIPK10MooseArrayIN7libMesh11VectorValueIdEEESaIS6_EEC2EmRKS7_
FN:564,_ZNSt6vectorIN11MetaPhysicL10DualNumberIdNS0_28SemiDynamicSparseNumberArrayIdmNS0_8NWrapperILm64EEEEELb1EEESaIS6_EEC2EmRKS6_RKS7_
FN:564,_ZNSt6vectorIdSaIdEEC2EmRKdRKS0_
FN:564,_ZNSt6vectorIS_IN11MetaPhysicL10DualNumberIdNS0_28SemiDynamicSparseNumberArrayIdmNS0_8NWrapperILm64EEEEELb1EEESaIS6_EESaIS8_EEC2EmRKS8_RKS9_
FN:596,_ZNSt6vectorImSaImEEC2ERKS1_
FN:596,_ZNSt6vectorI12MaterialNameSaIS0_EEC2ERKS2_
FN:596,_ZNSt6vectorI12FunctionNameSaIS0_EEC2ERKS2_
FN:596,_ZNSt6vectorI21NonlinearVariableNameSaIS0_EEC2ERKS2_
FN:596,_ZNSt6vectorI12BoundaryNameSaIS0_EEC2ERKS2_
FN:596,_ZNSt6vectorIN11MetaPhysicL10DualNumberIdNS0_28SemiDynamicSparseNumberArrayIdmNS0_8NWrapperILm64EEEEELb1EEESaIS6_EEC2ERKS8_
FN:673,_ZNSt6vectorI12MaterialNameSaIS0_EEC2ESt16initializer_listIS0_ERKS1_
FN:673,_ZNSt6vectorI12FunctionNameSaIS0_EEC2ESt16initializer_listIS0_ERKS1_
FN:673,_ZNSt6vectorINSt7__cxx1112basic_stringIcSt11char_traitsIcESaIcEEESaIS5_EEC2ESt16initializer_listIS5_ERKS6_
FN:673,_ZNSt6vectorIdSaIdEEC2ESt16initializer_listIdERKS0_
FN:728,_ZNSt6vectorISt10unique_ptrIN5Moose15FunctorEnvelopeIN11MetaPhysicL10DualNumberIdNS3_28SemiDynamicSparseNumberArrayIdmNS3_8NWrapperILm64EEEEELb1EEEEESt14default_deleteISA_EESaISD_EED2Ev
FN:728,_ZNSt6vectorIS_IaSaIaEESaIS1_EED2Ev
FN:728,_ZNSt6vectorINSt7__cxx1112basic_stringIcSt11char_traitsIcESaIcEEESaIS5_EED2Ev
FN:728,_ZNSt6vectorIS_ISt4pairIhhESaIS1_EESaIS3_EED2Ev
FN:728,_ZNSt6vectorISt10unique_ptrIN5Moose15FunctorEnvelopeIdEESt14default_deleteIS3_EESaIS6_EED2Ev
FN:728,_ZNSt6vectorI12BoundaryNameSaIS0_EED2Ev
FN:728,_ZNSt6vectorI12MaterialNameSaIS0_EED2Ev
FN:728,_ZNSt6vectorISt10unique_ptrI13PropertyValueSt14default_deleteIS1_EESaIS4_EED2Ev
FN:728,_ZNSt6vectorI13SubdomainNameSaIS0_EED2Ev
FN:728,_ZNSt6vectorI21NonlinearVariableNameSaIS0_EED2Ev
FN:728,_ZNSt6vectorISt10unique_ptrI33OptionalMaterialPropertyProxyBaseI25MaterialPropertyInterfaceESt14default_deleteIS3_EESaIS6_EED2Ev
FN:728,_ZNSt6vectorISt10unique_ptrI10MooseArrayIdESt14default_deleteIS2_EESaIS5_EED2Ev
FN:728,_ZNSt6vectorI12FunctionNameSaIS0_EED2Ev
FN:728,_ZNSt6vectorIS_IN11MetaPhysicL10DualNumberIdNS0_28SemiDynamicSparseNumberArrayIdmNS0_8NWrapperILm64EEEEELb1EEESaIS6_EESaIS8_EED2Ev
FN:728,_ZNSt6vectorISt3setIP18MooseVariableFieldIdESt4lessIS3_ESaIS3_EESaIS7_EED2Ev
FN:728,_ZNSt6vectorIS_IS_IaSaIaEESaIS1_EESaIS3_EED2Ev
FN:728,_ZNSt6vectorI15AuxVariableNameSaIS0_EED2Ev
FN:728,_ZNSt6vectorISt5tupleIJNSt7__cxx1112basic_stringIcSt11char_traitsIcESaIcEEEN5Moose23RelationshipManagerTypeESt8functionIFvRK15InputParametersRSA_EEEESaISG_EED2Ev
FN:728,_ZNSt6vectorISt4pairINSt7__cxx1112basic_stringIcSt11char_traitsIcESaIcEEEPSt10unique_ptrIN7libMesh8MeshBaseESt14default_deleteIS9_EEESaISE_EED2Ev
FN:728,_ZNSt6vectorISt10shared_ptrI17RegistryEntryBaseESaIS2_EED2Ev
FN:728,_ZNSt6vectorIS_ISt4pairIbN11MetaPhysicL10DualNumberIdNS1_28SemiDynamicSparseNumberArrayIdmNS1_8NWrapperILm64EEEEELb1EEEESaIS8_EESaISA_EED2Ev
FN:728,_ZNSt6vectorIS_IS_ISt4pairIhhESaIS1_EESaIS3_EESaIS5_EED2Ev
FN:728,_ZNSt6vectorIS_IS_IS_ISt4pairIhhESaIS1_EESaIS3_EESaIS5_EESaIS7_EED2Ev
FN:728,_ZNSt6vectorIS_ISt4pairIbdESaIS1_EESaIS3_EED2Ev
FN:728,_ZNSt6vectorISt10unique_ptrI33OptionalMaterialPropertyProxyBaseI8MaterialESt14default_deleteIS3_EESaIS6_EED2Ev
FN:728,_ZNSt6vectorI13MooseEnumItemSaIS0_EED2Ev
FN:1008,_ZNSt6vectorIS_ISt4pairIbN11MetaPhysicL10DualNumberIdNS1_28SemiDynamicSparseNumberArrayIdmNS1_8NWrapperILm64EEEEELb1EEEESaIS8_EESaISA_EE6resizeEm
FN:1008,_ZNSt6vectorIS_ISt4pairIbdESaIS1_EESaIS3_EE6resizeEm
FN:1008,_ZNSt6vectorIPK8FunctionSaIS2_EE6resizeEm
FN:1008,_ZNSt6vectorISt10unique_ptrI13PropertyValueSt14default_deleteIS1_EESaIS4_EE6resizeEm
FN:1029,_ZNSt6vectorISt4pairIbdESaIS1_EE6resizeEmRKS1_
FN:1029,_ZNSt6vectorISt4pairIbN11MetaPhysicL10DualNumberIdNS1_28SemiDynamicSparseNumberArrayIdmNS1_8NWrapperILm64EEEEELb1EEEESaIS8_EE6resizeEmRKS8_
FN:1276,_ZNSt6vectorIP21BVInelasticUpdateBaseSaIS1_EE9push_backERKS1_
FN:1611,_ZNSt6vectorI12FunctionNameSaIS0_EE20_M_allocate_and_copyIN9__gnu_cxx17__normal_iteratorIPKS0_S2_EEEEPS0_mT_SA_
FN:1611,_ZNSt6vectorI12MaterialNameSaIS0_EE20_M_allocate_and_copyIN9__gnu_cxx17__normal_iteratorIPKS0_S2_EEEEPS0_mT_SA_
FN:1611,_ZNSt6vectorI21NonlinearVariableNameSaIS0_EE20_M_allocate_and_copyIN9__gnu_cxx17__normal_iteratorIPKS0_S2_EEEEPS0_mT_SA_
FN:1611,_ZNSt6vectorI12BoundaryNameSaIS0_EE20_M_allocate_and_copyIN9__gnu_cxx17__normal_iteratorIPKS0_S2_EEEEPS0_mT_SA_
FN:1682,_ZNSt6vectorINSt7__cxx1112basic_stringIcSt11char_traitsIcESaIcEEESaIS5_EE19_M_range_initializeIPKS5_EEvT_SB_St20forward_iterator_tag
FN:1682,_ZNSt6vectorIdSaIdEE19_M_range_initializeIPKdEEvT_S5_St20forward_iterator_tag
FN:1682,_ZNSt6vectorI12MaterialNameSaIS0_EE19_M_range_initializeIPKS0_EEvT_S6_St20forward_iterator_tag
FN:1682,_ZNSt6vectorI12FunctionNameSaIS0_EE19_M_range_initializeIPKS0_EEvT_S6_St20forward_iterator_tag
FN:1699,_ZNSt6vectorIN11MetaPhysicL10DualNumberIdNS0_28SemiDynamicSparseNumberArrayIdmNS0_8NWrapperILm64EEEEELb1EEESaIS6_EE18_M_fill_initializeEmRKS6_
FN:1710,_ZNSt6vectorIN11MetaPhysicL10DualNumberIdNS0_28SemiDynamicSparseNumberArrayIdmNS0_8NWrapperILm64EEEEELb1EEESaIS6_EE21_M_default_initializeEm
FN:1891,_ZNKSt6vectorISt4pairIbdESaIS1_EE12_M_check_lenEmPKc
FN:1891,_ZNKSt6vectorISt10unique_ptrI13PropertyValueSt14default_deleteIS1_EESaIS4_EE12_M_check_lenEmPKc
FN:1891,_ZNKSt6vectorISt4pairIbN11MetaPhysicL10DualNumberIdNS1_28SemiDynamicSparseNumberArrayIdmNS1_8NWrapperILm64EEEEELb1EEEESaIS8_EE12_M_check_lenEmPKc
FN:1891,_ZNKSt6vectorISt10shared_ptrI17RegistryEntryBaseESaIS2_EE12_M_check_lenEmPKc
FN:1891,_ZNKSt6vectorIP21BVInelasticUpdateBaseSaIS1_EE12_M_check_lenEmPKc
FN:1891,_ZNKSt6vectorIS_ISt4pairIbN11MetaPhysicL10DualNumberIdNS1_28SemiDynamicSparseNumberArrayIdmNS1_8NWrapperILm64EEEEELb1EEEESaIS8_EESaISA_EE12_M_check_lenEmPKc
FN:1891,_ZNKSt6vectorIP10BndElementSaIS1_EE12_M_check_lenEmPKc
FN:1891,_ZNKSt6vectorIS_ISt4pairIbdESaIS1_EESaIS3_EE12_M_check_lenEmPKc
FN:1891,_ZNKSt6vectorImSaImEE12_M_check_lenEmPKc
FN:1891,_ZNKSt6vectorIPK8FunctionSaIS2_EE12_M_check_lenEmPKc
FN:1928,_ZNSt6vectorIS_ISt4pairIbN11MetaPhysicL10DualNumberIdNS1_28SemiDynamicSparseNumberArrayIdmNS1_8NWrapperILm64EEEEELb1EEEESaIS8_EESaISA_EE15_M_erase_at_endEPSA_
FN:1928,_ZNSt6vectorIS_ISt4pairIbdESaIS1_EESaIS3_EE15_M_erase_at_endEPS3_
FN:1928,_ZNSt6vectorISt10unique_ptrI13PropertyValueSt14default_deleteIS1_EESaIS4_EE15_M_erase_at_endEPS4_
FN:1954,_ZNSt6vectorIN11MetaPhysicL10DualNumberIdNS0_28SemiDynamicSparseNumberArrayIdmNS0_8NWrapperILm64EEEEELb1EEESaIS6_EE14_M_move_assignEOS8_St17integral_constantIbLb1EE
FN:1954,_ZNSt6vectorIS_IN11MetaPhysicL10DualNumberIdNS0_28SemiDynamicSparseNumberArrayIdmNS0_8NWrapperILm64EEEEELb1EEESaIS6_EESaIS8_EE14_M_move_assignEOSA_St17integral_constantIbLb1EE
FN:2074,_ZStltImSaImEEbRKSt6vectorIT_T0_ES6_
FNDA:8,_ZNSt12_Vector_baseIPK10MooseArrayIN11MetaPhysicL10DualNumberIdNS1_28SemiDynamicSparseNumberArrayIdmNS1_8NWrapperILm64EEEEELb1EEEESaISA_EED2Ev
FNDA:297,_ZNSt12_Vector_baseIP15MooseVariableFVIdESaIS2_EED2Ev
FNDA:261,_ZNSt6vectorISt10unique_ptrIN5Moose15FunctorEnvelopeIN11MetaPhysicL10DualNumberIdNS3_28SemiDynamicSparseNumberArrayIdmNS3_8NWrapperILm64EEEEELb1EEEEESt14default_deleteISA_EESaISD_EED2Ev
FNDA:297,_ZNSt12_Vector_baseISt3setIP18MooseVariableFieldIdESt4lessIS3_ESaIS3_EESaIS7_EED2Ev
FNDA:358,_ZNSt12_Vector_baseIjSaIjEED2Ev
FNDA:196,_ZNSt6vectorI12MaterialNameSaIS0_EEC2ESt16initializer_listIS0_ERKS1_
FNDA:48,_ZNSt12_Vector_baseIPK10MooseArrayIN7libMesh11VectorValueIdEEESaIS6_EE17_M_create_storageEm
FNDA:20,_ZNSt12_Vector_baseI13MooseEnumItemSaIS0_EED2Ev
FNDA:26,_ZNSt12_Vector_baseISt5tupleIJNSt7__cxx1112basic_stringIcSt11char_traitsIcESaIcEEEN5Moose23RelationshipManagerTypeESt8functionIFvRK15InputParametersRSA_EEEESaISG_EED2Ev
FNDA:106,_ZNSt6vectorImSaImEEC2EmRKS0_
FNDA:45,_ZNSt12_Vector_baseIP21BVInelasticUpdateBaseSaIS1_EED2Ev
FNDA:241,_ZNSt12_Vector_baseI12FunctionNameSaIS0_EED2Ev
FNDA:0,_ZNSt6vectorIS_ISt4pairIbN11MetaPhysicL10DualNumberIdNS1_28SemiDynamicSparseNumberArrayIdmNS1_8NWrapperILm64EEEEELb1EEEESaIS8_EESaISA_EE6resizeEm
FNDA:261,_ZNSt12_Vector_baseI13SubdomainNameSaIS0_EED2Ev
FNDA:0,_ZNSt12_Vector_baseISt6vectorIaSaIaEESaIS2_EED2Ev
FNDA:0,_ZNSt6vectorIS_IaSaIaEESaIS1_EED2Ev
FNDA:761,_ZStltImSaImEEbRKSt6vectorIT_T0_ES6_
FNDA:8,_ZNSt12_Vector_baseIPK10MooseArrayIN11MetaPhysicL10DualNumberIdNS1_28SemiDynamicSparseNumberArrayIdmNS1_8NWrapperILm64EEEEELb1EEEESaISA_EE17_M_create_storageEm
FNDA:52,_ZNSt12_Vector_baseINSt7__cxx1112basic_stringIcSt11char_traitsIcESaIcEEESaIS5_EED2Ev
FNDA:10,_ZNSt12_Vector_baseI21NonlinearVariableNameSaIS0_EED2Ev
FNDA:0,_ZNSt6vectorI12FunctionNameSaIS0_EE20_M_allocate_and_copyIN9__gnu_cxx17__normal_iteratorIPKS0_S2_EEEEPS0_mT_SA_
FNDA:0,_ZNKSt6vectorISt4pairIbdESaIS1_EE12_M_check_lenEmPKc
FNDA:52,_ZNSt6vectorINSt7__cxx1112basic_stringIcSt11char_traitsIcESaIcEEESaIS5_EED2Ev
FNDA:0,_ZNSt6vectorIS_ISt4pairIhhESaIS1_EESaIS3_EED2Ev
FNDA:1298688,_ZNSt6vectorIN11MetaPhysicL10DualNumberIdNS0_28SemiDynamicSparseNumberArrayIdmNS0_8NWrapperILm64EEEEELb1EEESaIS6_EE18_M_fill_initializeEmRKS6_
FNDA:1298688,_ZNSt6vectorIN11MetaPhysicL10DualNumberIdNS0_28SemiDynamicSparseNumberArrayIdmNS0_8NWrapperILm64EEEEELb1EEESaIS6_EEC2EmRKS6_RKS7_
FNDA:5,_ZNSt12_Vector_baseI12BoundaryNameSaIS0_EED2Ev
FNDA:8,_ZNSt6vectorIPK10MooseArrayIN11MetaPhysicL10DualNumberIdNS1_28SemiDynamicSparseNumberArrayIdmNS1_8NWrapperILm64EEEEELb1EEEESaISA_EEC2EmRKSB_
FNDA:297,_ZNSt12_Vector_baseIP19MooseVariableScalarSaIS1_EED2Ev
FNDA:0,_ZNSt12_Vector_baseISt6vectorISt4pairIbN11MetaPhysicL10DualNumberIdNS2_28SemiDynamicSparseNumberArrayIdmNS2_8NWrapperILm64EEEEELb1EEEESaIS9_EESaISB_EED2Ev
FNDA:261,_ZNSt6vectorISt10unique_ptrIN5Moose15FunctorEnvelopeIdEESt14default_deleteIS3_EESaIS6_EED2Ev
FNDA:5,_ZNSt6vectorI12BoundaryNameSaIS0_EED2Ev
FNDA:168,_ZNSt12_Vector_baseI15AuxVariableNameSaIS0_EED2Ev
FNDA:0,_ZNSt6vectorIS_ISt4pairIbN11MetaPhysicL10DualNumberIdNS1_28SemiDynamicSparseNumberArrayIdmNS1_8NWrapperILm64EEEEELb1EEEESaIS8_EESaISA_EE15_M_erase_at_endEPSA_
FNDA:48,_ZNSt6vectorIPK10MooseArrayIN7libMesh11VectorValueIN11MetaPhysicL10DualNumberIdNS3_28SemiDynamicSparseNumberArrayIdmNS3_8NWrapperILm64EEEEELb1EEEEEESaISD_EEC2EmRKSE_
FNDA:8,_ZNSt12_Vector_baseIPK10MooseArrayIdESaIS3_EED2Ev
FNDA:48,_ZNSt12_Vector_baseIPK10MooseArrayIN7libMesh11VectorValueIN11MetaPhysicL10DualNumberIdNS3_28SemiDynamicSparseNumberArrayIdmNS3_8NWrapperILm64EEEEELb1EEEEEESaISD_EE17_M_create_storageEm
FNDA:297,_ZNSt12_Vector_baseIP15MooseVariableFEIdESaIS2_EED2Ev
FNDA:318,_ZNSt6vectorImSaImEEC2ERKS1_
FNDA:7792176,_ZNSt12_Vector_baseIN11MetaPhysicL10DualNumberIdNS0_28SemiDynamicSparseNumberArrayIdmNS0_8NWrapperILm64EEEEELb1EEESaIS6_EED2Ev
FNDA:1298688,_ZNSt12_Vector_baseISt6vectorIN11MetaPhysicL10DualNumberIdNS1_28SemiDynamicSparseNumberArrayIdmNS1_8NWrapperILm64EEEEELb1EEESaIS7_EESaIS9_EE17_M_create_storageEm
FNDA:0,_ZNSt12_Vector_baseISt6vectorISt4pairIbdESaIS2_EESaIS4_EED2Ev
FNDA:241,_ZNSt6vectorI12MaterialNameSaIS0_EED2Ev
FNDA:0,_ZNSt6vectorISt4pairIbdESaIS1_EE6resizeEmRKS1_
FNDA:0,_ZNKSt6vectorISt10unique_ptrI13PropertyValueSt14default_deleteIS1_EESaIS4_EE12_M_check_lenEmPKc
FNDA:297,_ZNSt6vectorISt10unique_ptrI13PropertyValueSt14default_deleteIS1_EESaIS4_EED2Ev
FNDA:5,_ZNSt12_Vector_baseISt4pairINSt7__cxx1112basic_stringIcSt11char_traitsIcESaIcEEEPSt10unique_ptrIN7libMesh8MeshBaseESt14default_deleteIS9_EEESaISE_EED2Ev
FNDA:5,_ZNSt12_Vector_baseI12BoundaryNameSaIS0_EE17_M_create_storageEm
FNDA:297,_ZNSt12_Vector_baseIP21MooseLinearVariableFVIdESaIS2_EED2Ev
FNDA:261,_ZNSt12_Vector_baseISt10unique_ptrIN5Moose15FunctorEnvelopeIdEESt14default_deleteIS3_EESaIS6_EED2Ev
FNDA:241,_ZNSt12_Vector_baseI12MaterialNameSaIS0_EED2Ev
FNDA:1177,_ZNSt12_Vector_baseImSaImEED2Ev
FNDA:0,_ZNSt6vectorINSt7__cxx1112basic_stringIcSt11char_traitsIcESaIcEEESaIS5_EE19_M_range_initializeIPKS5_EEvT_SB_St20forward_iterator_tag
FNDA:0,_ZNKSt6vectorISt4pairIbN11MetaPhysicL10DualNumberIdNS1_28SemiDynamicSparseNumberArrayIdmNS1_8NWrapperILm64EEEEELb1EEEESaIS8_EE12_M_check_lenEmPKc
FNDA:0,_ZNKSt6vectorISt10shared_ptrI17RegistryEntryBaseESaIS2_EE12_M_check_lenEmPKc
FNDA:20882,_ZNSt12_Vector_baseIdSaIdEE17_M_create_storageEm
FNDA:10,_ZNSt12_Vector_baseI21NonlinearVariableNameSaIS0_EE17_M_create_storageEm
FNDA:0,_ZNSt12_Vector_baseISt4pairIhhESaIS1_EED2Ev
FNDA:45,_ZNSt12_Vector_baseIPK8FunctionSaIS2_EED2Ev
FNDA:0,_ZNSt6vectorISt4pairIbN11MetaPhysicL10DualNumberIdNS1_28SemiDynamicSparseNumberArrayIdmNS1_8NWrapperILm64EEEEELb1EEEESaIS8_EE6resizeEmRKS8_
FNDA:45,_ZNSt6vectorI12MaterialNameSaIS0_EEC2ERKS2_
FNDA:0,_ZNSt6vectorI12MaterialNameSaIS0_EE20_M_allocate_and_copyIN9__gnu_cxx17__normal_iteratorIPKS0_S2_EEEEPS0_mT_SA_
FNDA:45,_ZNSt6vectorI12FunctionNameSaIS0_EEC2ERKS2_
FNDA:261,_ZNSt6vectorI13SubdomainNameSaIS0_EED2Ev
FNDA:45,_ZNSt12_Vector_baseI12MaterialNameSaIS0_EE17_M_create_storageEm
FNDA:424,_ZNSt12_Vector_baseImSaImEE17_M_create_storageEm
FNDA:12,_ZNKSt6vectorIP21BVInelasticUpdateBaseSaIS1_EE12_M_check_lenEmPKc
FNDA:0,_ZNSt6vectorIS_ISt4pairIbdESaIS1_EESaIS3_EE15_M_erase_at_endEPS3_
FNDA:10,_ZNSt6vectorI21NonlinearVariableNameSaIS0_EED2Ev
FNDA:20882,_ZNSt6vectorIdSaIdEEC2EmRKdRKS0_
FNDA:21996,_ZNSt12_Vector_baseIdSaIdEED2Ev
FNDA:2597376,_ZNSt6vectorIN11MetaPhysicL10DualNumberIdNS0_28SemiDynamicSparseNumberArrayIdmNS0_8NWrapperILm64EEEEELb1EEESaIS6_EEC2EmRKS7_
FNDA:0,_ZNKSt6vectorIS_ISt4pairIbN11MetaPhysicL10DualNumberIdNS1_28SemiDynamicSparseNumberArrayIdmNS1_8NWrapperILm64EEEEELb1EEEESaIS8_EESaISA_EE12_M_check_lenEmPKc
FNDA:485,_ZNSt12_Vector_baseIP22MooseVariableFieldBaseSaIS1_EED2Ev
FNDA:0,_ZNSt12_Vector_baseISt6vectorIS0_IaSaIaEESaIS2_EESaIS4_EED2Ev
FNDA:158,_ZNSt6vectorIdSaIdEE19_M_range_initializeIPKdEEvT_S5_St20forward_iterator_tag
FNDA:12,_ZNSt6vectorIP21BVInelasticUpdateBaseSaIS1_EE9push_backERKS1_
FNDA:261,_ZNSt12_Vector_baseISt10unique_ptrIN5Moose15FunctorEnvelopeIN11MetaPhysicL10DualNumberIdNS3_28SemiDynamicSparseNumberArrayIdmNS3_8NWrapperILm64EEEEELb1EEEEESt14default_deleteISA_EESaISD_EED2Ev
FNDA:1139968,_ZNSt6vectorIN11MetaPhysicL10DualNumberIdNS0_28SemiDynamicSparseNumberArrayIdmNS0_8NWrapperILm64EEEEELb1EEESaIS6_EE14_M_move_assignEOS8_St17integral_constantIbLb1EE
FNDA:0,_ZNSt12_Vector_baseISt6vectorIS0_IS0_ISt4pairIhhESaIS2_EESaIS4_EESaIS6_EESaIS8_EED2Ev
FNDA:297,_ZNSt6vectorISt10unique_ptrI33OptionalMaterialPropertyProxyBaseI25MaterialPropertyInterfaceESt14default_deleteIS3_EESaIS6_EED2Ev
FNDA:8,_ZNSt6vectorIPK10MooseArrayIdESaIS3_EEC2EmRKS4_
FNDA:241,_ZNSt6vectorI12FunctionNameSaIS0_EED2Ev
FNDA:0,_ZNSt12_Vector_baseISt10shared_ptrI17RegistryEntryBaseESaIS2_EED2Ev
FNDA:0,_ZNSt6vectorISt10unique_ptrI10MooseArrayIdESt14default_deleteIS2_EESaIS5_EED2Ev
FNDA:0,_ZNSt12_Vector_baseIaSaIaEED2Ev
FNDA:0,_ZNKSt6vectorIP10BndElementSaIS1_EE12_M_check_lenEmPKc
FNDA:0,_ZNSt6vectorI21NonlinearVariableNameSaIS0_EE20_M_allocate_and_copyIN9__gnu_cxx17__normal_iteratorIPKS0_S2_EEEEPS0_mT_SA_
FNDA:2438656,_ZNSt6vectorIS_IN11MetaPhysicL10DualNumberIdNS0_28SemiDynamicSparseNumberArrayIdmNS0_8NWrapperILm64EEEEELb1EEESaIS6_EESaIS8_EED2Ev
FNDA:6652160,_ZNSt12_Vector_baseIN11MetaPhysicL10DualNumberIdNS0_28SemiDynamicSparseNumberArrayIdmNS0_8NWrapperILm64EEEEELb1EEESaIS6_EE17_M_create_storageEm
FNDA:1298688,_ZNSt6vectorIS_IN11MetaPhysicL10DualNumberIdNS0_28SemiDynamicSparseNumberArrayIdmNS0_8NWrapperILm64EEEEELb1EEESaIS6_EESaIS8_EEC2EmRKS8_RKS9_
FNDA:0,_ZNSt6vectorIS_ISt4pairIbdESaIS1_EESaIS3_EE6resizeEm
FNDA:297,_ZNSt6vectorISt3setIP18MooseVariableFieldIdESt4lessIS3_ESaIS3_EESaIS7_EED2Ev
FNDA:0,_ZNSt12_Vector_baseISt4pairIbdESaIS1_EED2Ev
FNDA:0,_ZNSt6vectorISt10unique_ptrI13PropertyValueSt14default_deleteIS1_EESaIS4_EE11_S_relocateEPS4_S7_S7_RS5_
FNDA:297,_ZNSt12_Vector_baseIP15MooseVariableFEIN5Eigen6MatrixIdLin1ELi1ELi0ELin1ELi1EEEESaIS5_EED2Ev
FNDA:159,_ZNSt12_Vector_baseISt10unique_ptrI33OptionalMaterialPropertyProxyBaseI8MaterialESt14default_deleteIS3_EESaIS6_EED2Ev
FNDA:48,_ZNSt6vectorIPK10MooseArrayIN7libMesh11VectorValueIdEEESaIS6_EEC2EmRKS7_
FNDA:297,_ZNSt12_Vector_baseISt10unique_ptrI33OptionalMaterialPropertyProxyBaseI25MaterialPropertyInterfaceESt14default_deleteIS3_EESaIS6_EED2Ev
FNDA:21,_ZNSt6vectorIPK8FunctionSaIS2_EE6resizeEm
FNDA:0,_ZNSt6vectorIS_IS_IaSaIaEESaIS1_EESaIS3_EED2Ev
FNDA:261,_ZNSt12_Vector_baseItSaItEED2Ev
FNDA:0,_ZNSt12_Vector_baseISt6vectorIS0_ISt4pairIhhESaIS2_EESaIS4_EESaIS6_EED2Ev
FNDA:45,_ZNSt12_Vector_baseIPK10MooseArrayIN7libMesh11VectorValueIdEEESaIS6_EED2Ev
FNDA:297,_ZNSt12_Vector_baseIP15MooseVariableFEIN7libMesh11VectorValueIdEEESaIS5_EED2Ev
FNDA:168,_ZNSt6vectorI15AuxVariableNameSaIS0_EED2Ev
FNDA:0,_ZNSt12_Vector_baseISt10unique_ptrI10MooseArrayIdESt14default_deleteIS2_EESaIS5_EED2Ev
FNDA:26,_ZNSt6vectorISt5tupleIJNSt7__cxx1112basic_stringIcSt11char_traitsIcESaIcEEEN5Moose23RelationshipManagerTypeESt8functionIFvRK15InputParametersRSA_EEEESaISG_EED2Ev
FNDA:0,_ZNSt6vectorISt10shared_ptrI17RegistryEntryBaseESaIS2_EED2Ev
FNDA:196,_ZNSt6vectorI12FunctionNameSaIS0_EEC2ESt16initializer_listIS0_ERKS1_
FNDA:5,_ZNSt6vectorISt4pairINSt7__cxx1112basic_stringIcSt11char_traitsIcESaIcEEEPSt10unique_ptrIN7libMesh8MeshBaseESt14default_deleteIS9_EEESaISE_EED2Ev
FNDA:5,_ZNSt12_Vector_baseISt5tupleIJmtsEESaIS1_EED2Ev
FNDA:1139968,_ZNSt6vectorIS_IN11MetaPhysicL10DualNumberIdNS0_28SemiDynamicSparseNumberArrayIdmNS0_8NWrapperILm64EEEEELb1EEESaIS6_EESaIS8_EE14_M_move_assignEOSA_St17integral_constantIbLb1EE
FNDA:0,_ZNSt6vectorIS_ISt4pairIbN11MetaPhysicL10DualNumberIdNS1_28SemiDynamicSparseNumberArrayIdmNS1_8NWrapperILm64EEEEELb1EEEESaIS8_EESaISA_EED2Ev
FNDA:5,_ZNSt12_Vector_baseIP10BndElementSaIS1_EED2Ev
FNDA:0,_ZNKSt6vectorIS_ISt4pairIbdESaIS1_EESaIS3_EE12_M_check_lenEmPKc
FNDA:2597376,_ZNSt6vectorIN11MetaPhysicL10DualNumberIdNS0_28SemiDynamicSparseNumberArrayIdmNS0_8NWrapperILm64EEEEELb1EEESaIS6_EE21_M_default_initializeEm
FNDA:0,_ZNSt6vectorIS_IS_ISt4pairIhhESaIS1_EESaIS3_EESaIS5_EED2Ev
FNDA:8,_ZNSt12_Vector_baseIPK10MooseArrayIdESaIS3_EE17_M_create_storageEm
FNDA:0,_ZNKSt6vectorImSaImEE12_M_check_lenEmPKc
FNDA:0,_ZNSt6vectorIS_IS_IS_ISt4pairIhhESaIS1_EESaIS3_EESaIS5_EESaIS7_EED2Ev
FNDA:0,_ZNSt12_Vector_baseISt6vectorISt4pairIhhESaIS2_EESaIS4_EED2Ev
FNDA:10,_ZNSt6vectorI21NonlinearVariableNameSaIS0_EEC2ERKS2_
FNDA:45,_ZNSt12_Vector_baseI12FunctionNameSaIS0_EE17_M_create_storageEm
FNDA:0,_ZNKSt6vectorIPK8FunctionSaIS2_EE12_M_check_lenEmPKc
FNDA:0,_ZNSt6vectorINSt7__cxx1112basic_stringIcSt11char_traitsIcESaIcEEESaIS5_EEC2ESt16initializer_listIS5_ERKS6_
FNDA:5,_ZNSt6vectorI12BoundaryNameSaIS0_EEC2ERKS2_
FNDA:0,_ZNSt6vectorIS_ISt4pairIbdESaIS1_EESaIS3_EED2Ev
FNDA:56,_ZNSt12_Vector_baseIiSaIiEED2Ev
FNDA:158,_ZNSt6vectorIdSaIdEEC2ESt16initializer_listIdERKS0_
FNDA:159,_ZNSt6vectorISt10unique_ptrI33OptionalMaterialPropertyProxyBaseI8MaterialESt14default_deleteIS3_EESaIS6_EED2Ev
FNDA:2756096,_ZNSt6vectorIN11MetaPhysicL10DualNumberIdNS0_28SemiDynamicSparseNumberArrayIdmNS0_8NWrapperILm64EEEEELb1EEESaIS6_EEC2ERKS8_
FNDA:196,_ZNSt6vectorI12MaterialNameSaIS0_EE19_M_range_initializeIPKS0_EEvT_S6_St20forward_iterator_tag
FNDA:0,_ZNSt6vectorI12BoundaryNameSaIS0_EE20_M_allocate_and_copyIN9__gnu_cxx17__normal_iteratorIPKS0_S2_EEEEPS0_mT_SA_
FNDA:45,_ZNSt12_Vector_baseIPK10MooseArrayIN7libMesh11VectorValueIN11MetaPhysicL10DualNumberIdNS3_28SemiDynamicSparseNumberArrayIdmNS3_8NWrapperILm64EEEEELb1EEEEEESaISD_EED2Ev
FNDA:0,_ZNSt12_Vector_baseISt4pairIbN11MetaPhysicL10DualNumberIdNS1_28SemiDynamicSparseNumberArrayIdmNS1_8NWrapperILm64EEEEELb1EEEESaIS8_EED2Ev
FNDA:20,_ZNSt6vectorI13MooseEnumItemSaIS0_EED2Ev
FNDA:0,_ZNSt6vectorISt10unique_ptrI13PropertyValueSt14default_deleteIS1_EESaIS4_EE15_M_erase_at_endEPS4_
FNDA:2438656,_ZNSt12_Vector_baseISt6vectorIN11MetaPhysicL10DualNumberIdNS1_28SemiDynamicSparseNumberArrayIdmNS1_8NWrapperILm64EEEEELb1EEESaIS7_EESaIS9_EED2Ev
FNDA:297,_ZNSt12_Vector_baseISt10unique_ptrI13PropertyValueSt14default_deleteIS1_EESaIS4_EED2Ev
FNDA:196,_ZNSt6vectorI12FunctionNameSaIS0_EE19_M_range_initializeIPKS0_EEvT_S6_St20forward_iterator_tag
FNDA:0,_ZNSt6vectorISt10unique_ptrI13PropertyValueSt14default_deleteIS1_EESaIS4_EE6resizeEm
FNF:142
FNH:96
DA:99,10253564
DA:100,237
DA:105,0
DA:106,0
DA:107,0
DA:108,0
DA:115,2279936
DA:116,2279936
DA:117,2279936
DA:299,0
DA:332,5215862
DA:364,10259754
DA:366,0
DA:367,10259754
DA:368,10259754
DA:378,7972876
DA:386,10259766
DA:393,7972371
DA:395,7972371
DA:396,7972371
DA:397,7972371
DA:398,7972371
DA:499,0
DA:504,0
DA:551,2597594
DA:552,2597594
DA:553,2597594
DA:564,2618258
DA:566,2618258
DA:567,1319570
DA:596,2756519
DA:598,2756519
DA:600,2756519
DA:601,2756519
DA:604,2756519
DA:673,550
DA:675,550
DA:677,550
DA:679,550
DA:728,2441257
DA:730,2441257
DA:733,8956932
DA:766,2279936
DA:988,2759241
DA:1008,21
DA:1010,21
DA:1011,21
DA:1012,0
DA:1013,0
DA:1014,21
DA:1029,0
DA:1031,0
DA:1032,0
DA:1033,0
DA:1034,0
DA:1035,0
DA:1074,196
DA:1075,196
DA:1124,11712843
DA:1143,54580816
DA:1276,12
DA:1278,12
DA:1283,0
DA:1287,12
DA:1288,12
DA:1294,6736
DA:1611,0
DA:1617,0
DA:1619,0
DA:1621,0
DA:1624,0
DA:1682,550
DA:1685,550
DA:1687,550
DA:1688,550
DA:1689,550
DA:1693,550
DA:1699,1298688
DA:1701,1298688
DA:1702,2618258
DA:1704,1298688
DA:1710,2597376
DA:1712,2597594
DA:1713,2597594
DA:1715,2597376
DA:1828,0
DA:1836,0
DA:1847,0
DA:1891,12
DA:1893,12
DA:1894,0
DA:1896,12
DA:1897,12
DA:1904,5216402
DA:1905,0
DA:1928,0
DA:1930,0
DA:1934,0
DA:1937,0
DA:1954,2279936
DA:1960,2279936
DA:2074,761
DA:2076,761
LF:103
LH:72
end_of_record
TN:
SF:/usr/share/miniconda3/envs/moose/x86_64-conda-linux-gnu/include/c++/12.3.0/bits/unique_ptr.h
FN:89,_ZNKSt14default_deleteIN7libMesh9DofObjectEEclEPS1_
FN:89,_ZNKSt14default_deleteI10MooseArrayIN11MetaPhysicL10DualNumberIdNS1_28SemiDynamicSparseNumberArrayIdmNS1_8NWrapperILm64EEEEELb1EEEEEclEPS8_
FN:89,_ZNKSt14default_deleteI10MooseArrayIN7libMesh11VectorValueIdEEEEclEPS4_
FN:89,_ZNKSt14default_deleteI10MooseArrayIdEEclEPS1_
FN:89,_ZNKSt14default_deleteI10MooseArrayIN5Eigen6MatrixIdLin1ELi1ELi0ELin1ELi1EEEEEclEPS4_
FN:89,_ZNKSt14default_deleteI10MooseArrayIN7libMesh11VectorValueIN11MetaPhysicL10DualNumberIdNS3_28SemiDynamicSparseNumberArrayIdmNS3_8NWrapperILm64EEEEELb1EEEEEEEclEPSB_
FN:89,_ZNKSt14default_deleteIN7libMesh4NodeEEclEPS1_
FN:128,_ZNKSt14default_deleteIA_N7libMesh11TensorValueIdEEEclIS2_EENSt9enable_ifIXsrSt14is_convertibleIPA_T_PS3_E5valueEvE4typeEPS8_
FN:128,_ZNKSt14default_deleteIA_18RankTwoTensorTemplIdEEclIS1_EENSt9enable_ifIXsrSt14is_convertibleIPA_T_PS2_E5valueEvE4typeEPS7_
FN:128,_ZNKSt14default_deleteIA_N11MetaPhysicL10DualNumberIdNS0_28SemiDynamicSparseNumberArrayIdmNS0_8NWrapperILm64EEEEELb1EEEEclIS6_EENSt9enable_ifIXsrSt14is_convertibleIPA_T_PS7_E5valueEvE4typeEPSC_
FN:128,_ZNKSt14default_deleteIA_18RankTwoTensorTemplIN11MetaPhysicL10DualNumberIdNS1_28SemiDynamicSparseNumberArrayIdmNS1_8NWrapperILm64EEEEELb1EEEEEclIS8_EENSt9enable_ifIXsrSt14is_convertibleIPA_T_PS9_E5valueEvE4typeEPSE_
FN:128,_ZNKSt14default_deleteIA_N7libMesh11TensorValueIN11MetaPhysicL10DualNumberIdNS2_28SemiDynamicSparseNumberArrayIdmNS2_8NWrapperILm64EEEEELb1EEEEEEclIS9_EENSt9enable_ifIXsrSt14is_convertibleIPA_T_PSA_E5valueEvE4typeEPSF_
FN:128,_ZNKSt14default_deleteIA_N7libMesh11VectorValueIN11MetaPhysicL10DualNumberIdNS2_28SemiDynamicSparseNumberArrayIdmNS2_8NWrapperILm64EEEEELb1EEEEEEclIS9_EENSt9enable_ifIXsrSt14is_convertibleIPA_T_PSA_E5valueEvE4typeEPSF_
FN:128,_ZNKSt14default_deleteIA_N5Eigen6MatrixIdLin1ELi3ELi0ELin1ELi3EEEEclIS2_EENSt9enable_ifIXsrSt14is_convertibleIPA_T_PS3_E5valueEvE4typeEPS8_
FN:128,_ZNKSt14default_deleteIA_N5Eigen6MatrixIdLin1ELi1ELi0ELin1ELi1EEEEclIS2_EENSt9enable_ifIXsrSt14is_convertibleIPA_T_PS3_E5valueEvE4typeEPS8_
FN:181,_ZNSt15__uniq_ptr_implIN7libMesh10Parameters5ValueESt14default_deleteIS2_EEaSEOS5_
FN:181,_ZNSt15__uniq_ptr_implI13PropertyValueSt14default_deleteIS0_EEaSEOS3_
FN:390,_ZNSt10unique_ptrIN7libMesh8MeshBaseESt14default_deleteIS1_EED2Ev
FN:390,_ZNSt10unique_ptrI14BVEqvStrainAuxSt14default_deleteIS0_EED2Ev
FN:390,_ZNSt10unique_ptrIN7libMesh10Parameters9ParameterI21NonlinearVariableNameEESt14default_deleteIS4_EED2Ev
FN:390,_ZNSt10unique_ptrI25BVSinglePhaseFlowMaterialSt14default_deleteIS0_EED2Ev
FN:390,_ZNSt10unique_ptrIN7libMesh10Parameters9ParameterI14UserObjectNameEESt14default_deleteIS4_EED2Ev
FN:390,_ZNSt10unique_ptrIN7libMesh10Parameters9ParameterIjEESt14default_deleteIS3_EED2Ev
FN:390,_ZNSt10unique_ptrI26BVFVSinglePhaseSoluteDarcySt14default_deleteIS0_EED2Ev
FN:390,_ZNSt10unique_ptrI20BVConstantDispersionSt14default_deleteIS0_EED2Ev
FN:390,_ZNSt10unique_ptrI31BVSinglePhaseFlowSoluteMaterialSt14default_deleteIS0_EED2Ev
FN:390,_ZNSt10unique_ptrI12BVPressureBCSt14default_deleteIS0_EED2Ev
FN:390,_ZNSt10unique_ptrI20BVFVSinglePhaseDarcySt14default_deleteIS0_EED2Ev
FN:390,_ZNSt10unique_ptrI10MooseArrayIN5Eigen6MatrixIdLin1ELi1ELi0ELin1ELi1EEEESt14default_deleteIS4_EED2Ev
FN:390,_ZNSt10unique_ptrI24BVMultiPhaseFlowMaterialSt14default_deleteIS0_EED2Ev
FN:390,_ZNSt10unique_ptrI20BVRTL2020ModelUpdateSt14default_deleteIS0_EED2Ev
FN:390,_ZNSt10unique_ptrIN7libMesh10Parameters9ParameterIdEESt14default_deleteIS3_EED2Ev
FN:390,_ZNSt10unique_ptrI23AppFactoryBuildInfoBaseSt14default_deleteIS0_EED2Ev
FN:390,_ZNSt10unique_ptrIN7libMesh10Parameters9ParameterI9MooseEnumEESt14default_deleteIS4_EED2Ev
FN:390,_ZNSt10unique_ptrI29BVMechanicalInterfaceMaterialSt14default_deleteIS0_EED2Ev
FN:390,_ZNSt10unique_ptrIN7libMesh4NodeESt14default_deleteIS1_EED2Ev
FN:390,_ZNSt10unique_ptrI20BVMechanicalMaterialSt14default_deleteIS0_EED2Ev
FN:390,_ZNSt10unique_ptrIN7libMesh10Parameters9ParameterIP13FEProblemBaseEESt14default_deleteIS5_EED2Ev
FN:390,_ZNSt10unique_ptrI25BVFaultInterfaceGeneratorSt14default_deleteIS0_EED2Ev
FN:390,_ZNSt10unique_ptrIN7libMesh9DofObjectESt14default_deleteIS1_EED2Ev
FN:390,_ZNSt10unique_ptrI36BVFVMultiPhasePressureTimeDerivativeSt14default_deleteIS0_EED2Ev
FN:390,_ZNSt10unique_ptrI18ADMaterialPropertyIN7libMesh11VectorValueIdEEESt14default_deleteIS4_EED2Ev
FN:390,_ZNSt10unique_ptrI16MaterialPropertyIdESt14default_deleteIS1_EED2Ev
FN:390,_ZNSt10unique_ptrI13PropertyValueSt14default_deleteIS0_EED2Ev
FN:390,_ZNSt10unique_ptrI16BVMisesStressAuxSt14default_deleteIS0_EED2Ev
FN:390,_ZNSt10unique_ptrI21BVMechanicalInterfaceSt14default_deleteIS0_EED2Ev
FN:390,_ZNSt10unique_ptrI21BVFaultShearStressAuxSt14default_deleteIS0_EED2Ev
FN:390,_ZNSt10unique_ptrI38BVFVMultiPhaseSaturationTimeDerivativeSt14default_deleteIS0_EED2Ev
FN:390,_ZNSt10unique_ptrI17BVShearTractionBCSt14default_deleteIS0_EED2Ev
FN:390,_ZNSt10unique_ptrIN7libMesh10Parameters9ParameterISt6vectorI12FunctionNameSaIS4_EEEESt14default_deleteIS7_EED2Ev
FN:390,_ZNSt10unique_ptrIN7libMesh10Parameters9ParameterINSt7__cxx1112basic_stringIcSt11char_traitsIcESaIcEEEEESt14default_deleteIS9_EED2Ev
FN:390,_ZNSt10unique_ptrIdSt14default_deleteIdEED2Ev
FN:390,_ZNSt10unique_ptrI10MooseArrayIN11MetaPhysicL10DualNumberIdNS1_28SemiDynamicSparseNumberArrayIdmNS1_8NWrapperILm64EEEEELb1EEEESt14default_deleteIS8_EED2Ev
FN:390,_ZNSt10unique_ptrI18ADMaterialPropertyI18RankTwoTensorTemplIdEESt14default_deleteIS3_EED2Ev
FN:390,_ZNSt10unique_ptrI13BVPressureAuxSt14default_deleteIS0_EED2Ev
FN:390,_ZNSt10unique_ptrI20BVStrainComponentAuxSt14default_deleteIS0_EED2Ev
FN:390,_ZNSt10unique_ptrI17BVFluidPropertiesSt14default_deleteIS0_EED2Ev
FN:390,_ZNSt10unique_ptrI18BVSinglePhaseDarcySt14default_deleteIS0_EED2Ev
FN:390,_ZNSt10unique_ptrI29BVFVMultiPhaseSaturationDarcySt14default_deleteIS0_EED2Ev
FN:390,_ZNSt10unique_ptrI18BVDarcyVelocityAuxSt14default_deleteIS0_EED2Ev
FN:390,_ZNSt10unique_ptrIN7libMesh10Parameters9ParameterI12FunctionNameEESt14default_deleteIS4_EED2Ev
FN:390,_ZNSt10unique_ptrI27BVFVMultiPhasePressureDarcySt14default_deleteIS0_EED2Ev
FN:390,_ZNSt10unique_ptrI33OptionalMaterialPropertyProxyBaseI8MaterialESt14default_deleteIS2_EED2Ev
FN:390,_ZNSt10unique_ptrI16MaterialPropertyI18RankTwoTensorTemplIdEESt14default_deleteIS3_EED2Ev
FN:390,_ZNSt10unique_ptrI19BVBurgerModelUpdateSt14default_deleteIS0_EED2Ev
FN:390,_ZNSt10unique_ptrI18BVStressDivergenceSt14default_deleteIS0_EED2Ev
FN:390,_ZNSt10unique_ptrI27BVMaxwellViscoelasticUpdateSt14default_deleteIS0_EED2Ev
FN:390,_ZNSt10unique_ptrI22BVConstantPermeabilitySt14default_deleteIS0_EED2Ev
FN:390,_ZNSt10unique_ptrI35BVFVSinglePhaseSoluteTimeDerivativeSt14default_deleteIS0_EED2Ev
FN:390,_ZNSt10unique_ptrI19BVLubby2ModelUpdateSt14default_deleteIS0_EED2Ev
FN:390,_ZNSt10unique_ptrI18BVConstantPorositySt14default_deleteIS0_EED2Ev
FN:390,_ZNSt10unique_ptrI33OptionalMaterialPropertyProxyBaseI25MaterialPropertyInterfaceESt14default_deleteIS2_EED2Ev
FN:390,_ZNSt10unique_ptrI26BVKelvinViscoelasticUpdateSt14default_deleteIS0_EED2Ev
FN:390,_ZNSt10unique_ptrI27BVCapillaryPressurePowerLawSt14default_deleteIS0_EED2Ev
FN:390,_ZNSt10unique_ptrI22BVFaultNormalStressAuxSt14default_deleteIS0_EED2Ev
FN:390,_ZNSt10unique_ptrI27BVSinglePhaseTimeDerivativeSt14default_deleteIS0_EED2Ev
FN:390,_ZNSt10unique_ptrIN7libMesh10Parameters9ParameterISt6vectorI12BoundaryNameSaIS4_EEEESt14default_deleteIS7_EED2Ev
FN:390,_ZNSt10unique_ptrIN7libMesh10Parameters9ParameterISt6vectorI12MaterialNameSaIS4_EEEESt14default_deleteIS7_EED2Ev
FN:390,_ZNSt10unique_ptrI10MooseArrayIdESt14default_deleteIS1_EED2Ev
FN:390,_ZNSt10unique_ptrIN23variant_filter_iteratorIN7libMesh10Predicates15multi_predicateEPNS1_4ElemERS5_PS5_KS5_RS8_PS8_E8PredBaseESt14default_deleteISC_EED2Ev
FN:390,_ZNSt10unique_ptrIN5Moose11FunctorBaseIN11MetaPhysicL10DualNumberIdNS2_28SemiDynamicSparseNumberArrayIdmNS2_8NWrapperILm64EEEEELb1EEEEESt14default_deleteIS9_EED2Ev
FN:390,_ZNSt10unique_ptrIN7libMesh10Parameters9ParameterINS0_11VectorValueIdEEEESt14default_deleteIS5_EED2Ev
FN:390,_ZNSt10unique_ptrI29BVFVSinglePhaseTimeDerivativeSt14default_deleteIS0_EED2Ev
FN:390,_ZNSt10unique_ptrI10MooseArrayIN7libMesh11VectorValueIdEEESt14default_deleteIS4_EED2Ev
FN:390,_ZNSt10unique_ptrI18ADMaterialPropertyIdESt14default_deleteIS1_EED2Ev
FN:390,_ZNSt10unique_ptrIN5Moose11FunctorBaseIdEESt14default_deleteIS2_EED2Ev
FN:390,_ZNSt10unique_ptrI24BVConstantFrictionUpdateSt14default_deleteIS0_EED2Ev
FN:390,_ZNSt10unique_ptrI19AppFactoryBuildInfoI9BeaverAppESt14default_deleteIS2_EED2Ev
FN:390,_ZNSt10unique_ptrI20BVStressComponentAuxSt14default_deleteIS0_EED2Ev
FN:390,_ZNSt10unique_ptrIN7libMesh10Parameters9ParameterISt6vectorI21NonlinearVariableNameSaIS4_EEEESt14default_deleteIS7_EED2Ev
FN:390,_ZNSt10unique_ptrI16MaterialPropertyIN7libMesh11VectorValueIdEEESt14default_deleteIS4_EED2Ev
FN:390,_ZNSt10unique_ptrI23BVPoroMechanicsMaterialSt14default_deleteIS0_EED2Ev
FN:390,_ZNSt10unique_ptrIN7libMesh10Parameters9ParameterI17MeshGeneratorNameEESt14default_deleteIS4_EED2Ev
FN:390,_ZNSt10unique_ptrIN7libMesh10Parameters9ParameterItEESt14default_deleteIS3_EED2Ev
FN:390,_ZNSt10unique_ptrI30BVRelativePermeabilityPowerLawSt14default_deleteIS0_EED2Ev
FN:390,_ZNSt10unique_ptrI18BVEqvStrainRateAuxSt14default_deleteIS0_EED2Ev
FN:390,_ZNSt10unique_ptrINSt13__future_base12_Result_baseENS1_8_DeleterEED2Ev
FN:390,_ZNSt10unique_ptrIN7libMesh10Parameters5ValueESt14default_deleteIS2_EED2Ev
FN:390,_ZNSt10unique_ptrIN7libMesh10Parameters9ParameterIbEESt14default_deleteIS3_EED2Ev
FN:390,_ZNSt10unique_ptrIN23variant_filter_iteratorIN7libMesh10Predicates15multi_predicateEPNS1_4ElemERS5_PS5_KS5_RS8_PS8_E8IterBaseESt14default_deleteISC_EED2Ev
FN:390,_ZNSt10unique_ptrIN7libMesh10Parameters9ParameterI12MaterialNameEESt14default_deleteIS4_EED2Ev
FN:390,_ZNSt10unique_ptrI10MooseArrayIN7libMesh11VectorValueIN11MetaPhysicL10DualNumberIdNS3_28SemiDynamicSparseNumberArrayIdmNS3_8NWrapperILm64EEEEELb1EEEEEESt14default_deleteISB_EED2Ev
FN:422,_ZNSt10unique_ptrIN7libMesh10Parameters5ValueESt14default_deleteIS2_EEaSINS1_9ParameterISt6vectorI21NonlinearVariableNameSaIS9_EEEES3_ISC_EEENSt9enable_ifIXsrSt6__and_IJSF_IJSt14is_convertibleINS_IT_T0_E7pointerEPS2_ESt6__not_ISt8is_arrayISH_EEEESt13is_assignableIRS4_OSI_EEE5valueERS5_E4typeEOSJ_
FN:422,_ZNSt10unique_ptrIN7libMesh10Parameters5ValueESt14default_deleteIS2_EEaSINS1_9ParameterI17MeshGeneratorNameEES3_IS9_EEENSt9enable_ifIXsrSt6__and_IJSC_IJSt14is_convertibleINS_IT_T0_E7pointerEPS2_ESt6__not_ISt8is_arrayISE_EEEESt13is_assignableIRS4_OSF_EEE5valueERS5_E4typeEOSG_
FN:422,_ZNSt10unique_ptrIN7libMesh10Parameters5ValueESt14default_deleteIS2_EEaSINS1_9ParameterI12FunctionNameEES3_IS9_EEENSt9enable_ifIXsrSt6__and_IJSC_IJSt14is_convertibleINS_IT_T0_E7pointerEPS2_ESt6__not_ISt8is_arrayISE_EEEESt13is_assignableIRS4_OSF_EEE5valueERS5_E4typeEOSG_
FN:422,_ZNSt10unique_ptrIN7libMesh10Parameters5ValueESt14default_deleteIS2_EEaSINS1_9ParameterIbEES3_IS8_EEENSt9enable_ifIXsrSt6__and_IJSB_IJSt14is_convertibleINS_IT_T0_E7pointerEPS2_ESt6__not_ISt8is_arrayISD_EEEESt13is_assignableIRS4_OSE_EEE5valueERS5_E4typeEOSF_
FN:422,_ZNSt10unique_ptrIN7libMesh10Parameters5ValueESt14default_deleteIS2_EEaSINS1_9ParameterI9MooseEnumEES3_IS9_EEENSt9enable_ifIXsrSt6__and_IJSC_IJSt14is_convertibleINS_IT_T0_E7pointerEPS2_ESt6__not_ISt8is_arrayISE_EEEESt13is_assignableIRS4_OSF_EEE5valueERS5_E4typeEOSG_
FN:422,_ZNSt10unique_ptrIN7libMesh10Parameters5ValueESt14default_deleteIS2_EEaSINS1_9ParameterISt6vectorI12MaterialNameSaIS9_EEEES3_ISC_EEENSt9enable_ifIXsrSt6__and_IJSF_IJSt14is_convertibleINS_IT_T0_E7pointerEPS2_ESt6__not_ISt8is_arrayISH_EEEESt13is_assignableIRS4_OSI_EEE5valueERS5_E4typeEOSJ_
FN:422,_ZNSt10unique_ptrIN7libMesh10Parameters5ValueESt14default_deleteIS2_EEaSINS1_9ParameterItEES3_IS8_EEENSt9enable_ifIXsrSt6__and_IJSB_IJSt14is_convertibleINS_IT_T0_E7pointerEPS2_ESt6__not_ISt8is_arrayISD_EEEESt13is_assignableIRS4_OSE_EEE5valueERS5_E4typeEOSF_
FN:422,_ZNSt10unique_ptrIN7libMesh10Parameters5ValueESt14default_deleteIS2_EEaSINS1_9ParameterISt6vectorI12BoundaryNameSaIS9_EEEES3_ISC_EEENSt9enable_ifIXsrSt6__and_IJSF_IJSt14is_convertibleINS_IT_T0_E7pointerEPS2_ESt6__not_ISt8is_arrayISH_EEEESt13is_assignableIRS4_OSI_EEE5valueERS5_E4typeEOSJ_
FN:422,_ZNSt10unique_ptrIN7libMesh10Parameters5ValueESt14default_deleteIS2_EEaSINS1_9ParameterISt6vectorI12FunctionNameSaIS9_EEEES3_ISC_EEENSt9enable_ifIXsrSt6__and_IJSF_IJSt14is_convertibleINS_IT_T0_E7pointerEPS2_ESt6__not_ISt8is_arrayISH_EEEESt13is_assignableIRS4_OSI_EEE5valueERS5_E4typeEOSJ_
FN:422,_ZNSt10unique_ptrIN7libMesh10Parameters5ValueESt14default_deleteIS2_EEaSINS1_9ParameterINSt7__cxx1112basic_stringIcSt11char_traitsIcESaIcEEEEES3_ISE_EEENSt9enable_ifIXsrSt6__and_IJSH_IJSt14is_convertibleINS_IT_T0_E7pointerEPS2_ESt6__not_ISt8is_arrayISJ_EEEESt13is_assignableIRS4_OSK_EEE5valueERS5_E4typeEOSL_
FN:422,_ZNSt10unique_ptrIN7libMesh10Parameters5ValueESt14default_deleteIS2_EEaSINS1_9ParameterIjEES3_IS8_EEENSt9enable_ifIXsrSt6__and_IJSB_IJSt14is_convertibleINS_IT_T0_E7pointerEPS2_ESt6__not_ISt8is_arrayISD_EEEESt13is_assignableIRS4_OSE_EEE5valueERS5_E4typeEOSF_
FN:422,_ZNSt10unique_ptrIN7libMesh10Parameters5ValueESt14default_deleteIS2_EEaSINS1_9ParameterI14UserObjectNameEES3_IS9_EEENSt9enable_ifIXsrSt6__and_IJSC_IJSt14is_convertibleINS_IT_T0_E7pointerEPS2_ESt6__not_ISt8is_arrayISE_EEEESt13is_assignableIRS4_OSF_EEE5valueERS5_E4typeEOSG_
FN:422,_ZNSt10unique_ptrIN7libMesh10Parameters5ValueESt14default_deleteIS2_EEaSINS1_9ParameterI21NonlinearVariableNameEES3_IS9_EEENSt9enable_ifIXsrSt6__and_IJSC_IJSt14is_convertibleINS_IT_T0_E7pointerEPS2_ESt6__not_ISt8is_arrayISE_EEEESt13is_assignableIRS4_OSF_EEE5valueERS5_E4typeEOSG_
FN:422,_ZNSt10unique_ptrIN7libMesh10Parameters5ValueESt14default_deleteIS2_EEaSINS1_9ParameterI12MaterialNameEES3_IS9_EEENSt9enable_ifIXsrSt6__and_IJSC_IJSt14is_convertibleINS_IT_T0_E7pointerEPS2_ESt6__not_ISt8is_arrayISE_EEEESt13is_assignableIRS4_OSF_EEE5valueERS5_E4typeEOSG_
FN:422,_ZNSt10unique_ptrI23AppFactoryBuildInfoBaseSt14default_deleteIS0_EEaSI19AppFactoryBuildInfoI9BeaverAppES1_IS7_EEENSt9enable_ifIXsrSt6__and_IJSA_IJSt14is_convertibleINS_IT_T0_E7pointerEPS0_ESt6__not_ISt8is_arrayISC_EEEESt13is_assignableIRS2_OSD_EEE5valueERS3_E4typeEOSE_
FN:422,_ZNSt10unique_ptrIN7libMesh10Parameters5ValueESt14default_deleteIS2_EEaSINS1_9ParameterINS0_11VectorValueIdEEEES3_ISA_EEENSt9enable_ifIXsrSt6__and_IJSD_IJSt14is_convertibleINS_IT_T0_E7pointerEPS2_ESt6__not_ISt8is_arrayISF_EEEESt13is_assignableIRS4_OSG_EEE5valueERS5_E4typeEOSH_
FN:422,_ZNSt10unique_ptrIN7libMesh10Parameters5ValueESt14default_deleteIS2_EEaSINS1_9ParameterIdEES3_IS8_EEENSt9enable_ifIXsrSt6__and_IJSB_IJSt14is_convertibleINS_IT_T0_E7pointerEPS2_ESt6__not_ISt8is_arrayISD_EEEESt13is_assignableIRS4_OSE_EEE5valueERS5_E4typeEOSF_
FN:665,_ZNSt10unique_ptrIA_N5Eigen6MatrixIdLin1ELi3ELi0ELin1ELi3EEESt14default_deleteIS3_EED2Ev
FN:665,_ZNSt10unique_ptrIA_N7libMesh11TensorValueIN11MetaPhysicL10DualNumberIdNS2_28SemiDynamicSparseNumberArrayIdmNS2_8NWrapperILm64EEEEELb1EEEEESt14default_deleteISA_EED2Ev
FN:665,_ZNSt10unique_ptrIA_N5Eigen6MatrixIdLin1ELi1ELi0ELin1ELi1EEESt14default_deleteIS3_EED2Ev
FN:665,_ZNSt10unique_ptrIA_N11MetaPhysicL10DualNumberIdNS0_28SemiDynamicSparseNumberArrayIdmNS0_8NWrapperILm64EEEEELb1EEESt14default_deleteIS7_EED2Ev
FN:665,_ZNSt10unique_ptrIA_18RankTwoTensorTemplIdESt14default_deleteIS2_EED2Ev
FN:665,_ZNSt10unique_ptrIA_N7libMesh11VectorValueIN11MetaPhysicL10DualNumberIdNS2_28SemiDynamicSparseNumberArrayIdmNS2_8NWrapperILm64EEEEELb1EEEEESt14default_deleteISA_EED2Ev
FN:665,_ZNSt10unique_ptrIA_N7libMesh11TensorValueIdEESt14default_deleteIS3_EED2Ev
FN:665,_ZNSt10unique_ptrIA_18RankTwoTensorTemplIN11MetaPhysicL10DualNumberIdNS1_28SemiDynamicSparseNumberArrayIdmNS1_8NWrapperILm64EEEEELb1EEEESt14default_deleteIS9_EED2Ev
FN:1064,_ZSt11make_uniqueIN7libMesh10Parameters9ParameterIP13FEProblemBaseEEJEENSt8__detail9_MakeUniqIT_E15__single_objectEDpOT0_
FN:1064,_ZSt11make_uniqueI29BVFVSinglePhaseTimeDerivativeJRK15InputParametersEENSt8__detail9_MakeUniqIT_E15__single_objectEDpOT0_
FN:1064,_ZSt11make_uniqueI20BVMechanicalMaterialJRK15InputParametersEENSt8__detail9_MakeUniqIT_E15__single_objectEDpOT0_
FN:1064,_ZSt11make_uniqueI22BVFaultNormalStressAuxJRK15InputParametersEENSt8__detail9_MakeUniqIT_E15__single_objectEDpOT0_
FN:1064,_ZSt11make_uniqueIN7libMesh10Parameters9ParameterISt6vectorI21NonlinearVariableNameSaIS4_EEEEJEENSt8__detail9_MakeUniqIT_E15__single_objectEDpOT0_
FN:1064,_ZSt11make_uniqueI23BVPoroMechanicsMaterialJRK15InputParametersEENSt8__detail9_MakeUniqIT_E15__single_objectEDpOT0_
FN:1064,_ZSt11make_uniqueI16MaterialPropertyIdEJjEENSt8__detail9_MakeUniqIT_E15__single_objectEDpOT0_
FN:1064,_ZSt11make_uniqueI27BVCapillaryPressurePowerLawJRK15InputParametersEENSt8__detail9_MakeUniqIT_E15__single_objectEDpOT0_
FN:1064,_ZSt11make_uniqueI14BVEqvStrainAuxJRK15InputParametersEENSt8__detail9_MakeUniqIT_E15__single_objectEDpOT0_
FN:1064,_ZSt11make_uniqueI27BVFVMultiPhasePressureDarcyJRK15InputParametersEENSt8__detail9_MakeUniqIT_E15__single_objectEDpOT0_
FN:1064,_ZSt11make_uniqueIN7libMesh10Parameters9ParameterItEEJEENSt8__detail9_MakeUniqIT_E15__single_objectEDpOT0_
FN:1064,_ZSt11make_uniqueI27BVSinglePhaseTimeDerivativeJRK15InputParametersEENSt8__detail9_MakeUniqIT_E15__single_objectEDpOT0_
FN:1064,_ZSt11make_uniqueI19BVLubby2ModelUpdateJRK15InputParametersEENSt8__detail9_MakeUniqIT_E15__single_objectEDpOT0_
FN:1064,_ZSt11make_uniqueI21BVFaultShearStressAuxJRK15InputParametersEENSt8__detail9_MakeUniqIT_E15__single_objectEDpOT0_
FN:1064,_ZSt11make_uniqueIN7libMesh10Parameters9ParameterISt6vectorI12MaterialNameSaIS4_EEEEJEENSt8__detail9_MakeUniqIT_E15__single_objectEDpOT0_
FN:1064,_ZSt11make_uniqueI13BVPressureAuxJRK15InputParametersEENSt8__detail9_MakeUniqIT_E15__single_objectEDpOT0_
FN:1064,_ZSt11make_uniqueI20BVRTL2020ModelUpdateJRK15InputParametersEENSt8__detail9_MakeUniqIT_E15__single_objectEDpOT0_
FN:1064,_ZSt11make_uniqueIN7libMesh10Parameters9ParameterI12MaterialNameEEJEENSt8__detail9_MakeUniqIT_E15__single_objectEDpOT0_
FN:1064,_ZSt11make_uniqueIN7libMesh10Parameters9ParameterI14UserObjectNameEEJEENSt8__detail9_MakeUniqIT_E15__single_objectEDpOT0_
FN:1064,_ZSt11make_uniqueIN7libMesh10Parameters9ParameterIdEEJEENSt8__detail9_MakeUniqIT_E15__single_objectEDpOT0_
FN:1064,_ZSt11make_uniqueI26BVKelvinViscoelasticUpdateJRK15InputParametersEENSt8__detail9_MakeUniqIT_E15__single_objectEDpOT0_
FN:1064,_ZSt11make_uniqueI20BVConstantDispersionJRK15InputParametersEENSt8__detail9_MakeUniqIT_E15__single_objectEDpOT0_
FN:1064,_ZSt11make_uniqueIN7libMesh10Parameters9ParameterI21NonlinearVariableNameEEJEENSt8__detail9_MakeUniqIT_E15__single_objectEDpOT0_
FN:1064,_ZSt11make_uniqueIN7libMesh10Parameters9ParameterINS0_11VectorValueIdEEEEJEENSt8__detail9_MakeUniqIT_E15__single_objectEDpOT0_
FN:1064,_ZSt11make_uniqueI17BVShearTractionBCJRK15InputParametersEENSt8__detail9_MakeUniqIT_E15__single_objectEDpOT0_
FN:1064,_ZSt11make_uniqueI19AppFactoryBuildInfoI9BeaverAppEJEENSt8__detail9_MakeUniqIT_E15__single_objectEDpOT0_
FN:1064,_ZSt11make_uniqueI18ADMaterialPropertyIN7libMesh11VectorValueIdEEEJRKjEENSt8__detail9_MakeUniqIT_E15__single_objectEDpOT0_
FN:1064,_ZSt11make_uniqueI18BVDarcyVelocityAuxJRK15InputParametersEENSt8__detail9_MakeUniqIT_E15__single_objectEDpOT0_
FN:1064,_ZSt11make_uniqueI18ADMaterialPropertyI18RankTwoTensorTemplIdEEJRKjEENSt8__detail9_MakeUniqIT_E15__single_objectEDpOT0_
FN:1064,_ZSt11make_uniqueIN7libMesh10Parameters9ParameterIjEEJEENSt8__detail9_MakeUniqIT_E15__single_objectEDpOT0_
FN:1064,_ZSt11make_uniqueI36BVFVMultiPhasePressureTimeDerivativeJRK15InputParametersEENSt8__detail9_MakeUniqIT_E15__single_objectEDpOT0_
FN:1064,_ZSt11make_uniqueI31BVSinglePhaseFlowSoluteMaterialJRK15InputParametersEENSt8__detail9_MakeUniqIT_E15__single_objectEDpOT0_
FN:1064,_ZSt11make_uniqueIN7libMesh10Parameters9ParameterIbEEJEENSt8__detail9_MakeUniqIT_E15__single_objectEDpOT0_
FN:1064,_ZSt11make_uniqueI16MaterialPropertyIN7libMesh11VectorValueIdEEEJjEENSt8__detail9_MakeUniqIT_E15__single_objectEDpOT0_
FN:1064,_ZSt11make_uniqueI18BVSinglePhaseDarcyJRK15InputParametersEENSt8__detail9_MakeUniqIT_E15__single_objectEDpOT0_
FN:1064,_ZSt11make_uniqueIN7libMesh10Parameters9ParameterI12FunctionNameEEJEENSt8__detail9_MakeUniqIT_E15__single_objectEDpOT0_
FN:1064,_ZSt11make_uniqueI24BVMultiPhaseFlowMaterialJRK15InputParametersEENSt8__detail9_MakeUniqIT_E15__single_objectEDpOT0_
FN:1064,_ZSt11make_uniqueI24BVConstantFrictionUpdateJRK15InputParametersEENSt8__detail9_MakeUniqIT_E15__single_objectEDpOT0_
FN:1064,_ZSt11make_uniqueI26BVFVSinglePhaseSoluteDarcyJRK15InputParametersEENSt8__detail9_MakeUniqIT_E15__single_objectEDpOT0_
FN:1064,_ZSt11make_uniqueI16MaterialPropertyI18RankTwoTensorTemplIdEEJRKjEENSt8__detail9_MakeUniqIT_E15__single_objectEDpOT0_
FN:1064,_ZSt11make_uniqueIN7libMesh10Parameters9ParameterI9MooseEnumEEJEENSt8__detail9_MakeUniqIT_E15__single_objectEDpOT0_
FN:1064,_ZSt11make_uniqueI19BVBurgerModelUpdateJRK15InputParametersEENSt8__detail9_MakeUniqIT_E15__single_objectEDpOT0_
FN:1064,_ZSt11make_uniqueI27BVMaxwellViscoelasticUpdateJRK15InputParametersEENSt8__detail9_MakeUniqIT_E15__single_objectEDpOT0_
FN:1064,_ZSt11make_uniqueI20BVStrainComponentAuxJRK15InputParametersEENSt8__detail9_MakeUniqIT_E15__single_objectEDpOT0_
FN:1064,_ZSt11make_uniqueI16BVMisesStressAuxJRK15InputParametersEENSt8__detail9_MakeUniqIT_E15__single_objectEDpOT0_
FN:1064,_ZSt11make_uniqueI18ADMaterialPropertyIdEJRKjEENSt8__detail9_MakeUniqIT_E15__single_objectEDpOT0_
FN:1064,_ZSt11make_uniqueI21BVMechanicalInterfaceJRK15InputParametersEENSt8__detail9_MakeUniqIT_E15__single_objectEDpOT0_
FN:1064,_ZSt11make_uniqueIN7libMesh10Parameters9ParameterI17MeshGeneratorNameEEJEENSt8__detail9_MakeUniqIT_E15__single_objectEDpOT0_
FN:1064,_ZSt11make_uniqueI20BVFVSinglePhaseDarcyJRK15InputParametersEENSt8__detail9_MakeUniqIT_E15__single_objectEDpOT0_
FN:1064,_ZSt11make_uniqueI30BVRelativePermeabilityPowerLawJRK15InputParametersEENSt8__detail9_MakeUniqIT_E15__single_objectEDpOT0_
FN:1064,_ZSt11make_uniqueI16MaterialPropertyIN7libMesh11VectorValueIdEEEJRKjEENSt8__detail9_MakeUniqIT_E15__single_objectEDpOT0_
FN:1064,_ZSt11make_uniqueIN7libMesh10Parameters9ParameterISt6vectorI12BoundaryNameSaIS4_EEEEJEENSt8__detail9_MakeUniqIT_E15__single_objectEDpOT0_
FN:1064,_ZSt11make_uniqueI12BVPressureBCJRK15InputParametersEENSt8__detail9_MakeUniqIT_E15__single_objectEDpOT0_
FN:1064,_ZSt11make_uniqueI18BVEqvStrainRateAuxJRK15InputParametersEENSt8__detail9_MakeUniqIT_E15__single_objectEDpOT0_
FN:1064,_ZSt11make_uniqueI25BVFaultInterfaceGeneratorJRK15InputParametersEENSt8__detail9_MakeUniqIT_E15__single_objectEDpOT0_
FN:1064,_ZSt11make_uniqueI22BVConstantPermeabilityJRK15InputParametersEENSt8__detail9_MakeUniqIT_E15__single_objectEDpOT0_
FN:1064,_ZSt11make_uniqueI16MaterialPropertyI18RankTwoTensorTemplIdEEJjEENSt8__detail9_MakeUniqIT_E15__single_objectEDpOT0_
FN:1064,_ZSt11make_uniqueIN7libMesh10Parameters9ParameterINSt7__cxx1112basic_stringIcSt11char_traitsIcESaIcEEEEEJEENSt8__detail9_MakeUniqIT_E15__single_objectEDpOT0_
FN:1064,_ZSt11make_uniqueI17BVFluidPropertiesJRK15InputParametersEENSt8__detail9_MakeUniqIT_E15__single_objectEDpOT0_
FN:1064,_ZSt11make_uniqueI16MaterialPropertyIdEJRKjEENSt8__detail9_MakeUniqIT_E15__single_objectEDpOT0_
FN:1064,_ZSt11make_uniqueI29BVMechanicalInterfaceMaterialJRK15InputParametersEENSt8__detail9_MakeUniqIT_E15__single_objectEDpOT0_
FN:1064,_ZSt11make_uniqueI20BVStressComponentAuxJRK15InputParametersEENSt8__detail9_MakeUniqIT_E15__single_objectEDpOT0_
FN:1064,_ZSt11make_uniqueIN7libMesh4NodeEJRKNS0_5PointERKmEENSt8__detail9_MakeUniqIT_E15__single_objectEDpOT0_
FN:1064,_ZSt11make_uniqueI35BVFVSinglePhaseSoluteTimeDerivativeJRK15InputParametersEENSt8__detail9_MakeUniqIT_E15__single_objectEDpOT0_
FN:1064,_ZSt11make_uniqueIN7libMesh10Parameters9ParameterISt6vectorI12FunctionNameSaIS4_EEEEJEENSt8__detail9_MakeUniqIT_E15__single_objectEDpOT0_
FN:1064,_ZSt11make_uniqueI38BVFVMultiPhaseSaturationTimeDerivativeJRK15InputParametersEENSt8__detail9_MakeUniqIT_E15__single_objectEDpOT0_
FN:1064,_ZSt11make_uniqueI25BVSinglePhaseFlowMaterialJRK15InputParametersEENSt8__detail9_MakeUniqIT_E15__single_objectEDpOT0_
FN:1064,_ZSt11make_uniqueI18BVStressDivergenceJRK15InputParametersEENSt8__detail9_MakeUniqIT_E15__single_objectEDpOT0_
FN:1064,_ZSt11make_uniqueI29BVFVMultiPhaseSaturationDarcyJRK15InputParametersEENSt8__detail9_MakeUniqIT_E15__single_objectEDpOT0_
FN:1064,_ZSt11make_uniqueI18BVConstantPorosityJRK15InputParametersEENSt8__detail9_MakeUniqIT_E15__single_objectEDpOT0_
FNDA:4,_ZSt11make_uniqueI17BVShearTractionBCJRK15InputParametersEENSt8__detail9_MakeUniqIT_E15__single_objectEDpOT0_
FNDA:0,_ZSt11make_uniqueIN7libMesh10Parameters9ParameterINS0_11VectorValueIdEEEEJEENSt8__detail9_MakeUniqIT_E15__single_objectEDpOT0_
FNDA:0,_ZNSt10unique_ptrIN7libMesh10Parameters9ParameterINSt7__cxx1112basic_stringIcSt11char_traitsIcESaIcEEEEESt14default_deleteIS9_EED2Ev
FNDA:4,_ZNSt10unique_ptrI17BVShearTractionBCSt14default_deleteIS0_EED2Ev
FNDA:0,_ZNKSt14default_deleteI10MooseArrayIN11MetaPhysicL10DualNumberIdNS1_28SemiDynamicSparseNumberArrayIdmNS1_8NWrapperILm64EEEEELb1EEEEEclEPS8_
FNDA:0,_ZNSt10unique_ptrIN7libMesh10Parameters9ParameterISt6vectorI12FunctionNameSaIS4_EEEESt14default_deleteIS7_EED2Ev
FNDA:0,_ZSt11make_uniqueIN7libMesh10Parameters9ParameterI21NonlinearVariableNameEEJEENSt8__detail9_MakeUniqIT_E15__single_objectEDpOT0_
FNDA:0,_ZNSt10unique_ptrI38BVFVMultiPhaseSaturationTimeDerivativeSt14default_deleteIS0_EED2Ev
FNDA:10,_ZNSt10unique_ptrI21BVMechanicalInterfaceSt14default_deleteIS0_EED2Ev
FNDA:3,_ZNSt10unique_ptrI21BVFaultShearStressAuxSt14default_deleteIS0_EED2Ev
FNDA:0,_ZNKSt14default_deleteIA_18RankTwoTensorTemplIN11MetaPhysicL10DualNumberIdNS1_28SemiDynamicSparseNumberArrayIdmNS1_8NWrapperILm64EEEEELb1EEEEEclIS8_EENSt9enable_ifIXsrSt14is_convertibleIPA_T_PS9_E5valueEvE4typeEPSE_
FNDA:0,_ZSt11make_uniqueI36BVFVMultiPhasePressureTimeDerivativeJRK15InputParametersEENSt8__detail9_MakeUniqIT_E15__single_objectEDpOT0_
FNDA:0,_ZSt11make_uniqueIN7libMesh10Parameters9ParameterIjEEJEENSt8__detail9_MakeUniqIT_E15__single_objectEDpOT0_
FNDA:0,_ZNSt15__uniq_ptr_implI13PropertyValueSt14default_deleteIS0_EEaSEOS3_
FNDA:0,_ZSt11make_uniqueI18ADMaterialPropertyI18RankTwoTensorTemplIdEEJRKjEENSt8__detail9_MakeUniqIT_E15__single_objectEDpOT0_
FNDA:10,_ZNSt10unique_ptrI20BVStrainComponentAuxSt14default_deleteIS0_EED2Ev
FNDA:24,_ZNSt10unique_ptrI17BVFluidPropertiesSt14default_deleteIS0_EED2Ev
FNDA:0,_ZNSt10unique_ptrIN7libMesh10Parameters5ValueESt14default_deleteIS2_EEaSINS1_9ParameterISt6vectorI12FunctionNameSaIS9_EEEES3_ISC_EEENSt9enable_ifIXsrSt6__and_IJSF_IJSt14is_convertibleINS_IT_T0_E7pointerEPS2_ESt6__not_ISt8is_arrayISH_EEEESt13is_assignableIRS4_OSI_EEE5valueERS5_E4typeEOSJ_
FNDA:0,_ZNSt10unique_ptrIN7libMesh10Parameters5ValueESt14default_deleteIS2_EEaSINS1_9ParameterINSt7__cxx1112basic_stringIcSt11char_traitsIcESaIcEEEEES3_ISE_EEENSt9enable_ifIXsrSt6__and_IJSH_IJSt14is_convertibleINS_IT_T0_E7pointerEPS2_ESt6__not_ISt8is_arrayISJ_EEEESt13is_assignableIRS4_OSK_EEE5valueERS5_E4typeEOSL_
FNDA:8,_ZSt11make_uniqueI18BVDarcyVelocityAuxJRK15InputParametersEENSt8__detail9_MakeUniqIT_E15__single_objectEDpOT0_
FNDA:2,_ZNSt10unique_ptrI13BVPressureAuxSt14default_deleteIS0_EED2Ev
FNDA:0,_ZSt11make_uniqueI18ADMaterialPropertyIN7libMesh11VectorValueIdEEEJRKjEENSt8__detail9_MakeUniqIT_E15__single_objectEDpOT0_
FNDA:0,_ZNSt10unique_ptrI18ADMaterialPropertyI18RankTwoTensorTemplIdEESt14default_deleteIS3_EED2Ev
FNDA:0,_ZSt11make_uniqueI19AppFactoryBuildInfoI9BeaverAppEJEENSt8__detail9_MakeUniqIT_E15__single_objectEDpOT0_
FNDA:0,_ZNSt10unique_ptrI10MooseArrayIN11MetaPhysicL10DualNumberIdNS1_28SemiDynamicSparseNumberArrayIdmNS1_8NWrapperILm64EEEEELb1EEEESt14default_deleteIS8_EED2Ev
FNDA:0,_ZNSt10unique_ptrIdSt14default_deleteIdEED2Ev
FNDA:0,_ZSt11make_uniqueI20BVRTL2020ModelUpdateJRK15InputParametersEENSt8__detail9_MakeUniqIT_E15__single_objectEDpOT0_
FNDA:0,_ZNSt10unique_ptrI36BVFVMultiPhasePressureTimeDerivativeSt14default_deleteIS0_EED2Ev
FNDA:0,_ZNSt10unique_ptrI18ADMaterialPropertyIN7libMesh11VectorValueIdEEESt14default_deleteIS4_EED2Ev
FNDA:0,_ZNSt10unique_ptrIN7libMesh9DofObjectESt14default_deleteIS1_EED2Ev
FNDA:2,_ZSt11make_uniqueI13BVPressureAuxJRK15InputParametersEENSt8__detail9_MakeUniqIT_E15__single_objectEDpOT0_
FNDA:3,_ZSt11make_uniqueI21BVFaultShearStressAuxJRK15InputParametersEENSt8__detail9_MakeUniqIT_E15__single_objectEDpOT0_
FNDA:0,_ZSt11make_uniqueIN7libMesh10Parameters9ParameterISt6vectorI12MaterialNameSaIS4_EEEEJEENSt8__detail9_MakeUniqIT_E15__single_objectEDpOT0_
FNDA:3,_ZSt11make_uniqueI19BVLubby2ModelUpdateJRK15InputParametersEENSt8__detail9_MakeUniqIT_E15__single_objectEDpOT0_
FNDA:5,_ZNSt10unique_ptrI25BVFaultInterfaceGeneratorSt14default_deleteIS0_EED2Ev
FNDA:0,_ZNSt10unique_ptrIN7libMesh10Parameters5ValueESt14default_deleteIS2_EEaSINS1_9ParameterItEES3_IS8_EEENSt9enable_ifIXsrSt6__and_IJSB_IJSt14is_convertibleINS_IT_T0_E7pointerEPS2_ESt6__not_ISt8is_arrayISD_EEEESt13is_assignableIRS4_OSE_EEE5valueERS5_E4typeEOSF_
FNDA:0,_ZNSt10unique_ptrI13PropertyValueSt14default_deleteIS0_EED2Ev
FNDA:4,_ZNSt10unique_ptrI16BVMisesStressAuxSt14default_deleteIS0_EED2Ev
FNDA:0,_ZSt11make_uniqueIN7libMesh10Parameters9ParameterIdEEJEENSt8__detail9_MakeUniqIT_E15__single_objectEDpOT0_
FNDA:3,_ZSt11make_uniqueI26BVKelvinViscoelasticUpdateJRK15InputParametersEENSt8__detail9_MakeUniqIT_E15__single_objectEDpOT0_
FNDA:0,_ZSt11make_uniqueI20BVConstantDispersionJRK15InputParametersEENSt8__detail9_MakeUniqIT_E15__single_objectEDpOT0_
FNDA:0,_ZSt11make_uniqueIN7libMesh10Parameters9ParameterI14UserObjectNameEEJEENSt8__detail9_MakeUniqIT_E15__single_objectEDpOT0_
FNDA:140,_ZSt11make_uniqueIN7libMesh10Parameters9ParameterI12MaterialNameEEJEENSt8__detail9_MakeUniqIT_E15__single_objectEDpOT0_
FNDA:0,_ZNSt10unique_ptrI16MaterialPropertyIdESt14default_deleteIS1_EED2Ev
FNDA:0,_ZNSt10unique_ptrIN7libMesh10Parameters5ValueESt14default_deleteIS2_EEaSINS1_9ParameterISt6vectorI12BoundaryNameSaIS9_EEEES3_ISC_EEENSt9enable_ifIXsrSt6__and_IJSF_IJSt14is_convertibleINS_IT_T0_E7pointerEPS2_ESt6__not_ISt8is_arrayISH_EEEESt13is_assignableIRS4_OSI_EEE5valueERS5_E4typeEOSJ_
FNDA:0,_ZSt11make_uniqueI27BVFVMultiPhasePressureDarcyJRK15InputParametersEENSt8__detail9_MakeUniqIT_E15__single_objectEDpOT0_
FNDA:0,_ZNKSt14default_deleteIN7libMesh9DofObjectEEclEPS1_
FNDA:0,_ZNSt10unique_ptrI10MooseArrayIN5Eigen6MatrixIdLin1ELi1ELi0ELin1ELi1EEEESt14default_deleteIS4_EED2Ev
FNDA:0,_ZNSt10unique_ptrI24BVMultiPhaseFlowMaterialSt14default_deleteIS0_EED2Ev
FNDA:3,_ZNSt10unique_ptrI20BVFVSinglePhaseDarcySt14default_deleteIS0_EED2Ev
FNDA:0,_ZNSt10unique_ptrIN7libMesh10Parameters5ValueESt14default_deleteIS2_EEaSINS1_9ParameterIbEES3_IS8_EEENSt9enable_ifIXsrSt6__and_IJSB_IJSt14is_convertibleINS_IT_T0_E7pointerEPS2_ESt6__not_ISt8is_arrayISD_EEEESt13is_assignableIRS4_OSE_EEE5valueERS5_E4typeEOSF_
FNDA:22,_ZNSt10unique_ptrI12BVPressureBCSt14default_deleteIS0_EED2Ev
FNDA:0,_ZNSt10unique_ptrI31BVSinglePhaseFlowSoluteMaterialSt14default_deleteIS0_EED2Ev
FNDA:0,_ZNSt10unique_ptrIN7libMesh10Parameters9ParameterIP13FEProblemBaseEESt14default_deleteIS5_EED2Ev
FNDA:0,_ZNKSt14default_deleteIA_N11MetaPhysicL10DualNumberIdNS0_28SemiDynamicSparseNumberArrayIdmNS0_8NWrapperILm64EEEEELb1EEEEclIS6_EENSt9enable_ifIXsrSt14is_convertibleIPA_T_PS7_E5valueEvE4typeEPSC_
FNDA:3,_ZSt11make_uniqueI27BVSinglePhaseTimeDerivativeJRK15InputParametersEENSt8__detail9_MakeUniqIT_E15__single_objectEDpOT0_
FNDA:297,_ZNSt10unique_ptrIA_N5Eigen6MatrixIdLin1ELi1ELi0ELin1ELi1EEESt14default_deleteIS3_EED2Ev
FNDA:48,_ZNSt10unique_ptrI20BVMechanicalMaterialSt14default_deleteIS0_EED2Ev
FNDA:0,_ZNSt10unique_ptrIN7libMesh10Parameters9ParameterI9MooseEnumEESt14default_deleteIS4_EED2Ev
FNDA:4,_ZNSt10unique_ptrI29BVMechanicalInterfaceMaterialSt14default_deleteIS0_EED2Ev
FNDA:0,_ZSt11make_uniqueIN7libMesh10Parameters9ParameterItEEJEENSt8__detail9_MakeUniqIT_E15__single_objectEDpOT0_
FNDA:106,_ZNSt10unique_ptrIN7libMesh4NodeESt14default_deleteIS1_EED2Ev
FNDA:0,_ZNKSt14default_deleteIA_18RankTwoTensorTemplIdEEclIS1_EENSt9enable_ifIXsrSt14is_convertibleIPA_T_PS2_E5valueEvE4typeEPS7_
FNDA:0,_ZNSt10unique_ptrIN7libMesh10Parameters5ValueESt14default_deleteIS2_EEaSINS1_9ParameterI9MooseEnumEES3_IS9_EEENSt9enable_ifIXsrSt6__and_IJSC_IJSt14is_convertibleINS_IT_T0_E7pointerEPS2_ESt6__not_ISt8is_arrayISE_EEEESt13is_assignableIRS4_OSF_EEE5valueERS5_E4typeEOSG_
FNDA:0,_ZNSt10unique_ptrIN7libMesh10Parameters5ValueESt14default_deleteIS2_EEaSINS1_9ParameterISt6vectorI12MaterialNameSaIS9_EEEES3_ISC_EEENSt9enable_ifIXsrSt6__and_IJSF_IJSt14is_convertibleINS_IT_T0_E7pointerEPS2_ESt6__not_ISt8is_arrayISH_EEEESt13is_assignableIRS4_OSI_EEE5valueERS5_E4typeEOSJ_
FNDA:0,_ZNSt10unique_ptrIN7libMesh10Parameters9ParameterIdEESt14default_deleteIS3_EED2Ev
FNDA:0,_ZNSt10unique_ptrI23AppFactoryBuildInfoBaseSt14default_deleteIS0_EED2Ev
FNDA:0,_ZNSt10unique_ptrI20BVRTL2020ModelUpdateSt14default_deleteIS0_EED2Ev
FNDA:594,_ZNSt10unique_ptrIA_N7libMesh11TensorValueIN11MetaPhysicL10DualNumberIdNS2_28SemiDynamicSparseNumberArrayIdmNS2_8NWrapperILm64EEEEELb1EEEEESt14default_deleteISA_EED2Ev
FNDA:0,_ZNKSt14default_deleteIA_N7libMesh11TensorValueIdEEEclIS2_EENSt9enable_ifIXsrSt14is_convertibleIPA_T_PS3_E5valueEvE4typeEPS8_
FNDA:48,_ZSt11make_uniqueI20BVMechanicalMaterialJRK15InputParametersEENSt8__detail9_MakeUniqIT_E15__single_objectEDpOT0_
FNDA:3,_ZSt11make_uniqueI22BVFaultNormalStressAuxJRK15InputParametersEENSt8__detail9_MakeUniqIT_E15__single_objectEDpOT0_
FNDA:1,_ZSt11make_uniqueI29BVFVSinglePhaseTimeDerivativeJRK15InputParametersEENSt8__detail9_MakeUniqIT_E15__single_objectEDpOT0_
FNDA:0,_ZNSt10unique_ptrIN7libMesh10Parameters9ParameterI14UserObjectNameEESt14default_deleteIS4_EED2Ev
FNDA:0,_ZSt11make_uniqueIN7libMesh10Parameters9ParameterIP13FEProblemBaseEEJEENSt8__detail9_MakeUniqIT_E15__single_objectEDpOT0_
FNDA:0,_ZNSt10unique_ptrIN7libMesh10Parameters9ParameterI21NonlinearVariableNameEESt14default_deleteIS4_EED2Ev
FNDA:24,_ZNSt10unique_ptrI25BVSinglePhaseFlowMaterialSt14default_deleteIS0_EED2Ev
FNDA:2,_ZNSt10unique_ptrI14BVEqvStrainAuxSt14default_deleteIS0_EED2Ev
FNDA:14,_ZNSt10unique_ptrIN7libMesh10Parameters5ValueESt14default_deleteIS2_EEaSINS1_9ParameterISt6vectorI21NonlinearVariableNameSaIS9_EEEES3_ISC_EEENSt9enable_ifIXsrSt6__and_IJSF_IJSt14is_convertibleINS_IT_T0_E7pointerEPS2_ESt6__not_ISt8is_arrayISH_EEEESt13is_assignableIRS4_OSI_EEE5valueERS5_E4typeEOSJ_
FNDA:15,_ZNSt10unique_ptrIN7libMesh8MeshBaseESt14default_deleteIS1_EED2Ev
FNDA:0,_ZNSt10unique_ptrI20BVConstantDispersionSt14default_deleteIS0_EED2Ev
FNDA:0,_ZSt11make_uniqueI27BVCapillaryPressurePowerLawJRK15InputParametersEENSt8__detail9_MakeUniqIT_E15__single_objectEDpOT0_
FNDA:2,_ZSt11make_uniqueI14BVEqvStrainAuxJRK15InputParametersEENSt8__detail9_MakeUniqIT_E15__single_objectEDpOT0_
FNDA:297,_ZNSt10unique_ptrIA_N5Eigen6MatrixIdLin1ELi3ELi0ELin1ELi3EEESt14default_deleteIS3_EED2Ev
FNDA:0,_ZNSt10unique_ptrI26BVFVSinglePhaseSoluteDarcySt14default_deleteIS0_EED2Ev
FNDA:0,_ZNSt15__uniq_ptr_implIN7libMesh10Parameters5ValueESt14default_deleteIS2_EEaSEOS5_
FNDA:0,_ZNSt10unique_ptrIN7libMesh10Parameters9ParameterIjEESt14default_deleteIS3_EED2Ev
FNDA:0,_ZNSt10unique_ptrIN7libMesh10Parameters5ValueESt14default_deleteIS2_EEaSINS1_9ParameterI12FunctionNameEES3_IS9_EEENSt9enable_ifIXsrSt6__and_IJSC_IJSt14is_convertibleINS_IT_T0_E7pointerEPS2_ESt6__not_ISt8is_arrayISE_EEEESt13is_assignableIRS4_OSF_EEE5valueERS5_E4typeEOSG_
FNDA:0,_ZSt11make_uniqueI16MaterialPropertyIdEJjEENSt8__detail9_MakeUniqIT_E15__single_objectEDpOT0_
FNDA:0,_ZNSt10unique_ptrIN7libMesh10Parameters5ValueESt14default_deleteIS2_EEaSINS1_9ParameterI17MeshGeneratorNameEES3_IS9_EEENSt9enable_ifIXsrSt6__and_IJSC_IJSt14is_convertibleINS_IT_T0_E7pointerEPS2_ESt6__not_ISt8is_arrayISE_EEEESt13is_assignableIRS4_OSF_EEE5valueERS5_E4typeEOSG_
FNDA:14,_ZSt11make_uniqueIN7libMesh10Parameters9ParameterISt6vectorI21NonlinearVariableNameSaIS4_EEEEJEENSt8__detail9_MakeUniqIT_E15__single_objectEDpOT0_
FNDA:6,_ZSt11make_uniqueI23BVPoroMechanicsMaterialJRK15InputParametersEENSt8__detail9_MakeUniqIT_E15__single_objectEDpOT0_
FNDA:0,_ZSt11make_uniqueI38BVFVMultiPhaseSaturationTimeDerivativeJRK15InputParametersEENSt8__detail9_MakeUniqIT_E15__single_objectEDpOT0_
FNDA:2,_ZNSt10unique_ptrI18BVEqvStrainRateAuxSt14default_deleteIS0_EED2Ev
FNDA:0,_ZNSt10unique_ptrIN7libMesh10Parameters9ParameterItEESt14default_deleteIS3_EED2Ev
FNDA:0,_ZSt11make_uniqueIN7libMesh10Parameters9ParameterISt6vectorI12FunctionNameSaIS4_EEEEJEENSt8__detail9_MakeUniqIT_E15__single_objectEDpOT0_
FNDA:0,_ZNSt10unique_ptrI30BVRelativePermeabilityPowerLawSt14default_deleteIS0_EED2Ev
FNDA:0,_ZSt11make_uniqueI35BVFVSinglePhaseSoluteTimeDerivativeJRK15InputParametersEENSt8__detail9_MakeUniqIT_E15__single_objectEDpOT0_
FNDA:6,_ZNSt10unique_ptrI23BVPoroMechanicsMaterialSt14default_deleteIS0_EED2Ev
FNDA:0,_ZNSt10unique_ptrIN7libMesh10Parameters5ValueESt14default_deleteIS2_EEaSINS1_9ParameterINS0_11VectorValueIdEEEES3_ISA_EEENSt9enable_ifIXsrSt6__and_IJSD_IJSt14is_convertibleINS_IT_T0_E7pointerEPS2_ESt6__not_ISt8is_arrayISF_EEEESt13is_assignableIRS4_OSG_EEE5valueERS5_E4typeEOSH_
FNDA:0,_ZNSt10unique_ptrIN7libMesh10Parameters9ParameterI17MeshGeneratorNameEESt14default_deleteIS4_EED2Ev
FNDA:0,_ZNSt10unique_ptrI23AppFactoryBuildInfoBaseSt14default_deleteIS0_EEaSI19AppFactoryBuildInfoI9BeaverAppES1_IS7_EEENSt9enable_ifIXsrSt6__and_IJSA_IJSt14is_convertibleINS_IT_T0_E7pointerEPS0_ESt6__not_ISt8is_arrayISC_EEEESt13is_assignableIRS2_OSD_EEE5valueERS3_E4typeEOSE_
FNDA:14,_ZNSt10unique_ptrIN7libMesh10Parameters9ParameterISt6vectorI21NonlinearVariableNameSaIS4_EEEESt14default_deleteIS7_EED2Ev
FNDA:106,_ZSt11make_uniqueIN7libMesh4NodeEJRKNS0_5PointERKmEENSt8__detail9_MakeUniqIT_E15__single_objectEDpOT0_
FNDA:0,_ZNSt10unique_ptrI16MaterialPropertyIN7libMesh11VectorValueIdEEESt14default_deleteIS4_EED2Ev
FNDA:12,_ZSt11make_uniqueI18BVConstantPorosityJRK15InputParametersEENSt8__detail9_MakeUniqIT_E15__single_objectEDpOT0_
FNDA:0,_ZNSt10unique_ptrI10MooseArrayIN7libMesh11VectorValueIN11MetaPhysicL10DualNumberIdNS3_28SemiDynamicSparseNumberArrayIdmNS3_8NWrapperILm64EEEEELb1EEEEEESt14default_deleteISB_EED2Ev
FNDA:0,_ZNKSt14default_deleteIN7libMesh4NodeEEclEPS1_
FNDA:140,_ZNSt10unique_ptrIN7libMesh10Parameters9ParameterI12MaterialNameEESt14default_deleteIS4_EED2Ev
FNDA:40,_ZNSt10unique_ptrIN23variant_filter_iteratorIN7libMesh10Predicates15multi_predicateEPNS1_4ElemERS5_PS5_KS5_RS8_PS8_E8IterBaseESt14default_deleteISC_EED2Ev
FNDA:0,_ZSt11make_uniqueI29BVFVMultiPhaseSaturationDarcyJRK15InputParametersEENSt8__detail9_MakeUniqIT_E15__single_objectEDpOT0_
FNDA:0,_ZNSt10unique_ptrIN7libMesh10Parameters9ParameterIbEESt14default_deleteIS3_EED2Ev
FNDA:962,_ZNSt10unique_ptrIN7libMesh10Parameters5ValueESt14default_deleteIS2_EED2Ev
FNDA:43,_ZSt11make_uniqueI18BVStressDivergenceJRK15InputParametersEENSt8__detail9_MakeUniqIT_E15__single_objectEDpOT0_
FNDA:24,_ZSt11make_uniqueI25BVSinglePhaseFlowMaterialJRK15InputParametersEENSt8__detail9_MakeUniqIT_E15__single_objectEDpOT0_
FNDA:0,_ZNSt10unique_ptrIN7libMesh10Parameters5ValueESt14default_deleteIS2_EEaSINS1_9ParameterIdEES3_IS8_EEENSt9enable_ifIXsrSt6__and_IJSB_IJSt14is_convertibleINS_IT_T0_E7pointerEPS2_ESt6__not_ISt8is_arrayISD_EEEESt13is_assignableIRS4_OSE_EEE5valueERS5_E4typeEOSF_
FNDA:0,_ZNSt10unique_ptrINSt13__future_base12_Result_baseENS1_8_DeleterEED2Ev
FNDA:30,_ZSt11make_uniqueI22BVConstantPermeabilityJRK15InputParametersEENSt8__detail9_MakeUniqIT_E15__single_objectEDpOT0_
FNDA:0,_ZNSt10unique_ptrIN5Moose11FunctorBaseIdEESt14default_deleteIS2_EED2Ev
FNDA:0,_ZNKSt14default_deleteI10MooseArrayIN7libMesh11VectorValueIN11MetaPhysicL10DualNumberIdNS3_28SemiDynamicSparseNumberArrayIdmNS3_8NWrapperILm64EEEEELb1EEEEEEEclEPSB_
FNDA:5,_ZSt11make_uniqueI25BVFaultInterfaceGeneratorJRK15InputParametersEENSt8__detail9_MakeUniqIT_E15__single_objectEDpOT0_
FNDA:0,_ZNSt10unique_ptrI10MooseArrayIN7libMesh11VectorValueIdEEESt14default_deleteIS4_EED2Ev
FNDA:0,_ZNSt10unique_ptrI18ADMaterialPropertyIdESt14default_deleteIS1_EED2Ev
FNDA:2,_ZSt11make_uniqueI18BVEqvStrainRateAuxJRK15InputParametersEENSt8__detail9_MakeUniqIT_E15__single_objectEDpOT0_
FNDA:22,_ZSt11make_uniqueI12BVPressureBCJRK15InputParametersEENSt8__detail9_MakeUniqIT_E15__single_objectEDpOT0_
FNDA:0,_ZNKSt14default_deleteI10MooseArrayIN5Eigen6MatrixIdLin1ELi1ELi0ELin1ELi1EEEEEclEPS4_
FNDA:140,_ZNSt10unique_ptrIN7libMesh10Parameters5ValueESt14default_deleteIS2_EEaSINS1_9ParameterI12MaterialNameEES3_IS9_EEENSt9enable_ifIXsrSt6__and_IJSC_IJSt14is_convertibleINS_IT_T0_E7pointerEPS2_ESt6__not_ISt8is_arrayISE_EEEESt13is_assignableIRS4_OSF_EEE5valueERS5_E4typeEOSG_
FNDA:1,_ZNSt10unique_ptrI29BVFVSinglePhaseTimeDerivativeSt14default_deleteIS0_EED2Ev
FNDA:0,_ZNSt10unique_ptrIN7libMesh10Parameters9ParameterINS0_11VectorValueIdEEEESt14default_deleteIS5_EED2Ev
FNDA:0,_ZNSt10unique_ptrIN5Moose11FunctorBaseIN11MetaPhysicL10DualNumberIdNS2_28SemiDynamicSparseNumberArrayIdmNS2_8NWrapperILm64EEEEELb1EEEEESt14default_deleteIS9_EED2Ev
FNDA:20,_ZNSt10unique_ptrIN23variant_filter_iteratorIN7libMesh10Predicates15multi_predicateEPNS1_4ElemERS5_PS5_KS5_RS8_PS8_E8PredBaseESt14default_deleteISC_EED2Ev
FNDA:13,_ZSt11make_uniqueI20BVStressComponentAuxJRK15InputParametersEENSt8__detail9_MakeUniqIT_E15__single_objectEDpOT0_
FNDA:13,_ZNSt10unique_ptrI20BVStressComponentAuxSt14default_deleteIS0_EED2Ev
FNDA:0,_ZNSt10unique_ptrIA_18RankTwoTensorTemplIN11MetaPhysicL10DualNumberIdNS1_28SemiDynamicSparseNumberArrayIdmNS1_8NWrapperILm64EEEEELb1EEEESt14default_deleteIS9_EED2Ev
FNDA:0,_ZSt11make_uniqueI16MaterialPropertyIdEJRKjEENSt8__detail9_MakeUniqIT_E15__single_objectEDpOT0_
FNDA:4,_ZSt11make_uniqueI29BVMechanicalInterfaceMaterialJRK15InputParametersEENSt8__detail9_MakeUniqIT_E15__single_objectEDpOT0_
FNDA:0,_ZNSt10unique_ptrI19AppFactoryBuildInfoI9BeaverAppESt14default_deleteIS2_EED2Ev
FNDA:24,_ZSt11make_uniqueI17BVFluidPropertiesJRK15InputParametersEENSt8__detail9_MakeUniqIT_E15__single_objectEDpOT0_
FNDA:0,_ZNKSt14default_deleteIA_N5Eigen6MatrixIdLin1ELi1ELi0ELin1ELi1EEEEclIS2_EENSt9enable_ifIXsrSt14is_convertibleIPA_T_PS3_E5valueEvE4typeEPS8_
FNDA:0,_ZSt11make_uniqueIN7libMesh10Parameters9ParameterINSt7__cxx1112basic_stringIcSt11char_traitsIcESaIcEEEEEJEENSt8__detail9_MakeUniqIT_E15__single_objectEDpOT0_
FNDA:6,_ZNSt10unique_ptrI24BVConstantFrictionUpdateSt14default_deleteIS0_EED2Ev
FNDA:0,_ZSt11make_uniqueI16MaterialPropertyI18RankTwoTensorTemplIdEEJjEENSt8__detail9_MakeUniqIT_E15__single_objectEDpOT0_
FNDA:0,_ZSt11make_uniqueIN7libMesh10Parameters9ParameterI17MeshGeneratorNameEEJEENSt8__detail9_MakeUniqIT_E15__single_objectEDpOT0_
FNDA:3,_ZNSt10unique_ptrI26BVKelvinViscoelasticUpdateSt14default_deleteIS0_EED2Ev
FNDA:0,_ZNSt10unique_ptrI33OptionalMaterialPropertyProxyBaseI25MaterialPropertyInterfaceESt14default_deleteIS2_EED2Ev
FNDA:10,_ZSt11make_uniqueI21BVMechanicalInterfaceJRK15InputParametersEENSt8__detail9_MakeUniqIT_E15__single_objectEDpOT0_
FNDA:0,_ZNKSt14default_deleteI10MooseArrayIdEEclEPS1_
FNDA:0,_ZNKSt14default_deleteI10MooseArrayIN7libMesh11VectorValueIdEEEEclEPS4_
FNDA:0,_ZSt11make_uniqueI18ADMaterialPropertyIdEJRKjEENSt8__detail9_MakeUniqIT_E15__single_objectEDpOT0_
FNDA:4,_ZSt11make_uniqueI16BVMisesStressAuxJRK15InputParametersEENSt8__detail9_MakeUniqIT_E15__single_objectEDpOT0_
FNDA:0,_ZNSt10unique_ptrIN7libMesh10Parameters9ParameterISt6vectorI12BoundaryNameSaIS4_EEEESt14default_deleteIS7_EED2Ev
FNDA:0,_ZNSt10unique_ptrIN7libMesh10Parameters9ParameterISt6vectorI12MaterialNameSaIS4_EEEESt14default_deleteIS7_EED2Ev
FNDA:0,_ZNSt10unique_ptrI10MooseArrayIdESt14default_deleteIS1_EED2Ev
FNDA:0,_ZNSt10unique_ptrIN7libMesh10Parameters5ValueESt14default_deleteIS2_EEaSINS1_9ParameterI21NonlinearVariableNameEES3_IS9_EEENSt9enable_ifIXsrSt6__and_IJSC_IJSt14is_convertibleINS_IT_T0_E7pointerEPS2_ESt6__not_ISt8is_arrayISE_EEEESt13is_assignableIRS4_OSF_EEE5valueERS5_E4typeEOSG_
FNDA:0,_ZSt11make_uniqueI16MaterialPropertyIN7libMesh11VectorValueIdEEEJRKjEENSt8__detail9_MakeUniqIT_E15__single_objectEDpOT0_
FNDA:0,_ZSt11make_uniqueIN7libMesh10Parameters9ParameterISt6vectorI12BoundaryNameSaIS4_EEEEJEENSt8__detail9_MakeUniqIT_E15__single_objectEDpOT0_
FNDA:3,_ZNSt10unique_ptrI27BVSinglePhaseTimeDerivativeSt14default_deleteIS0_EED2Ev
FNDA:0,_ZSt11make_uniqueI30BVRelativePermeabilityPowerLawJRK15InputParametersEENSt8__detail9_MakeUniqIT_E15__single_objectEDpOT0_
FNDA:0,_ZNSt10unique_ptrI27BVCapillaryPressurePowerLawSt14default_deleteIS0_EED2Ev
FNDA:3,_ZNSt10unique_ptrI22BVFaultNormalStressAuxSt14default_deleteIS0_EED2Ev
FNDA:3,_ZSt11make_uniqueI20BVFVSinglePhaseDarcyJRK15InputParametersEENSt8__detail9_MakeUniqIT_E15__single_objectEDpOT0_
FNDA:594,_ZNSt10unique_ptrIA_N7libMesh11TensorValueIdEESt14default_deleteIS3_EED2Ev
FNDA:3,_ZNSt10unique_ptrI27BVMaxwellViscoelasticUpdateSt14default_deleteIS0_EED2Ev
FNDA:0,_ZNSt10unique_ptrIN7libMesh10Parameters5ValueESt14default_deleteIS2_EEaSINS1_9ParameterIjEES3_IS8_EEENSt9enable_ifIXsrSt6__and_IJSB_IJSt14is_convertibleINS_IT_T0_E7pointerEPS2_ESt6__not_ISt8is_arrayISD_EEEESt13is_assignableIRS4_OSE_EEE5valueERS5_E4typeEOSF_
FNDA:3,_ZNSt10unique_ptrI19BVBurgerModelUpdateSt14default_deleteIS0_EED2Ev
FNDA:0,_ZSt11make_uniqueI16MaterialPropertyIN7libMesh11VectorValueIdEEEJjEENSt8__detail9_MakeUniqIT_E15__single_objectEDpOT0_
FNDA:43,_ZNSt10unique_ptrI18BVStressDivergenceSt14default_deleteIS0_EED2Ev
FNDA:0,_ZNSt10unique_ptrI27BVFVMultiPhasePressureDarcySt14default_deleteIS0_EED2Ev
FNDA:0,_ZNSt10unique_ptrI33OptionalMaterialPropertyProxyBaseI8MaterialESt14default_deleteIS2_EED2Ev
FNDA:0,_ZNSt10unique_ptrI16MaterialPropertyI18RankTwoTensorTemplIdEESt14default_deleteIS3_EED2Ev
FNDA:0,_ZNKSt14default_deleteIA_N7libMesh11TensorValueIN11MetaPhysicL10DualNumberIdNS2_28SemiDynamicSparseNumberArrayIdmNS2_8NWrapperILm64EEEEELb1EEEEEEclIS9_EENSt9enable_ifIXsrSt14is_convertibleIPA_T_PSA_E5valueEvE4typeEPSF_
FNDA:0,_ZNSt10unique_ptrIN7libMesh10Parameters9ParameterI12FunctionNameEESt14default_deleteIS4_EED2Ev
FNDA:8,_ZNSt10unique_ptrI18BVDarcyVelocityAuxSt14default_deleteIS0_EED2Ev
FNDA:0,_ZSt11make_uniqueIN7libMesh10Parameters9ParameterIbEEJEENSt8__detail9_MakeUniqIT_E15__single_objectEDpOT0_
FNDA:5,_ZNSt10unique_ptrI18BVSinglePhaseDarcySt14default_deleteIS0_EED2Ev
FNDA:0,_ZNSt10unique_ptrI29BVFVMultiPhaseSaturationDarcySt14default_deleteIS0_EED2Ev
FNDA:0,_ZSt11make_uniqueI31BVSinglePhaseFlowSoluteMaterialJRK15InputParametersEENSt8__detail9_MakeUniqIT_E15__single_objectEDpOT0_
FNDA:10,_ZSt11make_uniqueI20BVStrainComponentAuxJRK15InputParametersEENSt8__detail9_MakeUniqIT_E15__single_objectEDpOT0_
FNDA:3,_ZSt11make_uniqueI27BVMaxwellViscoelasticUpdateJRK15InputParametersEENSt8__detail9_MakeUniqIT_E15__single_objectEDpOT0_
FNDA:12,_ZNSt10unique_ptrI18BVConstantPorositySt14default_deleteIS0_EED2Ev
FNDA:3,_ZSt11make_uniqueI19BVBurgerModelUpdateJRK15InputParametersEENSt8__detail9_MakeUniqIT_E15__single_objectEDpOT0_
FNDA:0,_ZNKSt14default_deleteIA_N5Eigen6MatrixIdLin1ELi3ELi0ELin1ELi3EEEEclIS2_EENSt9enable_ifIXsrSt14is_convertibleIPA_T_PS3_E5valueEvE4typeEPS8_
FNDA:0,_ZNSt10unique_ptrIN7libMesh10Parameters5ValueESt14default_deleteIS2_EEaSINS1_9ParameterI14UserObjectNameEES3_IS9_EEENSt9enable_ifIXsrSt6__and_IJSC_IJSt14is_convertibleINS_IT_T0_E7pointerEPS2_ESt6__not_ISt8is_arrayISE_EEEESt13is_assignableIRS4_OSF_EEE5valueERS5_E4typeEOSG_
FNDA:0,_ZSt11make_uniqueI16MaterialPropertyI18RankTwoTensorTemplIdEEJRKjEENSt8__detail9_MakeUniqIT_E15__single_objectEDpOT0_
FNDA:0,_ZSt11make_uniqueIN7libMesh10Parameters9ParameterI9MooseEnumEEJEENSt8__detail9_MakeUniqIT_E15__single_objectEDpOT0_
FNDA:6,_ZSt11make_uniqueI24BVConstantFrictionUpdateJRK15InputParametersEENSt8__detail9_MakeUniqIT_E15__single_objectEDpOT0_
FNDA:0,_ZSt11make_uniqueI26BVFVSinglePhaseSoluteDarcyJRK15InputParametersEENSt8__detail9_MakeUniqIT_E15__single_objectEDpOT0_
FNDA:3,_ZNSt10unique_ptrI19BVLubby2ModelUpdateSt14default_deleteIS0_EED2Ev
FNDA:0,_ZSt11make_uniqueIN7libMesh10Parameters9ParameterI12FunctionNameEEJEENSt8__detail9_MakeUniqIT_E15__single_objectEDpOT0_
FNDA:297,_ZNSt10unique_ptrIA_N7libMesh11VectorValueIN11MetaPhysicL10DualNumberIdNS2_28SemiDynamicSparseNumberArrayIdmNS2_8NWrapperILm64EEEEELb1EEEEESt14default_deleteISA_EED2Ev
FNDA:0,_ZNKSt14default_deleteIA_N7libMesh11VectorValueIN11MetaPhysicL10DualNumberIdNS2_28SemiDynamicSparseNumberArrayIdmNS2_8NWrapperILm64EEEEELb1EEEEEEclIS9_EENSt9enable_ifIXsrSt14is_convertibleIPA_T_PSA_E5valueEvE4typeEPSF_
FNDA:0,_ZSt11make_uniqueI24BVMultiPhaseFlowMaterialJRK15InputParametersEENSt8__detail9_MakeUniqIT_E15__single_objectEDpOT0_
FNDA:0,_ZNSt10unique_ptrI35BVFVSinglePhaseSoluteTimeDerivativeSt14default_deleteIS0_EED2Ev
FNDA:0,_ZNSt10unique_ptrIA_N11MetaPhysicL10DualNumberIdNS0_28SemiDynamicSparseNumberArrayIdmNS0_8NWrapperILm64EEEEELb1EEESt14default_deleteIS7_EED2Ev
FNDA:0,_ZNSt10unique_ptrIA_18RankTwoTensorTemplIdESt14default_deleteIS2_EED2Ev
FNDA:5,_ZSt11make_uniqueI18BVSinglePhaseDarcyJRK15InputParametersEENSt8__detail9_MakeUniqIT_E15__single_objectEDpOT0_
FNDA:30,_ZNSt10unique_ptrI22BVConstantPermeabilitySt14default_deleteIS0_EED2Ev
FNF:197
